
Super_Clokk.elf:     file format elf32-avr

Sections:
Idx Name          Size      VMA       LMA       File off  Algn
  0 .text         000053f6  00000000  00000000  000000b4  2**1
                  CONTENTS, ALLOC, LOAD, READONLY, CODE
  1 .data         00000366  00800060  000053f6  000054aa  2**0
                  CONTENTS, ALLOC, LOAD, DATA
  2 .bss          000000d0  008003c6  008003c6  00005810  2**0
                  ALLOC
  3 .eeprom       00000023  00810000  00810000  00005810  2**0
                  CONTENTS, ALLOC, LOAD, DATA
  4 .stab         00000024  00000000  00000000  00005834  2**2
                  CONTENTS, READONLY, DEBUGGING
  5 .stabstr      0000001e  00000000  00000000  00005858  2**0
                  CONTENTS, READONLY, DEBUGGING
  6 .comment      0000005c  00000000  00000000  00005876  2**0
                  CONTENTS, READONLY
  7 .note.gnu.avr.deviceinfo 0000003c  00000000  00000000  000058d4  2**2
                  CONTENTS, READONLY
  8 .debug_aranges 00000540  00000000  00000000  00005910  2**3
                  CONTENTS, READONLY, DEBUGGING
  9 .debug_info   00008588  00000000  00000000  00005e50  2**0
                  CONTENTS, READONLY, DEBUGGING
 10 .debug_abbrev 000014a6  00000000  00000000  0000e3d8  2**0
                  CONTENTS, READONLY, DEBUGGING
 11 .debug_line   000045c2  00000000  00000000  0000f87e  2**0
                  CONTENTS, READONLY, DEBUGGING
 12 .debug_frame  00001194  00000000  00000000  00013e40  2**2
                  CONTENTS, READONLY, DEBUGGING
 13 .debug_str    00001738  00000000  00000000  00014fd4  2**0
                  CONTENTS, READONLY, DEBUGGING
 14 .debug_loc    000072ae  00000000  00000000  0001670c  2**0
                  CONTENTS, READONLY, DEBUGGING
 15 .debug_ranges 00000490  00000000  00000000  0001d9ba  2**0
                  CONTENTS, READONLY, DEBUGGING

Disassembly of section .text:

00000000 <__vectors>:
       0:	0c 94 a2 01 	jmp	0x344	; 0x344 <__ctors_end>
       4:	0c 94 bf 01 	jmp	0x37e	; 0x37e <__bad_interrupt>
       8:	0c 94 bf 01 	jmp	0x37e	; 0x37e <__bad_interrupt>
       c:	0c 94 bf 01 	jmp	0x37e	; 0x37e <__bad_interrupt>
      10:	0c 94 86 24 	jmp	0x490c	; 0x490c <__vector_4>
      14:	0c 94 bf 01 	jmp	0x37e	; 0x37e <__bad_interrupt>
      18:	0c 94 bf 01 	jmp	0x37e	; 0x37e <__bad_interrupt>
      1c:	0c 94 bf 01 	jmp	0x37e	; 0x37e <__bad_interrupt>
      20:	0c 94 bf 01 	jmp	0x37e	; 0x37e <__bad_interrupt>
      24:	0c 94 bf 01 	jmp	0x37e	; 0x37e <__bad_interrupt>
      28:	0c 94 f8 23 	jmp	0x47f0	; 0x47f0 <__vector_10>
      2c:	0c 94 bf 01 	jmp	0x37e	; 0x37e <__bad_interrupt>
      30:	0c 94 bf 01 	jmp	0x37e	; 0x37e <__bad_interrupt>
      34:	0c 94 bf 01 	jmp	0x37e	; 0x37e <__bad_interrupt>
      38:	0c 94 bf 01 	jmp	0x37e	; 0x37e <__bad_interrupt>
      3c:	0c 94 bf 01 	jmp	0x37e	; 0x37e <__bad_interrupt>
      40:	0c 94 bf 01 	jmp	0x37e	; 0x37e <__bad_interrupt>
      44:	0c 94 bf 01 	jmp	0x37e	; 0x37e <__bad_interrupt>
      48:	0c 94 bf 01 	jmp	0x37e	; 0x37e <__bad_interrupt>
      4c:	0c 94 bf 01 	jmp	0x37e	; 0x37e <__bad_interrupt>
      50:	0c 94 bf 01 	jmp	0x37e	; 0x37e <__bad_interrupt>

00000054 <__trampolines_end>:
      54:	3d 03       	fmul	r19, r21
      56:	36 03       	mulsu	r19, r22
      58:	2f 03       	fmul	r18, r23
      5a:	28 03       	fmul	r18, r16
      5c:	21 03       	mulsu	r18, r17
      5e:	1a 03       	fmul	r17, r18
      60:	13 03       	mulsu	r17, r19
      62:	0c 03       	fmul	r16, r20
      64:	05 03       	mulsu	r16, r21
      66:	fe 02       	muls	r31, r30
      68:	f7 02       	muls	r31, r23
      6a:	f0 02       	muls	r31, r16
      6c:	e9 02       	muls	r30, r25
      6e:	e2 02       	muls	r30, r18
      70:	db 02       	muls	r29, r27
      72:	d4 02       	muls	r29, r20
      74:	cd 02       	muls	r28, r29
      76:	c6 02       	muls	r28, r22
      78:	bf 02       	muls	r27, r31
      7a:	b8 02       	muls	r27, r24
      7c:	b1 02       	muls	r27, r17
      7e:	aa 02       	muls	r26, r26
      80:	a3 02       	muls	r26, r19
      82:	9c 02       	muls	r25, r28
      84:	95 02       	muls	r25, r21
      86:	8e 02       	muls	r24, r30
      88:	87 02       	muls	r24, r23
      8a:	80 02       	muls	r24, r16
      8c:	79 02       	muls	r23, r25
      8e:	72 02       	muls	r23, r18
      90:	6b 02       	muls	r22, r27
      92:	64 02       	muls	r22, r20
      94:	5d 02       	muls	r21, r29
      96:	56 02       	muls	r21, r22
      98:	4f 02       	muls	r20, r31
      9a:	48 02       	muls	r20, r24
      9c:	41 02       	muls	r20, r17
      9e:	3a 02       	muls	r19, r26
      a0:	33 02       	muls	r19, r19
      a2:	2c 02       	muls	r18, r28
      a4:	25 02       	muls	r18, r21
      a6:	1e 02       	muls	r17, r30
      a8:	17 02       	muls	r17, r23
      aa:	10 02       	muls	r17, r16
      ac:	09 02       	muls	r16, r25
      ae:	02 02       	muls	r16, r18
      b0:	fb 01       	movw	r30, r22
      b2:	f4 01       	movw	r30, r8
      b4:	ed 01       	movw	r28, r26
      b6:	e6 01       	movw	r28, r12
      b8:	df 01       	movw	r26, r30
      ba:	d8 01       	movw	r26, r16
      bc:	d1 01       	movw	r26, r2
      be:	ca 01       	movw	r24, r20
      c0:	c3 01       	movw	r24, r6
      c2:	bc 01       	movw	r22, r24
      c4:	b5 01       	movw	r22, r10
      c6:	ae 01       	movw	r20, r28
      c8:	a7 01       	movw	r20, r14
      ca:	a0 01       	movw	r20, r0
      cc:	99 01       	movw	r18, r18
      ce:	92 01       	movw	r18, r4
      d0:	8b 01       	movw	r16, r22
      d2:	84 01       	movw	r16, r8
      d4:	7d 01       	movw	r14, r26
      d6:	76 01       	movw	r14, r12
      d8:	6f 01       	movw	r12, r30
      da:	68 01       	movw	r12, r16
      dc:	61 01       	movw	r12, r2
      de:	5a 01       	movw	r10, r20
      e0:	53 01       	movw	r10, r6
      e2:	4c 01       	movw	r8, r24
      e4:	45 01       	movw	r8, r10
      e6:	3e 01       	movw	r6, r28
      e8:	37 01       	movw	r6, r14
      ea:	30 01       	movw	r6, r0
      ec:	29 01       	movw	r4, r18
      ee:	22 01       	movw	r4, r4
      f0:	1b 01       	movw	r2, r22
      f2:	14 01       	movw	r2, r8
      f4:	0d 01       	movw	r0, r26
      f6:	06 01       	movw	r0, r12
      f8:	ff 00       	.word	0x00ff	; ????
      fa:	fc 00       	.word	0x00fc	; ????

000000fc <font_83>:
      fc:	7c 01 ff                                            |..

000000ff <font_82>:
      ff:	25 05 ff 81 00 81 ff                                %......

00000106 <font_81>:
     106:	a7 05 ff 95 08 95 ff                                .......

0000010d <font_80>:
     10d:	3a 02 66 66 ff ff ff                                :.ff...

00000114 <font_79>:
     114:	b0 02 60 60 ff ff ff                                ..``...

0000011b <font_78>:
     11b:	2e 02 03 03 ff ff ff                                .......

00000122 <font_77>:
     122:	60 05 ff ff ff ff ff                                `......

00000129 <font_76>:
     129:	2a 05 44 02 12 02 44                                *.D...D

00000130 <font_75>:
     130:	24 05 12 2a 7f 2a 24                                $..*.*$

00000137 <font_74>:
     137:	3c 05 08 1c 2a 08 08                                <...*..

0000013e <font_73>:
     13e:	3e 05 10 10 54 38 10                                >...T8.

00000145 <font_72>:
     145:	3d 05 14 14 14 14 14                                =......

0000014c <font_71>:
     14c:	2d 05 08 08 08 08 08                                -......

00000153 <font_70>:
     153:	2b 05 08 08 3e 08 08                                +...>..

0000015a <font_69>:
     15a:	29 04 00 81 42 3c 00                                )...B<.

00000161 <font_68>:
     161:	28 04 00 3c 42 81 00                                (..<B..

00000168 <font_67>:
     168:	26 05 76 89 95 62 05                                &.v..b.

0000016f <font_66>:
     16f:	23 05 20 40 ff 40 20                                #. @.@ 

00000176 <font_65>:
     176:	40 05 04 02 ff 02 04                                @......

0000017d <font_64>:
     17d:	21 01 fd 00 00 00 00                                !......

00000184 <font_63>:
     184:	3f 05 60 80 8d 90 60                                ?.`...`

0000018b <font_62>:
     18b:	39 05 70 89 89 8a 7c                                9.p...|

00000192 <font_61>:
     192:	38 05 6e 91 91 91 6e                                8.n...n

00000199 <font_60>:
     199:	37 05 80 8f 90 a0 c0                                7......

000001a0 <font_59>:
     1a0:	36 05 1e 29 49 89 86                                6..)I..

000001a7 <font_58>:
     1a7:	35 05 f2 91 91 91 8e                                5......

000001ae <font_57>:
     1ae:	34 05 18 28 48 ff 08                                4..(H..

000001b5 <font_56>:
     1b5:	33 05 42 81 91 91 6e                                3.B...n

000001bc <font_55>:
     1bc:	32 05 43 85 89 91 61                                2.C...a

000001c3 <font_54>:
     1c3:	31 04 00 41 ff 01 00                                1..A...

000001ca <font_53>:
     1ca:	30 05 7e 89 91 a1 7e                                0.~...~

000001d1 <font_52>:
     1d1:	7a 05 11 13 15 19 11                                z......

000001d8 <font_51>:
     1d8:	79 05 00 39 05 05 3e                                y..9..>

000001df <font_50>:
     1df:	78 05 11 0a 04 0a 11                                x......

000001e6 <font_49>:
     1e6:	77 05 1e 01 0e 01 1e                                w......

000001ed <font_48>:
     1ed:	76 05 1c 02 01 02 1c                                v......

000001f4 <font_47>:
     1f4:	75 05 1e 01 01 02 1f                                u......

000001fb <font_46>:
     1fb:	74 05 20 fe 21 01 02                                t. .!..

00000202 <font_45>:
     202:	73 05 09 15 15 15 02                                s......

00000209 <font_44>:
     209:	72 05 1f 08 10 10 08                                r......

00000210 <font_43>:
     210:	71 05 10 28 28 18 3f                                q..((.?

00000217 <font_42>:
     217:	70 05 3f 24 24 24 18                                p.?$$$.

0000021e <font_41>:
     21e:	6f 05 0e 11 11 11 0e                                o......

00000225 <font_40>:
     225:	6e 05 3f 10 20 20 1f                                n.?.  .

0000022c <font_39>:
     22c:	6d 05 3f 20 18 20 1f                                m.? . .

00000233 <font_38>:
     233:	6c 04 00 81 ff 01 00                                l......

0000023a <font_37>:
     23a:	6b 04 ff 04 0a 11 00                                k......

00000241 <font_36>:
     241:	6a 04 02 01 21 be 00                                j...!..

00000248 <font_35>:
     248:	69 01 5f 00 00 00 00                                i._....

0000024f <font_34>:
     24f:	68 05 ff 08 10 10 0f                                h......

00000256 <font_33>:
     256:	67 05 30 49 49 49 7e                                g.0III~

0000025d <font_32>:
     25d:	66 05 08 7f 88 80 40                                f.....@

00000264 <font_31>:
     264:	65 05 0e 15 15 15 0c                                e......

0000026b <font_30>:
     26b:	64 05 0e 11 11 09 ff                                d......

00000272 <font_29>:
     272:	63 05 1e 21 21 21 12                                c..!!!.

00000279 <font_28>:
     279:	62 05 ff 09 11 11 0e                                b......

00000280 <font_27>:
     280:	61 05 06 29 29 29 1f                                a..))).

00000287 <font_26>:
     287:	5a 05 83 85 99 a1 c1                                Z......

0000028e <font_25>:
     28e:	59 05 e0 10 0f 10 e0                                Y......

00000295 <font_24>:
     295:	58 05 c3 24 18 24 c3                                X..$.$.

0000029c <font_23>:
     29c:	57 05 ff 02 0c 02 ff                                W......

000002a3 <font_22>:
     2a3:	56 05 f0 0c 03 0c f0                                V......

000002aa <font_21>:
     2aa:	55 05 fe 01 01 01 fe                                U......

000002b1 <font_20>:
     2b1:	54 05 80 80 ff 80 80                                T......

000002b8 <font_19>:
     2b8:	53 05 61 91 91 91 8e                                S.a....

000002bf <font_18>:
     2bf:	52 05 ff 88 8c 8a 71                                R.....q

000002c6 <font_17>:
     2c6:	51 05 7e 81 85 82 7d                                Q.~...}

000002cd <font_16>:
     2cd:	50 05 ff 88 88 88 70                                P.....p

000002d4 <font_15>:
     2d4:	4f 05 7e 81 81 81 7e                                O.~...~

000002db <font_14>:
     2db:	4e 05 ff 40 30 08 ff                                N..@0..

000002e2 <font_13>:
     2e2:	4d 05 ff 40 30 40 ff                                M..@0@.

000002e9 <font_12>:
     2e9:	4c 05 ff 01 01 01 01                                L......

000002f0 <font_11>:
     2f0:	4b 05 ff 18 24 42 81                                K...$B.

000002f7 <font_10>:
     2f7:	4a 05 06 01 01 01 fe                                J......

000002fe <font_9>:
     2fe:	49 05 81 81 ff 81 81                                I......

00000305 <font_8>:
     305:	48 05 ff 10 10 10 ff                                H......

0000030c <font_7>:
     30c:	47 05 7e 81 89 89 4e                                G.~...N

00000313 <font_6>:
     313:	46 05 ff 90 90 90 80                                F......

0000031a <font_5>:
     31a:	45 05 ff 91 91 91 81                                E......

00000321 <font_4>:
     321:	44 05 ff 81 81 42 3c                                D....B<

00000328 <font_3>:
     328:	43 05 7e 81 81 81 42                                C.~...B

0000032f <font_2>:
     32f:	42 05 ff 91 91 91 6e                                B.....n

00000336 <font_1>:
     336:	41 05 3f 48 88 48 3f                                A.?H.H?

0000033d <font_0>:
     33d:	20 03 00 00 00 00 00                                 ......

00000344 <__ctors_end>:
     344:	11 24       	eor	r1, r1
     346:	1f be       	out	0x3f, r1	; 63
     348:	cf e5       	ldi	r28, 0x5F	; 95
     34a:	d8 e0       	ldi	r29, 0x08	; 8
     34c:	de bf       	out	0x3e, r29	; 62
     34e:	cd bf       	out	0x3d, r28	; 61

00000350 <__do_copy_data>:
     350:	13 e0       	ldi	r17, 0x03	; 3
     352:	a0 e6       	ldi	r26, 0x60	; 96
     354:	b0 e0       	ldi	r27, 0x00	; 0
     356:	e6 ef       	ldi	r30, 0xF6	; 246
     358:	f3 e5       	ldi	r31, 0x53	; 83
     35a:	02 c0       	rjmp	.+4      	; 0x360 <__do_copy_data+0x10>
     35c:	05 90       	lpm	r0, Z+
     35e:	0d 92       	st	X+, r0
     360:	a6 3c       	cpi	r26, 0xC6	; 198
     362:	b1 07       	cpc	r27, r17
     364:	d9 f7       	brne	.-10     	; 0x35c <__do_copy_data+0xc>

00000366 <__do_clear_bss>:
     366:	24 e0       	ldi	r18, 0x04	; 4
     368:	a6 ec       	ldi	r26, 0xC6	; 198
     36a:	b3 e0       	ldi	r27, 0x03	; 3
     36c:	01 c0       	rjmp	.+2      	; 0x370 <.do_clear_bss_start>

0000036e <.do_clear_bss_loop>:
     36e:	1d 92       	st	X+, r1

00000370 <.do_clear_bss_start>:
     370:	a6 39       	cpi	r26, 0x96	; 150
     372:	b2 07       	cpc	r27, r18
     374:	e1 f7       	brne	.-8      	; 0x36e <.do_clear_bss_loop>
     376:	0e 94 d3 22 	call	0x45a6	; 0x45a6 <main>
     37a:	0c 94 f9 29 	jmp	0x53f2	; 0x53f2 <_exit>

0000037e <__bad_interrupt>:
     37e:	0c 94 00 00 	jmp	0	; 0x0 <__vectors>

00000382 <i2c_delay_T2>:
;*************************************************************************
	.stabs	"",100,0,0,i2c_delay_T2
	.stabs	"i2cmaster.S",100,0,0,i2c_delay_T2
	.func i2c_delay_T2	; delay 5.0 microsec with 4 Mhz crystal	
i2c_delay_T2:        ; 4 cycles
	rjmp 1f      ; 2   "
     382:	00 c0       	rjmp	.+0      	; 0x384 <i2c_delay_T2+0x2>
1:	rjmp 2f      ; 2   "
     384:	00 c0       	rjmp	.+0      	; 0x386 <i2c_delay_T2+0x4>
2:	rjmp 3f      ; 2   "
     386:	00 c0       	rjmp	.+0      	; 0x388 <i2c_delay_T2+0x6>
3:	rjmp 4f      ; 2   "
     388:	00 c0       	rjmp	.+0      	; 0x38a <i2c_delay_T2+0x8>
4:	rjmp 5f      ; 2   "
     38a:	00 c0       	rjmp	.+0      	; 0x38c <i2c_delay_T2+0xa>
5: 	rjmp 6f      ; 2   "
     38c:	00 c0       	rjmp	.+0      	; 0x38e <i2c_delay_T2+0xc>
6:	nop          ; 1   "
     38e:	00 00       	nop
	ret          ; 3   "
     390:	08 95       	ret

00000392 <i2c_init>:
; extern void i2c_init(void)
;*************************************************************************
	.global i2c_init
	.func i2c_init
i2c_init:
	cbi SDA_DDR,SDA		;release SDA
     392:	a1 98       	cbi	0x14, 1	; 20
	cbi SCL_DDR,SCL		;release SCL
     394:	a0 98       	cbi	0x14, 0	; 20
	cbi SDA_OUT,SDA
     396:	a9 98       	cbi	0x15, 1	; 21
	cbi SCL_OUT,SCL
     398:	a8 98       	cbi	0x15, 0	; 21
	ret
     39a:	08 95       	ret

0000039c <i2c_start>:
;*************************************************************************

	.global i2c_start
	.func   i2c_start
i2c_start:
	sbi 	SDA_DDR,SDA	;force SDA low
     39c:	a1 9a       	sbi	0x14, 1	; 20
	rcall 	i2c_delay_T2	;delay T/2
     39e:	f1 df       	rcall	.-30     	; 0x382 <i2c_delay_T2>
	
	rcall 	i2c_write	;write address
     3a0:	1d d0       	rcall	.+58     	; 0x3dc <i2c_write>
	ret
     3a2:	08 95       	ret

000003a4 <i2c_rep_start>:
;*************************************************************************

	.global i2c_rep_start
	.func	i2c_rep_start
i2c_rep_start:
	sbi	SCL_DDR,SCL	;force SCL low
     3a4:	a0 9a       	sbi	0x14, 0	; 20
	rcall 	i2c_delay_T2	;delay  T/2
     3a6:	ed df       	rcall	.-38     	; 0x382 <i2c_delay_T2>
	cbi	SDA_DDR,SDA	;release SDA
     3a8:	a1 98       	cbi	0x14, 1	; 20
	rcall	i2c_delay_T2	;delay T/2
     3aa:	eb df       	rcall	.-42     	; 0x382 <i2c_delay_T2>
	cbi	SCL_DDR,SCL	;release SCL
     3ac:	a0 98       	cbi	0x14, 0	; 20
	rcall 	i2c_delay_T2	;delay  T/2
     3ae:	e9 df       	rcall	.-46     	; 0x382 <i2c_delay_T2>
	sbi 	SDA_DDR,SDA	;force SDA low
     3b0:	a1 9a       	sbi	0x14, 1	; 20
	rcall 	i2c_delay_T2	;delay	T/2
     3b2:	e7 df       	rcall	.-50     	; 0x382 <i2c_delay_T2>
	
	rcall	i2c_write	;write address
     3b4:	13 d0       	rcall	.+38     	; 0x3dc <i2c_write>
	ret
     3b6:	08 95       	ret

000003b8 <i2c_start_wait>:
;*************************************************************************

	.global i2c_start_wait
	.func   i2c_start_wait
i2c_start_wait:
	mov	__tmp_reg__,r24
     3b8:	08 2e       	mov	r0, r24

000003ba <i2c_start_wait1>:
i2c_start_wait1:
	sbi 	SDA_DDR,SDA	;force SDA low
     3ba:	a1 9a       	sbi	0x14, 1	; 20
	rcall 	i2c_delay_T2	;delay T/2
     3bc:	e2 df       	rcall	.-60     	; 0x382 <i2c_delay_T2>
	mov	r24,__tmp_reg__
     3be:	80 2d       	mov	r24, r0
	rcall 	i2c_write	;write address
     3c0:	0d d0       	rcall	.+26     	; 0x3dc <i2c_write>
	tst	r24		;if device not busy -> done
     3c2:	88 23       	and	r24, r24
	breq	i2c_start_wait_done
     3c4:	11 f0       	breq	.+4      	; 0x3ca <i2c_start_wait_done>
	rcall	i2c_stop	;terminate write operation
     3c6:	02 d0       	rcall	.+4      	; 0x3cc <i2c_stop>
	rjmp	i2c_start_wait1	;device busy, poll ack again
     3c8:	f8 cf       	rjmp	.-16     	; 0x3ba <i2c_start_wait1>

000003ca <i2c_start_wait_done>:
i2c_start_wait_done:
	ret
     3ca:	08 95       	ret

000003cc <i2c_stop>:
;*************************************************************************

	.global	i2c_stop
	.func	i2c_stop
i2c_stop:
	sbi	SCL_DDR,SCL	;force SCL low
     3cc:	a0 9a       	sbi	0x14, 0	; 20
	sbi	SDA_DDR,SDA	;force SDA low
     3ce:	a1 9a       	sbi	0x14, 1	; 20
	rcall	i2c_delay_T2	;delay T/2
     3d0:	d8 df       	rcall	.-80     	; 0x382 <i2c_delay_T2>
	cbi	SCL_DDR,SCL	;release SCL
     3d2:	a0 98       	cbi	0x14, 0	; 20
	rcall	i2c_delay_T2	;delay T/2
     3d4:	d6 df       	rcall	.-84     	; 0x382 <i2c_delay_T2>
	cbi	SDA_DDR,SDA	;release SDA
     3d6:	a1 98       	cbi	0x14, 1	; 20
	rcall	i2c_delay_T2	;delay T/2
     3d8:	d4 df       	rcall	.-88     	; 0x382 <i2c_delay_T2>
	ret
     3da:	08 95       	ret

000003dc <i2c_write>:
;	data = r24,  return = r25(=0):r24
;*************************************************************************
	.global i2c_write
	.func	i2c_write
i2c_write:
	sec			;set carry flag
     3dc:	08 94       	sec
	rol 	r24		;shift in carry and out bit one
     3de:	88 1f       	adc	r24, r24
	rjmp	i2c_write_first
     3e0:	01 c0       	rjmp	.+2      	; 0x3e4 <i2c_write_first>

000003e2 <i2c_write_bit>:
i2c_write_bit:
	lsl	r24		;if transmit register empty
     3e2:	88 0f       	add	r24, r24

000003e4 <i2c_write_first>:
i2c_write_first:
	breq	i2c_get_ack
     3e4:	59 f0       	breq	.+22     	; 0x3fc <i2c_get_ack>
	sbi	SCL_DDR,SCL	;force SCL low
     3e6:	a0 9a       	sbi	0x14, 0	; 20
	brcc	i2c_write_low
     3e8:	18 f4       	brcc	.+6      	; 0x3f0 <i2c_write_low>
	nop
     3ea:	00 00       	nop
	cbi	SDA_DDR,SDA	;release SDA
     3ec:	a1 98       	cbi	0x14, 1	; 20
	rjmp	i2c_write_high
     3ee:	02 c0       	rjmp	.+4      	; 0x3f4 <i2c_write_high>

000003f0 <i2c_write_low>:
i2c_write_low:
	sbi	SDA_DDR,SDA	;force SDA low
     3f0:	a1 9a       	sbi	0x14, 1	; 20
	rjmp	i2c_write_high
     3f2:	00 c0       	rjmp	.+0      	; 0x3f4 <i2c_write_high>

000003f4 <i2c_write_high>:
i2c_write_high:
	rcall 	i2c_delay_T2	;delay T/2
     3f4:	c6 df       	rcall	.-116    	; 0x382 <i2c_delay_T2>
	cbi	SCL_DDR,SCL	;release SCL
     3f6:	a0 98       	cbi	0x14, 0	; 20
	rcall	i2c_delay_T2	;delay T/2
     3f8:	c4 df       	rcall	.-120    	; 0x382 <i2c_delay_T2>
	rjmp	i2c_write_bit
     3fa:	f3 cf       	rjmp	.-26     	; 0x3e2 <i2c_write_bit>

000003fc <i2c_get_ack>:
	
i2c_get_ack:
	sbi	SCL_DDR,SCL	;force SCL low
     3fc:	a0 9a       	sbi	0x14, 0	; 20
	cbi	SDA_DDR,SDA	;release SDA
     3fe:	a1 98       	cbi	0x14, 1	; 20
	rcall	i2c_delay_T2	;delay T/2
     400:	c0 df       	rcall	.-128    	; 0x382 <i2c_delay_T2>
	cbi	SCL_DDR,SCL	;release SCL
     402:	a0 98       	cbi	0x14, 0	; 20

00000404 <i2c_ack_wait>:
i2c_ack_wait:
	sbis	SCL_IN,SCL	;wait SCL high (in case wait states are inserted)
     404:	98 9b       	sbis	0x13, 0	; 19
	rjmp	i2c_ack_wait
     406:	fe cf       	rjmp	.-4      	; 0x404 <i2c_ack_wait>
	
	clr	r24		;return 0
     408:	88 27       	eor	r24, r24
	sbic	SDA_IN,SDA	;if SDA high -> return 1
     40a:	99 99       	sbic	0x13, 1	; 19
	ldi	r24,1
     40c:	81 e0       	ldi	r24, 0x01	; 1
	rcall	i2c_delay_T2	;delay T/2
     40e:	b9 df       	rcall	.-142    	; 0x382 <i2c_delay_T2>
	clr	r25
     410:	99 27       	eor	r25, r25
	ret
     412:	08 95       	ret

00000414 <i2c_readNak>:
	.global i2c_readAck
	.global i2c_readNak
	.global i2c_read		
	.func	i2c_read
i2c_readNak:
	clr	r24
     414:	88 27       	eor	r24, r24
	rjmp	i2c_read
     416:	01 c0       	rjmp	.+2      	; 0x41a <i2c_read>

00000418 <i2c_readAck>:
i2c_readAck:
	ldi	r24,0x01
     418:	81 e0       	ldi	r24, 0x01	; 1

0000041a <i2c_read>:
i2c_read:
	ldi	r23,0x01	;data = 0x01
     41a:	71 e0       	ldi	r23, 0x01	; 1

0000041c <i2c_read_bit>:
i2c_read_bit:
	sbi	SCL_DDR,SCL	;force SCL low
     41c:	a0 9a       	sbi	0x14, 0	; 20
	cbi	SDA_DDR,SDA	;release SDA (from previous ACK)
     41e:	a1 98       	cbi	0x14, 1	; 20
	rcall	i2c_delay_T2	;delay T/2
     420:	b0 df       	rcall	.-160    	; 0x382 <i2c_delay_T2>
	
	cbi	SCL_DDR,SCL	;release SCL
     422:	a0 98       	cbi	0x14, 0	; 20
	rcall	i2c_delay_T2	;delay T/2
     424:	ae df       	rcall	.-164    	; 0x382 <i2c_delay_T2>

00000426 <i2c_read_stretch>:
	
i2c_read_stretch:
    sbis SCL_IN, SCL        ;loop until SCL is high (allow slave to stretch SCL)
     426:	98 9b       	sbis	0x13, 0	; 19
    rjmp	i2c_read_stretch
     428:	fe cf       	rjmp	.-4      	; 0x426 <i2c_read_stretch>
    	
	clc			;clear carry flag
     42a:	88 94       	clc
	sbic	SDA_IN,SDA	;if SDA is high
     42c:	99 99       	sbic	0x13, 1	; 19
	sec			;  set carry flag
     42e:	08 94       	sec
	
	rol	r23		;store bit
     430:	77 1f       	adc	r23, r23
	brcc	i2c_read_bit	;while receive register not full
     432:	a0 f7       	brcc	.-24     	; 0x41c <i2c_read_bit>

00000434 <i2c_put_ack>:
	
i2c_put_ack:
	sbi	SCL_DDR,SCL	;force SCL low	
     434:	a0 9a       	sbi	0x14, 0	; 20
	cpi	r24,1
     436:	81 30       	cpi	r24, 0x01	; 1
	breq	i2c_put_ack_low	;if (ack=0)
     438:	11 f0       	breq	.+4      	; 0x43e <i2c_put_ack_low>
	cbi	SDA_DDR,SDA	;      release SDA
     43a:	a1 98       	cbi	0x14, 1	; 20
	rjmp	i2c_put_ack_high
     43c:	01 c0       	rjmp	.+2      	; 0x440 <i2c_put_ack_high>

0000043e <i2c_put_ack_low>:
i2c_put_ack_low:                ;else
	sbi	SDA_DDR,SDA	;      force SDA low
     43e:	a1 9a       	sbi	0x14, 1	; 20

00000440 <i2c_put_ack_high>:
i2c_put_ack_high:
	rcall	i2c_delay_T2	;delay T/2
     440:	a0 df       	rcall	.-192    	; 0x382 <i2c_delay_T2>
	cbi	SCL_DDR,SCL	;release SCL
     442:	a0 98       	cbi	0x14, 0	; 20

00000444 <i2c_put_ack_wait>:
i2c_put_ack_wait:
	sbis	SCL_IN,SCL	;wait SCL high
     444:	98 9b       	sbis	0x13, 0	; 19
	rjmp	i2c_put_ack_wait
     446:	fe cf       	rjmp	.-4      	; 0x444 <i2c_put_ack_wait>
	rcall	i2c_delay_T2	;delay T/2
     448:	9c df       	rcall	.-200    	; 0x382 <i2c_delay_T2>
	mov	r24,r23
     44a:	87 2f       	mov	r24, r23
	clr	r25
     44c:	99 27       	eor	r25, r25
	ret
     44e:	08 95       	ret

00000450 <bmp180ReadBytes>:
	}
	
	value = 0;
	
	return 0;
}
     450:	0f 93       	push	r16
     452:	1f 93       	push	r17
     454:	cf 93       	push	r28
     456:	df 93       	push	r29
     458:	8c 01       	movw	r16, r24
     45a:	fc 01       	movw	r30, r24
     45c:	c0 81       	ld	r28, Z
     45e:	61 30       	cpi	r22, 0x01	; 1
     460:	19 f0       	breq	.+6      	; 0x468 <bmp180ReadBytes+0x18>
     462:	61 11       	cpse	r22, r1
     464:	13 c0       	rjmp	.+38     	; 0x48c <bmp180ReadBytes+0x3c>
     466:	29 c0       	rjmp	.+82     	; 0x4ba <bmp180ReadBytes+0x6a>
     468:	8e ee       	ldi	r24, 0xEE	; 238
     46a:	0e 94 dc 01 	call	0x3b8	; 0x3b8 <i2c_start_wait>
     46e:	8c 2f       	mov	r24, r28
     470:	0e 94 ee 01 	call	0x3dc	; 0x3dc <i2c_write>
     474:	0e 94 e6 01 	call	0x3cc	; 0x3cc <i2c_stop>
     478:	8f ee       	ldi	r24, 0xEF	; 239
     47a:	0e 94 dc 01 	call	0x3b8	; 0x3b8 <i2c_start_wait>
     47e:	0e 94 0a 02 	call	0x414	; 0x414 <i2c_readNak>
     482:	f8 01       	movw	r30, r16
     484:	80 83       	st	Z, r24
     486:	0e 94 e6 01 	call	0x3cc	; 0x3cc <i2c_stop>
     48a:	17 c0       	rjmp	.+46     	; 0x4ba <bmp180ReadBytes+0x6a>
     48c:	dc 2f       	mov	r29, r28
     48e:	d6 0f       	add	r29, r22
     490:	8e ee       	ldi	r24, 0xEE	; 238
     492:	0e 94 dc 01 	call	0x3b8	; 0x3b8 <i2c_start_wait>
     496:	8c 2f       	mov	r24, r28
     498:	0e 94 ee 01 	call	0x3dc	; 0x3dc <i2c_write>
     49c:	0e 94 e6 01 	call	0x3cc	; 0x3cc <i2c_stop>
     4a0:	8f ee       	ldi	r24, 0xEF	; 239
     4a2:	0e 94 dc 01 	call	0x3b8	; 0x3b8 <i2c_start_wait>
     4a6:	0e 94 0a 02 	call	0x414	; 0x414 <i2c_readNak>
     4aa:	f8 01       	movw	r30, r16
     4ac:	81 93       	st	Z+, r24
     4ae:	8f 01       	movw	r16, r30
     4b0:	0e 94 e6 01 	call	0x3cc	; 0x3cc <i2c_stop>
     4b4:	cf 5f       	subi	r28, 0xFF	; 255
     4b6:	dc 13       	cpse	r29, r28
     4b8:	eb cf       	rjmp	.-42     	; 0x490 <bmp180ReadBytes+0x40>
     4ba:	81 e0       	ldi	r24, 0x01	; 1
     4bc:	df 91       	pop	r29
     4be:	cf 91       	pop	r28
     4c0:	1f 91       	pop	r17
     4c2:	0f 91       	pop	r16
     4c4:	08 95       	ret

000004c6 <bmp180ReadByte>:
     4c6:	0f 93       	push	r16
     4c8:	1f 93       	push	r17
     4ca:	cf 93       	push	r28
     4cc:	df 93       	push	r29
     4ce:	1f 92       	push	r1
     4d0:	cd b7       	in	r28, 0x3d	; 61
     4d2:	de b7       	in	r29, 0x3e	; 62
     4d4:	8b 01       	movw	r16, r22
     4d6:	89 83       	std	Y+1, r24	; 0x01
     4d8:	61 e0       	ldi	r22, 0x01	; 1
     4da:	ce 01       	movw	r24, r28
     4dc:	01 96       	adiw	r24, 0x01	; 1
     4de:	0e 94 28 02 	call	0x450	; 0x450 <bmp180ReadBytes>
     4e2:	88 23       	and	r24, r24
     4e4:	21 f0       	breq	.+8      	; 0x4ee <bmp180ReadByte+0x28>
     4e6:	89 81       	ldd	r24, Y+1	; 0x01
     4e8:	f8 01       	movw	r30, r16
     4ea:	80 83       	st	Z, r24
     4ec:	81 e0       	ldi	r24, 0x01	; 1
     4ee:	0f 90       	pop	r0
     4f0:	df 91       	pop	r29
     4f2:	cf 91       	pop	r28
     4f4:	1f 91       	pop	r17
     4f6:	0f 91       	pop	r16
     4f8:	08 95       	ret

000004fa <bmp180ReadInt>:

char bmp180ReadInt(char address, int *value)
{
     4fa:	0f 93       	push	r16
     4fc:	1f 93       	push	r17
     4fe:	cf 93       	push	r28
     500:	df 93       	push	r29
     502:	00 d0       	rcall	.+0      	; 0x504 <bmp180ReadInt+0xa>
     504:	cd b7       	in	r28, 0x3d	; 61
     506:	de b7       	in	r29, 0x3e	; 62
     508:	8b 01       	movw	r16, r22
	unsigned char data[2];

	data[0] = address;
     50a:	89 83       	std	Y+1, r24	; 0x01
	
	if (bmp180ReadBytes(data,2))
     50c:	62 e0       	ldi	r22, 0x02	; 2
     50e:	ce 01       	movw	r24, r28
     510:	01 96       	adiw	r24, 0x01	; 1
     512:	0e 94 28 02 	call	0x450	; 0x450 <bmp180ReadBytes>
     516:	88 23       	and	r24, r24
     518:	51 f0       	breq	.+20     	; 0x52e <bmp180ReadInt+0x34>
	{
		*value = (((int)data[0]<<8)|(int)data[1]);
     51a:	89 81       	ldd	r24, Y+1	; 0x01
     51c:	90 e0       	ldi	r25, 0x00	; 0
     51e:	98 2f       	mov	r25, r24
     520:	88 27       	eor	r24, r24
     522:	2a 81       	ldd	r18, Y+2	; 0x02
     524:	82 2b       	or	r24, r18
     526:	f8 01       	movw	r30, r16
     528:	91 83       	std	Z+1, r25	; 0x01
     52a:	80 83       	st	Z, r24
		return 1;
     52c:	81 e0       	ldi	r24, 0x01	; 1
	}
	
	value = 0;
	
	return 0;
}
     52e:	0f 90       	pop	r0
     530:	0f 90       	pop	r0
     532:	df 91       	pop	r29
     534:	cf 91       	pop	r28
     536:	1f 91       	pop	r17
     538:	0f 91       	pop	r16
     53a:	08 95       	ret

0000053c <bmp180ReadUint>:

char bmp180ReadUint(char address, unsigned int *value)
{
     53c:	0f 93       	push	r16
     53e:	1f 93       	push	r17
     540:	cf 93       	push	r28
     542:	df 93       	push	r29
     544:	00 d0       	rcall	.+0      	; 0x546 <bmp180ReadUint+0xa>
     546:	cd b7       	in	r28, 0x3d	; 61
     548:	de b7       	in	r29, 0x3e	; 62
     54a:	8b 01       	movw	r16, r22
	unsigned char data[2];

	data[0] = address;
     54c:	89 83       	std	Y+1, r24	; 0x01
	
	if (bmp180ReadBytes(data,2))
     54e:	62 e0       	ldi	r22, 0x02	; 2
     550:	ce 01       	movw	r24, r28
     552:	01 96       	adiw	r24, 0x01	; 1
     554:	0e 94 28 02 	call	0x450	; 0x450 <bmp180ReadBytes>
     558:	88 23       	and	r24, r24
     55a:	59 f0       	breq	.+22     	; 0x572 <bmp180ReadUint+0x36>
	{
		*value = (((unsigned int)data[0]<<8)|(unsigned int)data[1]);
     55c:	89 81       	ldd	r24, Y+1	; 0x01
     55e:	90 e0       	ldi	r25, 0x00	; 0
     560:	98 2f       	mov	r25, r24
     562:	88 27       	eor	r24, r24
     564:	2a 81       	ldd	r18, Y+2	; 0x02
     566:	82 2b       	or	r24, r18
     568:	f8 01       	movw	r30, r16
     56a:	91 83       	std	Z+1, r25	; 0x01
     56c:	80 83       	st	Z, r24
		return 0;
     56e:	80 e0       	ldi	r24, 0x00	; 0
     570:	01 c0       	rjmp	.+2      	; 0x574 <bmp180ReadUint+0x38>
	}
	
	value = 0;
	
	return 1;
     572:	81 e0       	ldi	r24, 0x01	; 1
}
     574:	0f 90       	pop	r0
     576:	0f 90       	pop	r0
     578:	df 91       	pop	r29
     57a:	cf 91       	pop	r28
     57c:	1f 91       	pop	r17
     57e:	0f 91       	pop	r16
     580:	08 95       	ret

00000582 <bmp180GetCal>:


bmp180_t cal;

char bmp180GetCal(bmp180_t *cal)
{
     582:	cf 93       	push	r28
     584:	df 93       	push	r29
     586:	ec 01       	movw	r28, r24
	char ret = 1;
	
	bmp180ReadInt(0xAA, &(cal->AC1));
     588:	bc 01       	movw	r22, r24
     58a:	8a ea       	ldi	r24, 0xAA	; 170
     58c:	0e 94 7d 02 	call	0x4fa	; 0x4fa <bmp180ReadInt>
	bmp180ReadInt(0xAC, &(cal->AC2));
     590:	be 01       	movw	r22, r28
     592:	6e 5f       	subi	r22, 0xFE	; 254
     594:	7f 4f       	sbci	r23, 0xFF	; 255
     596:	8c ea       	ldi	r24, 0xAC	; 172
     598:	0e 94 7d 02 	call	0x4fa	; 0x4fa <bmp180ReadInt>
	bmp180ReadInt(0xAE, &(cal->AC3));
     59c:	be 01       	movw	r22, r28
     59e:	6c 5f       	subi	r22, 0xFC	; 252
     5a0:	7f 4f       	sbci	r23, 0xFF	; 255
     5a2:	8e ea       	ldi	r24, 0xAE	; 174
     5a4:	0e 94 7d 02 	call	0x4fa	; 0x4fa <bmp180ReadInt>
	bmp180ReadUint(0xB0, &(cal->AC4));
     5a8:	be 01       	movw	r22, r28
     5aa:	6a 5f       	subi	r22, 0xFA	; 250
     5ac:	7f 4f       	sbci	r23, 0xFF	; 255
     5ae:	80 eb       	ldi	r24, 0xB0	; 176
     5b0:	0e 94 9e 02 	call	0x53c	; 0x53c <bmp180ReadUint>
	bmp180ReadUint(0xB2, &(cal->AC5));
     5b4:	be 01       	movw	r22, r28
     5b6:	68 5f       	subi	r22, 0xF8	; 248
     5b8:	7f 4f       	sbci	r23, 0xFF	; 255
     5ba:	82 eb       	ldi	r24, 0xB2	; 178
     5bc:	0e 94 9e 02 	call	0x53c	; 0x53c <bmp180ReadUint>
	bmp180ReadUint(0xB4, &(cal->AC6));
     5c0:	be 01       	movw	r22, r28
     5c2:	66 5f       	subi	r22, 0xF6	; 246
     5c4:	7f 4f       	sbci	r23, 0xFF	; 255
     5c6:	84 eb       	ldi	r24, 0xB4	; 180
     5c8:	0e 94 9e 02 	call	0x53c	; 0x53c <bmp180ReadUint>
	bmp180ReadInt(0xB6, &(cal->B1));
     5cc:	be 01       	movw	r22, r28
     5ce:	64 5f       	subi	r22, 0xF4	; 244
     5d0:	7f 4f       	sbci	r23, 0xFF	; 255
     5d2:	86 eb       	ldi	r24, 0xB6	; 182
     5d4:	0e 94 7d 02 	call	0x4fa	; 0x4fa <bmp180ReadInt>
	bmp180ReadInt(0xB8, &(cal->B2));
     5d8:	be 01       	movw	r22, r28
     5da:	62 5f       	subi	r22, 0xF2	; 242
     5dc:	7f 4f       	sbci	r23, 0xFF	; 255
     5de:	88 eb       	ldi	r24, 0xB8	; 184
     5e0:	0e 94 7d 02 	call	0x4fa	; 0x4fa <bmp180ReadInt>
	bmp180ReadInt(0xBA, &(cal->MB));
     5e4:	be 01       	movw	r22, r28
     5e6:	60 5f       	subi	r22, 0xF0	; 240
     5e8:	7f 4f       	sbci	r23, 0xFF	; 255
     5ea:	8a eb       	ldi	r24, 0xBA	; 186
     5ec:	0e 94 7d 02 	call	0x4fa	; 0x4fa <bmp180ReadInt>
	bmp180ReadInt(0xBC, &(cal->MC));
     5f0:	be 01       	movw	r22, r28
     5f2:	6e 5e       	subi	r22, 0xEE	; 238
     5f4:	7f 4f       	sbci	r23, 0xFF	; 255
     5f6:	8c eb       	ldi	r24, 0xBC	; 188
     5f8:	0e 94 7d 02 	call	0x4fa	; 0x4fa <bmp180ReadInt>
	bmp180ReadInt(0xBE, &(cal->MD));
     5fc:	be 01       	movw	r22, r28
     5fe:	6c 5e       	subi	r22, 0xEC	; 236
     600:	7f 4f       	sbci	r23, 0xFF	; 255
     602:	8e eb       	ldi	r24, 0xBE	; 190
     604:	0e 94 7d 02 	call	0x4fa	; 0x4fa <bmp180ReadInt>
	
	return ret;
}
     608:	81 e0       	ldi	r24, 0x01	; 1
     60a:	df 91       	pop	r29
     60c:	cf 91       	pop	r28
     60e:	08 95       	ret

00000610 <bmp180WriteBytes>:
	
	return 1;
}

char bmp180WriteBytes(unsigned char *values, char length)
{
     610:	ef 92       	push	r14
     612:	ff 92       	push	r15
     614:	0f 93       	push	r16
     616:	1f 93       	push	r17
     618:	cf 93       	push	r28
     61a:	df 93       	push	r29
	unsigned char ret, res = 0, zc = 0;
	unsigned char addr = values[0];
     61c:	fc 01       	movw	r30, r24
     61e:	c0 81       	ld	r28, Z

	while(zc < length)
     620:	66 23       	and	r22, r22
     622:	31 f1       	breq	.+76     	; 0x670 <bmp180WriteBytes+0x60>
     624:	8c 01       	movw	r16, r24
     626:	fc 2e       	mov	r15, r28
     628:	f6 0e       	add	r15, r22
	{
		ret = i2c_start(BMP180+I2C_WRITE);        // ret=0 -> Ok, ret=1 -> no ACK
     62a:	8e ee       	ldi	r24, 0xEE	; 238
     62c:	0e 94 ce 01 	call	0x39c	; 0x39c <i2c_start>
		if (!ret)
     630:	81 11       	cpse	r24, r1
     632:	20 c0       	rjmp	.+64     	; 0x674 <bmp180WriteBytes+0x64>
		{
			ret = i2c_write(addr + zc);                       // write Instruction Byte
     634:	8c 2f       	mov	r24, r28
     636:	0e 94 ee 01 	call	0x3dc	; 0x3dc <i2c_write>
     63a:	d8 2f       	mov	r29, r24
			res = res + ret;
			ret = i2c_write(values[zc + 1]);                       // Date Byte
     63c:	f8 01       	movw	r30, r16
     63e:	81 81       	ldd	r24, Z+1	; 0x01
     640:	0e 94 ee 01 	call	0x3dc	; 0x3dc <i2c_write>
     644:	e8 2e       	mov	r14, r24
	#else
		//round up by default
		__ticks_dc = (uint32_t)(ceil(fabs(__tmp)));
	#endif

	__builtin_avr_delay_cycles(__ticks_dc);
     646:	ff ef       	ldi	r31, 0xFF	; 255
     648:	22 e5       	ldi	r18, 0x52	; 82
     64a:	87 e0       	ldi	r24, 0x07	; 7
     64c:	f1 50       	subi	r31, 0x01	; 1
     64e:	20 40       	sbci	r18, 0x00	; 0
     650:	80 40       	sbci	r24, 0x00	; 0
     652:	e1 f7       	brne	.-8      	; 0x64c <bmp180WriteBytes+0x3c>
     654:	00 c0       	rjmp	.+0      	; 0x656 <bmp180WriteBytes+0x46>
     656:	00 00       	nop
			_delay_ms(150);
			res = res + ret;
     658:	de 0d       	add	r29, r14
			i2c_stop();                                // set stop conditon = release bus
     65a:	0e 94 e6 01 	call	0x3cc	; 0x3cc <i2c_stop>
		}
		res = res + ret;
		if(res) return 0;
     65e:	de 0d       	add	r29, r14
     660:	59 f4       	brne	.+22     	; 0x678 <bmp180WriteBytes+0x68>
     662:	cf 5f       	subi	r28, 0xFF	; 255
     664:	0f 5f       	subi	r16, 0xFF	; 255
     666:	1f 4f       	sbci	r17, 0xFF	; 255
char bmp180WriteBytes(unsigned char *values, char length)
{
	unsigned char ret, res = 0, zc = 0;
	unsigned char addr = values[0];

	while(zc < length)
     668:	fc 12       	cpse	r15, r28
     66a:	df cf       	rjmp	.-66     	; 0x62a <bmp180WriteBytes+0x1a>
		}
		res = res + ret;
		if(res) return 0;
		zc++;
	}
	return 1;
     66c:	81 e0       	ldi	r24, 0x01	; 1
     66e:	05 c0       	rjmp	.+10     	; 0x67a <bmp180WriteBytes+0x6a>
     670:	81 e0       	ldi	r24, 0x01	; 1
     672:	03 c0       	rjmp	.+6      	; 0x67a <bmp180WriteBytes+0x6a>
			_delay_ms(150);
			res = res + ret;
			i2c_stop();                                // set stop conditon = release bus
		}
		res = res + ret;
		if(res) return 0;
     674:	80 e0       	ldi	r24, 0x00	; 0
     676:	01 c0       	rjmp	.+2      	; 0x67a <bmp180WriteBytes+0x6a>
     678:	80 e0       	ldi	r24, 0x00	; 0
		zc++;
	}
	return 1;
}
     67a:	df 91       	pop	r29
     67c:	cf 91       	pop	r28
     67e:	1f 91       	pop	r17
     680:	0f 91       	pop	r16
     682:	ff 90       	pop	r15
     684:	ef 90       	pop	r14
     686:	08 95       	ret

00000688 <bmp180WriteByte>:
	
	return 1;
}

char bmp180WriteByte(char address, char value)
{
     688:	cf 93       	push	r28
     68a:	df 93       	push	r29
     68c:	00 d0       	rcall	.+0      	; 0x68e <bmp180WriteByte+0x6>
     68e:	cd b7       	in	r28, 0x3d	; 61
     690:	de b7       	in	r29, 0x3e	; 62
	unsigned char data[2];

	data[0] = address;
     692:	89 83       	std	Y+1, r24	; 0x01
	data[1] = value;
     694:	6a 83       	std	Y+2, r22	; 0x02
	if (bmp180WriteBytes(data,1))
     696:	61 e0       	ldi	r22, 0x01	; 1
     698:	ce 01       	movw	r24, r28
     69a:	01 96       	adiw	r24, 0x01	; 1
     69c:	0e 94 08 03 	call	0x610	; 0x610 <bmp180WriteBytes>
     6a0:	91 e0       	ldi	r25, 0x01	; 1
     6a2:	81 11       	cpse	r24, r1
     6a4:	01 c0       	rjmp	.+2      	; 0x6a8 <bmp180WriteByte+0x20>
     6a6:	90 e0       	ldi	r25, 0x00	; 0
	{
		return 1;
	}
	value = 0;
	return 0;
}
     6a8:	89 2f       	mov	r24, r25
     6aa:	0f 90       	pop	r0
     6ac:	0f 90       	pop	r0
     6ae:	df 91       	pop	r29
     6b0:	cf 91       	pop	r28
     6b2:	08 95       	ret

000006b4 <bmp180StartMeasure>:
	
    return ret;
}

char bmp180StartMeasure(char address, char command, char statusbit)
{
     6b4:	ef 92       	push	r14
     6b6:	ff 92       	push	r15
     6b8:	0f 93       	push	r16
     6ba:	1f 93       	push	r17
     6bc:	cf 93       	push	r28
     6be:	df 93       	push	r29
     6c0:	1f 92       	push	r1
     6c2:	cd b7       	in	r28, 0x3d	; 61
     6c4:	de b7       	in	r29, 0x3e	; 62
     6c6:	f8 2e       	mov	r15, r24
     6c8:	e4 2e       	mov	r14, r20
	char status = command;
     6ca:	69 83       	std	Y+1, r22	; 0x01
	unsigned int timeout = 65535;
	if (bmp180WriteByte(address, command))
     6cc:	0e 94 44 03 	call	0x688	; 0x688 <bmp180WriteByte>
     6d0:	81 11       	cpse	r24, r1
     6d2:	0c c0       	rjmp	.+24     	; 0x6ec <bmp180StartMeasure+0x38>
     6d4:	17 c0       	rjmp	.+46     	; 0x704 <bmp180StartMeasure+0x50>
	{
		while((status & statusbit) && (timeout-- > 0))
		{
			if (!bmp180ReadByte(address, &status)) return 0;
     6d6:	be 01       	movw	r22, r28
     6d8:	6f 5f       	subi	r22, 0xFF	; 255
     6da:	7f 4f       	sbci	r23, 0xFF	; 255
     6dc:	8f 2d       	mov	r24, r15
     6de:	0e 94 63 02 	call	0x4c6	; 0x4c6 <bmp180ReadByte>
     6e2:	0f 5f       	subi	r16, 0xFF	; 255
     6e4:	1f 4f       	sbci	r17, 0xFF	; 255
     6e6:	81 11       	cpse	r24, r1
     6e8:	03 c0       	rjmp	.+6      	; 0x6f0 <bmp180StartMeasure+0x3c>
     6ea:	0c c0       	rjmp	.+24     	; 0x704 <bmp180StartMeasure+0x50>
     6ec:	00 e0       	ldi	r16, 0x00	; 0
     6ee:	10 e0       	ldi	r17, 0x00	; 0
{
	char status = command;
	unsigned int timeout = 65535;
	if (bmp180WriteByte(address, command))
	{
		while((status & statusbit) && (timeout-- > 0))
     6f0:	89 81       	ldd	r24, Y+1	; 0x01
     6f2:	8e 21       	and	r24, r14
     6f4:	31 f0       	breq	.+12     	; 0x702 <bmp180StartMeasure+0x4e>
     6f6:	0f 3f       	cpi	r16, 0xFF	; 255
     6f8:	8f ef       	ldi	r24, 0xFF	; 255
     6fa:	18 07       	cpc	r17, r24
     6fc:	61 f7       	brne	.-40     	; 0x6d6 <bmp180StartMeasure+0x22>
		{
			if (!bmp180ReadByte(address, &status)) return 0;
		}
		return 1;
     6fe:	81 e0       	ldi	r24, 0x01	; 1
     700:	01 c0       	rjmp	.+2      	; 0x704 <bmp180StartMeasure+0x50>
     702:	81 e0       	ldi	r24, 0x01	; 1
	}
	return 0;
}
     704:	0f 90       	pop	r0
     706:	df 91       	pop	r29
     708:	cf 91       	pop	r28
     70a:	1f 91       	pop	r17
     70c:	0f 91       	pop	r16
     70e:	ff 90       	pop	r15
     710:	ef 90       	pop	r14
     712:	08 95       	ret

00000714 <bmp180StartTemperature>:

char bmp180StartTemperature(int *value)
{
     714:	0f 93       	push	r16
     716:	1f 93       	push	r17
     718:	cf 93       	push	r28
     71a:	df 93       	push	r29
     71c:	00 d0       	rcall	.+0      	; 0x71e <bmp180StartTemperature+0xa>
     71e:	cd b7       	in	r28, 0x3d	; 61
     720:	de b7       	in	r29, 0x3e	; 62
     722:	8c 01       	movw	r16, r24
	int hi;
	if (bmp180StartMeasure(0xF4, 0x2E, 0x00 | (1<<BMP180_SCO)))
     724:	40 e2       	ldi	r20, 0x20	; 32
     726:	6e e2       	ldi	r22, 0x2E	; 46
     728:	84 ef       	ldi	r24, 0xF4	; 244
     72a:	0e 94 5a 03 	call	0x6b4	; 0x6b4 <bmp180StartMeasure>
     72e:	88 23       	and	r24, r24
     730:	61 f0       	breq	.+24     	; 0x74a <bmp180StartTemperature+0x36>
	{
		bmp180ReadInt(0xF6, &hi);
     732:	be 01       	movw	r22, r28
     734:	6f 5f       	subi	r22, 0xFF	; 255
     736:	7f 4f       	sbci	r23, 0xFF	; 255
     738:	86 ef       	ldi	r24, 0xF6	; 246
     73a:	0e 94 7d 02 	call	0x4fa	; 0x4fa <bmp180ReadInt>
		*value = (int)hi;
     73e:	89 81       	ldd	r24, Y+1	; 0x01
     740:	9a 81       	ldd	r25, Y+2	; 0x02
     742:	f8 01       	movw	r30, r16
     744:	91 83       	std	Z+1, r25	; 0x01
     746:	80 83       	st	Z, r24
		return 1;
     748:	81 e0       	ldi	r24, 0x01	; 1
	}
	return 0;
}
     74a:	0f 90       	pop	r0
     74c:	0f 90       	pop	r0
     74e:	df 91       	pop	r29
     750:	cf 91       	pop	r28
     752:	1f 91       	pop	r17
     754:	0f 91       	pop	r16
     756:	08 95       	ret

00000758 <bmpGetTemperaure>:
{
	return bmp180ReadByte(0xD0, id);
}

char bmpGetTemperaure(bmp180_t cal, long *temperatur)
{
     758:	4f 92       	push	r4
     75a:	5f 92       	push	r5
     75c:	6f 92       	push	r6
     75e:	7f 92       	push	r7
     760:	8f 92       	push	r8
     762:	9f 92       	push	r9
     764:	af 92       	push	r10
     766:	bf 92       	push	r11
     768:	cf 92       	push	r12
     76a:	df 92       	push	r13
     76c:	ef 92       	push	r14
     76e:	ff 92       	push	r15
     770:	1f 93       	push	r17
     772:	cf 93       	push	r28
     774:	df 93       	push	r29
     776:	00 d0       	rcall	.+0      	; 0x778 <bmpGetTemperaure+0x20>
     778:	00 d0       	rcall	.+0      	; 0x77a <bmpGetTemperaure+0x22>
     77a:	00 d0       	rcall	.+0      	; 0x77c <bmpGetTemperaure+0x24>
     77c:	cd b7       	in	r28, 0x3d	; 61
     77e:	de b7       	in	r29, 0x3e	; 62
	char ret = 1;
	int t;
	long UT, X1, X2, B5, T;
	long AC5, AC6, MC, MD;
	AC5 = cal.AC5;
     780:	88 a0       	ldd	r8, Y+32	; 0x20
     782:	99 a0       	ldd	r9, Y+33	; 0x21
     784:	a1 2c       	mov	r10, r1
     786:	b1 2c       	mov	r11, r1
	AC6 = cal.AC6;
     788:	4a a0       	ldd	r4, Y+34	; 0x22
     78a:	5b a0       	ldd	r5, Y+35	; 0x23
     78c:	61 2c       	mov	r6, r1
     78e:	71 2c       	mov	r7, r1
	MC = cal.MC;
     790:	ca a4       	ldd	r12, Y+42	; 0x2a
     792:	db a4       	ldd	r13, Y+43	; 0x2b
     794:	0d 2c       	mov	r0, r13
     796:	00 0c       	add	r0, r0
     798:	ee 08       	sbc	r14, r14
     79a:	ff 08       	sbc	r15, r15
	MD = cal.MD;
     79c:	2c a5       	ldd	r18, Y+44	; 0x2c
     79e:	3d a5       	ldd	r19, Y+45	; 0x2d
     7a0:	c9 01       	movw	r24, r18
     7a2:	33 0f       	add	r19, r19
     7a4:	aa 0b       	sbc	r26, r26
     7a6:	bb 0b       	sbc	r27, r27
     7a8:	8b 83       	std	Y+3, r24	; 0x03
     7aa:	9c 83       	std	Y+4, r25	; 0x04
     7ac:	ad 83       	std	Y+5, r26	; 0x05
     7ae:	be 83       	std	Y+6, r27	; 0x06
	ret &= bmp180StartTemperature(&t);
     7b0:	ce 01       	movw	r24, r28
     7b2:	01 96       	adiw	r24, 0x01	; 1
     7b4:	0e 94 8a 03 	call	0x714	; 0x714 <bmp180StartTemperature>
     7b8:	18 2f       	mov	r17, r24
	UT = (unsigned int)t;
	X1 = (((UT - AC6) * AC5)>>15);
     7ba:	29 81       	ldd	r18, Y+1	; 0x01
     7bc:	3a 81       	ldd	r19, Y+2	; 0x02
     7be:	c9 01       	movw	r24, r18
     7c0:	a0 e0       	ldi	r26, 0x00	; 0
     7c2:	b0 e0       	ldi	r27, 0x00	; 0
     7c4:	9c 01       	movw	r18, r24
     7c6:	ad 01       	movw	r20, r26
     7c8:	24 19       	sub	r18, r4
     7ca:	35 09       	sbc	r19, r5
     7cc:	46 09       	sbc	r20, r6
     7ce:	57 09       	sbc	r21, r7
     7d0:	c5 01       	movw	r24, r10
     7d2:	b4 01       	movw	r22, r8
     7d4:	0e 94 d7 25 	call	0x4bae	; 0x4bae <__mulsi3>
     7d8:	4b 01       	movw	r8, r22
     7da:	5c 01       	movw	r10, r24
     7dc:	07 2e       	mov	r0, r23
     7de:	7f e0       	ldi	r23, 0x0F	; 15
     7e0:	b5 94       	asr	r11
     7e2:	a7 94       	ror	r10
     7e4:	97 94       	ror	r9
     7e6:	87 94       	ror	r8
     7e8:	7a 95       	dec	r23
     7ea:	d1 f7       	brne	.-12     	; 0x7e0 <bmpGetTemperaure+0x88>
     7ec:	70 2d       	mov	r23, r0
	X2 = (MC<<11) / (X1 + MD);
	B5 = X1 + X2;
	T =((B5 + 8L)>>4);
	*temperatur = T;
     7ee:	c7 01       	movw	r24, r14
     7f0:	b6 01       	movw	r22, r12
     7f2:	05 2e       	mov	r0, r21
     7f4:	5b e0       	ldi	r21, 0x0B	; 11
     7f6:	66 0f       	add	r22, r22
     7f8:	77 1f       	adc	r23, r23
     7fa:	88 1f       	adc	r24, r24
     7fc:	99 1f       	adc	r25, r25
     7fe:	5a 95       	dec	r21
     800:	d1 f7       	brne	.-12     	; 0x7f6 <bmpGetTemperaure+0x9e>
     802:	50 2d       	mov	r21, r0
     804:	2b 81       	ldd	r18, Y+3	; 0x03
     806:	3c 81       	ldd	r19, Y+4	; 0x04
     808:	4d 81       	ldd	r20, Y+5	; 0x05
     80a:	5e 81       	ldd	r21, Y+6	; 0x06
     80c:	28 0d       	add	r18, r8
     80e:	39 1d       	adc	r19, r9
     810:	4a 1d       	adc	r20, r10
     812:	5b 1d       	adc	r21, r11
     814:	0e 94 1d 26 	call	0x4c3a	; 0x4c3a <__divmodsi4>
     818:	82 0e       	add	r8, r18
     81a:	93 1e       	adc	r9, r19
     81c:	a4 1e       	adc	r10, r20
     81e:	b5 1e       	adc	r11, r21
     820:	98 e0       	ldi	r25, 0x08	; 8
     822:	89 0e       	add	r8, r25
     824:	91 1c       	adc	r9, r1
     826:	a1 1c       	adc	r10, r1
     828:	b1 1c       	adc	r11, r1
     82a:	68 94       	set
     82c:	13 f8       	bld	r1, 3
     82e:	b5 94       	asr	r11
     830:	a7 94       	ror	r10
     832:	97 94       	ror	r9
     834:	87 94       	ror	r8
     836:	16 94       	lsr	r1
     838:	d1 f7       	brne	.-12     	; 0x82e <bmpGetTemperaure+0xd6>
     83a:	ee a9       	ldd	r30, Y+54	; 0x36
     83c:	ff a9       	ldd	r31, Y+55	; 0x37
     83e:	80 82       	st	Z, r8
     840:	91 82       	std	Z+1, r9	; 0x01
     842:	a2 82       	std	Z+2, r10	; 0x02
     844:	b3 82       	std	Z+3, r11	; 0x03
	return ret;
}
     846:	81 2f       	mov	r24, r17
     848:	81 70       	andi	r24, 0x01	; 1
     84a:	26 96       	adiw	r28, 0x06	; 6
     84c:	0f b6       	in	r0, 0x3f	; 63
     84e:	f8 94       	cli
     850:	de bf       	out	0x3e, r29	; 62
     852:	0f be       	out	0x3f, r0	; 63
     854:	cd bf       	out	0x3d, r28	; 61
     856:	df 91       	pop	r29
     858:	cf 91       	pop	r28
     85a:	1f 91       	pop	r17
     85c:	ff 90       	pop	r15
     85e:	ef 90       	pop	r14
     860:	df 90       	pop	r13
     862:	cf 90       	pop	r12
     864:	bf 90       	pop	r11
     866:	af 90       	pop	r10
     868:	9f 90       	pop	r9
     86a:	8f 90       	pop	r8
     86c:	7f 90       	pop	r7
     86e:	6f 90       	pop	r6
     870:	5f 90       	pop	r5
     872:	4f 90       	pop	r4
     874:	08 95       	ret

00000876 <bmp180StartPressure>:
	}
	return 0;
}

char bmp180StartPressure(long *value, unsigned char oss)
{
     876:	ff 92       	push	r15
     878:	0f 93       	push	r16
     87a:	1f 93       	push	r17
     87c:	cf 93       	push	r28
     87e:	df 93       	push	r29
     880:	00 d0       	rcall	.+0      	; 0x882 <bmp180StartPressure+0xc>
     882:	1f 92       	push	r1
     884:	cd b7       	in	r28, 0x3d	; 61
     886:	de b7       	in	r29, 0x3e	; 62
     888:	8c 01       	movw	r16, r24
     88a:	f6 2e       	mov	r15, r22
	char hi, lo;
	char xlsb;
	if (bmp180StartMeasure(0xF4, 0x34 + (oss<<6), 0x00 | (1<<BMP180_SCO)))
     88c:	62 95       	swap	r22
     88e:	66 0f       	add	r22, r22
     890:	66 0f       	add	r22, r22
     892:	60 7c       	andi	r22, 0xC0	; 192
     894:	6c 5c       	subi	r22, 0xCC	; 204
     896:	40 e2       	ldi	r20, 0x20	; 32
     898:	84 ef       	ldi	r24, 0xF4	; 244
     89a:	0e 94 5a 03 	call	0x6b4	; 0x6b4 <bmp180StartMeasure>
     89e:	88 23       	and	r24, r24
     8a0:	79 f1       	breq	.+94     	; 0x900 <bmp180StartPressure+0x8a>
	{
		bmp180ReadByte(0xF6, &hi);
     8a2:	be 01       	movw	r22, r28
     8a4:	6f 5f       	subi	r22, 0xFF	; 255
     8a6:	7f 4f       	sbci	r23, 0xFF	; 255
     8a8:	86 ef       	ldi	r24, 0xF6	; 246
     8aa:	0e 94 63 02 	call	0x4c6	; 0x4c6 <bmp180ReadByte>
		bmp180ReadByte(0xF7, &lo);
     8ae:	be 01       	movw	r22, r28
     8b0:	6e 5f       	subi	r22, 0xFE	; 254
     8b2:	7f 4f       	sbci	r23, 0xFF	; 255
     8b4:	87 ef       	ldi	r24, 0xF7	; 247
     8b6:	0e 94 63 02 	call	0x4c6	; 0x4c6 <bmp180ReadByte>
		bmp180ReadByte(0xF8, &xlsb);
     8ba:	be 01       	movw	r22, r28
     8bc:	6d 5f       	subi	r22, 0xFD	; 253
     8be:	7f 4f       	sbci	r23, 0xFF	; 255
     8c0:	88 ef       	ldi	r24, 0xF8	; 248
     8c2:	0e 94 63 02 	call	0x4c6	; 0x4c6 <bmp180ReadByte>
		*value = (long)((((long)hi)<<16) | (((long)lo)<<8) | ((long)xlsb)) >> (8-oss);
     8c6:	29 81       	ldd	r18, Y+1	; 0x01
     8c8:	8a 81       	ldd	r24, Y+2	; 0x02
     8ca:	90 e0       	ldi	r25, 0x00	; 0
     8cc:	a0 e0       	ldi	r26, 0x00	; 0
     8ce:	b0 e0       	ldi	r27, 0x00	; 0
     8d0:	ba 2f       	mov	r27, r26
     8d2:	a9 2f       	mov	r26, r25
     8d4:	98 2f       	mov	r25, r24
     8d6:	88 27       	eor	r24, r24
     8d8:	a2 2b       	or	r26, r18
     8da:	2b 81       	ldd	r18, Y+3	; 0x03
     8dc:	82 2b       	or	r24, r18
     8de:	28 e0       	ldi	r18, 0x08	; 8
     8e0:	30 e0       	ldi	r19, 0x00	; 0
     8e2:	2f 19       	sub	r18, r15
     8e4:	31 09       	sbc	r19, r1
     8e6:	04 c0       	rjmp	.+8      	; 0x8f0 <bmp180StartPressure+0x7a>
     8e8:	b5 95       	asr	r27
     8ea:	a7 95       	ror	r26
     8ec:	97 95       	ror	r25
     8ee:	87 95       	ror	r24
     8f0:	2a 95       	dec	r18
     8f2:	d2 f7       	brpl	.-12     	; 0x8e8 <bmp180StartPressure+0x72>
     8f4:	f8 01       	movw	r30, r16
     8f6:	80 83       	st	Z, r24
     8f8:	91 83       	std	Z+1, r25	; 0x01
     8fa:	a2 83       	std	Z+2, r26	; 0x02
     8fc:	b3 83       	std	Z+3, r27	; 0x03
		return 1;
     8fe:	81 e0       	ldi	r24, 0x01	; 1
	}
	return 0;
}
     900:	0f 90       	pop	r0
     902:	0f 90       	pop	r0
     904:	0f 90       	pop	r0
     906:	df 91       	pop	r29
     908:	cf 91       	pop	r28
     90a:	1f 91       	pop	r17
     90c:	0f 91       	pop	r16
     90e:	ff 90       	pop	r15
     910:	08 95       	ret

00000912 <bmp180GetPressure>:
	*temperatur = T;
	return ret;
}

char bmp180GetPressure(bmp180_t *cal, unsigned char oss )
{
     912:	2f 92       	push	r2
     914:	3f 92       	push	r3
     916:	4f 92       	push	r4
     918:	5f 92       	push	r5
     91a:	6f 92       	push	r6
     91c:	7f 92       	push	r7
     91e:	8f 92       	push	r8
     920:	9f 92       	push	r9
     922:	af 92       	push	r10
     924:	bf 92       	push	r11
     926:	cf 92       	push	r12
     928:	df 92       	push	r13
     92a:	ef 92       	push	r14
     92c:	ff 92       	push	r15
     92e:	0f 93       	push	r16
     930:	1f 93       	push	r17
     932:	cf 93       	push	r28
     934:	df 93       	push	r29
     936:	cd b7       	in	r28, 0x3d	; 61
     938:	de b7       	in	r29, 0x3e	; 62
     93a:	a8 97       	sbiw	r28, 0x28	; 40
     93c:	0f b6       	in	r0, 0x3f	; 63
     93e:	f8 94       	cli
     940:	de bf       	out	0x3e, r29	; 62
     942:	0f be       	out	0x3f, r0	; 63
     944:	cd bf       	out	0x3d, r28	; 61
     946:	1c 01       	movw	r2, r24
     948:	06 2f       	mov	r16, r22
	char ret = 1;
	int t;
	long UT, X1, X2, X3, B3, B5, B6, T, AC1, AC2, AC3, AC4, AC5, AC6, MC, MD, B1, B2 , p;
	unsigned long B4, B7, UP;
	
	AC1		= cal->AC1;
     94a:	dc 01       	movw	r26, r24
     94c:	4d 90       	ld	r4, X+
     94e:	5c 90       	ld	r5, X
     950:	11 97       	sbiw	r26, 0x01	; 1
     952:	92 01       	movw	r18, r4
     954:	55 0c       	add	r5, r5
     956:	44 0b       	sbc	r20, r20
     958:	55 0b       	sbc	r21, r21
     95a:	2f 83       	std	Y+7, r18	; 0x07
     95c:	38 87       	std	Y+8, r19	; 0x08
     95e:	49 87       	std	Y+9, r20	; 0x09
     960:	5a 87       	std	Y+10, r21	; 0x0a
	AC2		= cal->AC2;
     962:	12 96       	adiw	r26, 0x02	; 2
     964:	8d 91       	ld	r24, X+
     966:	9c 91       	ld	r25, X
     968:	13 97       	sbiw	r26, 0x03	; 3
     96a:	9c 01       	movw	r18, r24
     96c:	99 0f       	add	r25, r25
     96e:	44 0b       	sbc	r20, r20
     970:	55 0b       	sbc	r21, r21
     972:	2b 87       	std	Y+11, r18	; 0x0b
     974:	3c 87       	std	Y+12, r19	; 0x0c
     976:	4d 87       	std	Y+13, r20	; 0x0d
     978:	5e 87       	std	Y+14, r21	; 0x0e
	AC3		= cal->AC3;
     97a:	14 96       	adiw	r26, 0x04	; 4
     97c:	8d 90       	ld	r8, X+
     97e:	9c 90       	ld	r9, X
     980:	15 97       	sbiw	r26, 0x05	; 5
     982:	c4 01       	movw	r24, r8
     984:	99 0c       	add	r9, r9
     986:	aa 0b       	sbc	r26, r26
     988:	bb 0b       	sbc	r27, r27
     98a:	8f 87       	std	Y+15, r24	; 0x0f
     98c:	98 8b       	std	Y+16, r25	; 0x10
     98e:	a9 8b       	std	Y+17, r26	; 0x11
     990:	ba 8b       	std	Y+18, r27	; 0x12
	AC4		= cal->AC4;
     992:	d1 01       	movw	r26, r2
     994:	16 96       	adiw	r26, 0x06	; 6
     996:	0d 90       	ld	r0, X+
     998:	bc 91       	ld	r27, X
     99a:	a0 2d       	mov	r26, r0
     99c:	bc 8b       	std	Y+20, r27	; 0x14
     99e:	ab 8b       	std	Y+19, r26	; 0x13
	AC5		= cal->AC5;
     9a0:	f1 01       	movw	r30, r2
     9a2:	40 84       	ldd	r4, Z+8	; 0x08
     9a4:	51 84       	ldd	r5, Z+9	; 0x09
     9a6:	92 01       	movw	r18, r4
     9a8:	40 e0       	ldi	r20, 0x00	; 0
     9aa:	50 e0       	ldi	r21, 0x00	; 0
     9ac:	2d 8b       	std	Y+21, r18	; 0x15
     9ae:	3e 8b       	std	Y+22, r19	; 0x16
     9b0:	4f 8b       	std	Y+23, r20	; 0x17
     9b2:	58 8f       	std	Y+24, r21	; 0x18
	AC6		= cal->AC6;
     9b4:	82 85       	ldd	r24, Z+10	; 0x0a
     9b6:	93 85       	ldd	r25, Z+11	; 0x0b
     9b8:	9c 01       	movw	r18, r24
     9ba:	40 e0       	ldi	r20, 0x00	; 0
     9bc:	50 e0       	ldi	r21, 0x00	; 0
     9be:	29 8f       	std	Y+25, r18	; 0x19
     9c0:	3a 8f       	std	Y+26, r19	; 0x1a
     9c2:	4b 8f       	std	Y+27, r20	; 0x1b
     9c4:	5c 8f       	std	Y+28, r21	; 0x1c
	MC		= cal->MC;
     9c6:	62 89       	ldd	r22, Z+18	; 0x12
     9c8:	73 89       	ldd	r23, Z+19	; 0x13
     9ca:	2b 01       	movw	r4, r22
     9cc:	77 0f       	add	r23, r23
     9ce:	66 08       	sbc	r6, r6
     9d0:	77 08       	sbc	r7, r7
	MD		= cal->MD;
     9d2:	24 89       	ldd	r18, Z+20	; 0x14
     9d4:	35 89       	ldd	r19, Z+21	; 0x15
     9d6:	49 01       	movw	r8, r18
     9d8:	33 0f       	add	r19, r19
     9da:	aa 08       	sbc	r10, r10
     9dc:	bb 08       	sbc	r11, r11
	B1		= cal->B1;
     9de:	84 85       	ldd	r24, Z+12	; 0x0c
     9e0:	95 85       	ldd	r25, Z+13	; 0x0d
     9e2:	9c 01       	movw	r18, r24
     9e4:	99 0f       	add	r25, r25
     9e6:	44 0b       	sbc	r20, r20
     9e8:	55 0b       	sbc	r21, r21
     9ea:	2d 8f       	std	Y+29, r18	; 0x1d
     9ec:	3e 8f       	std	Y+30, r19	; 0x1e
     9ee:	4f 8f       	std	Y+31, r20	; 0x1f
     9f0:	58 a3       	std	Y+32, r21	; 0x20
	B2		= cal->B2;
     9f2:	86 85       	ldd	r24, Z+14	; 0x0e
     9f4:	97 85       	ldd	r25, Z+15	; 0x0f
     9f6:	9c 01       	movw	r18, r24
     9f8:	99 0f       	add	r25, r25
     9fa:	44 0b       	sbc	r20, r20
     9fc:	55 0b       	sbc	r21, r21
     9fe:	29 a3       	std	Y+33, r18	; 0x21
     a00:	3a a3       	std	Y+34, r19	; 0x22
     a02:	4b a3       	std	Y+35, r20	; 0x23
     a04:	5c a3       	std	Y+36, r21	; 0x24
		
	ret &= bmp180StartTemperature(&t);
     a06:	ce 01       	movw	r24, r28
     a08:	01 96       	adiw	r24, 0x01	; 1
     a0a:	0e 94 8a 03 	call	0x714	; 0x714 <bmp180StartTemperature>
     a0e:	18 2f       	mov	r17, r24
	UT = (long)t;
     a10:	c9 80       	ldd	r12, Y+1	; 0x01
     a12:	da 80       	ldd	r13, Y+2	; 0x02
     a14:	0d 2c       	mov	r0, r13
     a16:	00 0c       	add	r0, r0
     a18:	ee 08       	sbc	r14, r14
     a1a:	ff 08       	sbc	r15, r15
	ret &= bmp180StartPressure(&p, oss);
     a1c:	60 2f       	mov	r22, r16
     a1e:	ce 01       	movw	r24, r28
     a20:	03 96       	adiw	r24, 0x03	; 3
     a22:	0e 94 3b 04 	call	0x876	; 0x876 <bmp180StartPressure>
     a26:	81 23       	and	r24, r17
     a28:	18 2f       	mov	r17, r24
     a2a:	11 70       	andi	r17, 0x01	; 1
	UP = (long)p;
     a2c:	8b 81       	ldd	r24, Y+3	; 0x03
     a2e:	9c 81       	ldd	r25, Y+4	; 0x04
     a30:	ad 81       	ldd	r26, Y+5	; 0x05
     a32:	be 81       	ldd	r27, Y+6	; 0x06
     a34:	8d a3       	std	Y+37, r24	; 0x25
     a36:	9e a3       	std	Y+38, r25	; 0x26
     a38:	af a3       	std	Y+39, r26	; 0x27
     a3a:	b8 a7       	std	Y+40, r27	; 0x28

	X1 = ( ( ( UT - AC6 ) * AC5 ) >> 15 );
     a3c:	a7 01       	movw	r20, r14
     a3e:	96 01       	movw	r18, r12
     a40:	89 8d       	ldd	r24, Y+25	; 0x19
     a42:	9a 8d       	ldd	r25, Y+26	; 0x1a
     a44:	ab 8d       	ldd	r26, Y+27	; 0x1b
     a46:	bc 8d       	ldd	r27, Y+28	; 0x1c
     a48:	28 1b       	sub	r18, r24
     a4a:	39 0b       	sbc	r19, r25
     a4c:	4a 0b       	sbc	r20, r26
     a4e:	5b 0b       	sbc	r21, r27
     a50:	6d 89       	ldd	r22, Y+21	; 0x15
     a52:	7e 89       	ldd	r23, Y+22	; 0x16
     a54:	8f 89       	ldd	r24, Y+23	; 0x17
     a56:	98 8d       	ldd	r25, Y+24	; 0x18
     a58:	0e 94 d7 25 	call	0x4bae	; 0x4bae <__mulsi3>
     a5c:	6b 01       	movw	r12, r22
     a5e:	7c 01       	movw	r14, r24
     a60:	0b 2e       	mov	r0, r27
     a62:	bf e0       	ldi	r27, 0x0F	; 15
     a64:	f5 94       	asr	r15
     a66:	e7 94       	ror	r14
     a68:	d7 94       	ror	r13
     a6a:	c7 94       	ror	r12
     a6c:	ba 95       	dec	r27
     a6e:	d1 f7       	brne	.-12     	; 0xa64 <bmp180GetPressure+0x152>
     a70:	b0 2d       	mov	r27, r0
	X2 = (MC<<11) / (X1 + MD);
	B5 = X1 + X2;
     a72:	c3 01       	movw	r24, r6
     a74:	b2 01       	movw	r22, r4
     a76:	05 2e       	mov	r0, r21
     a78:	5b e0       	ldi	r21, 0x0B	; 11
     a7a:	66 0f       	add	r22, r22
     a7c:	77 1f       	adc	r23, r23
     a7e:	88 1f       	adc	r24, r24
     a80:	99 1f       	adc	r25, r25
     a82:	5a 95       	dec	r21
     a84:	d1 f7       	brne	.-12     	; 0xa7a <bmp180GetPressure+0x168>
     a86:	50 2d       	mov	r21, r0
     a88:	a5 01       	movw	r20, r10
     a8a:	94 01       	movw	r18, r8
     a8c:	2c 0d       	add	r18, r12
     a8e:	3d 1d       	adc	r19, r13
     a90:	4e 1d       	adc	r20, r14
     a92:	5f 1d       	adc	r21, r15
     a94:	0e 94 1d 26 	call	0x4c3a	; 0x4c3a <__divmodsi4>
     a98:	c2 0e       	add	r12, r18
     a9a:	d3 1e       	adc	r13, r19
     a9c:	e4 1e       	adc	r14, r20
     a9e:	f5 1e       	adc	r15, r21
	T = ((B5 + 8L)>>4);
	cal->temperature = T;
     aa0:	d7 01       	movw	r26, r14
     aa2:	c6 01       	movw	r24, r12
     aa4:	08 96       	adiw	r24, 0x08	; 8
     aa6:	a1 1d       	adc	r26, r1
     aa8:	b1 1d       	adc	r27, r1
     aaa:	68 94       	set
     aac:	13 f8       	bld	r1, 3
     aae:	b5 95       	asr	r27
     ab0:	a7 95       	ror	r26
     ab2:	97 95       	ror	r25
     ab4:	87 95       	ror	r24
     ab6:	16 94       	lsr	r1
     ab8:	d1 f7       	brne	.-12     	; 0xaae <bmp180GetPressure+0x19c>
     aba:	f1 01       	movw	r30, r2
     abc:	82 8f       	std	Z+26, r24	; 0x1a
     abe:	93 8f       	std	Z+27, r25	; 0x1b
     ac0:	a4 8f       	std	Z+28, r26	; 0x1c
     ac2:	b5 8f       	std	Z+29, r27	; 0x1d
	
    B6 = B5 - 4000;	
     ac4:	f0 ea       	ldi	r31, 0xA0	; 160
     ac6:	cf 1a       	sub	r12, r31
     ac8:	ff e0       	ldi	r31, 0x0F	; 15
     aca:	df 0a       	sbc	r13, r31
     acc:	e1 08       	sbc	r14, r1
     ace:	f1 08       	sbc	r15, r1
    X1 = (B2 * (B6 * B6 >> 12)) >> 11;
     ad0:	a7 01       	movw	r20, r14
     ad2:	96 01       	movw	r18, r12
     ad4:	c7 01       	movw	r24, r14
     ad6:	b6 01       	movw	r22, r12
     ad8:	0e 94 d7 25 	call	0x4bae	; 0x4bae <__mulsi3>
     adc:	2b 01       	movw	r4, r22
     ade:	3c 01       	movw	r6, r24
     ae0:	03 2e       	mov	r0, r19
     ae2:	3c e0       	ldi	r19, 0x0C	; 12
     ae4:	75 94       	asr	r7
     ae6:	67 94       	ror	r6
     ae8:	57 94       	ror	r5
     aea:	47 94       	ror	r4
     aec:	3a 95       	dec	r19
     aee:	d1 f7       	brne	.-12     	; 0xae4 <bmp180GetPressure+0x1d2>
     af0:	30 2d       	mov	r19, r0
    X3 = X1 + X2;
    B3 = (((AC1 * 4 + X3) << oss) + 2) >> 2;
    X1 = AC3 * B6 / 8192;
    X2 = (B1 * (B6 * B6 >> 12)) >> 16;
    X3 = ((X1 + X2) + 2) >> 2;
    B4 = AC4 * (unsigned long)(X3 + 32768) >> 15;
     af2:	2f 85       	ldd	r18, Y+15	; 0x0f
     af4:	38 89       	ldd	r19, Y+16	; 0x10
     af6:	49 89       	ldd	r20, Y+17	; 0x11
     af8:	5a 89       	ldd	r21, Y+18	; 0x12
     afa:	c7 01       	movw	r24, r14
     afc:	b6 01       	movw	r22, r12
     afe:	0e 94 d7 25 	call	0x4bae	; 0x4bae <__mulsi3>
     b02:	4b 01       	movw	r8, r22
     b04:	5c 01       	movw	r10, r24
     b06:	99 23       	and	r25, r25
     b08:	34 f4       	brge	.+12     	; 0xb16 <bmp180GetPressure+0x204>
     b0a:	2f ef       	ldi	r18, 0xFF	; 255
     b0c:	82 0e       	add	r8, r18
     b0e:	2f e1       	ldi	r18, 0x1F	; 31
     b10:	92 1e       	adc	r9, r18
     b12:	a1 1c       	adc	r10, r1
     b14:	b1 1c       	adc	r11, r1
     b16:	07 2e       	mov	r0, r23
     b18:	7d e0       	ldi	r23, 0x0D	; 13
     b1a:	b5 94       	asr	r11
     b1c:	a7 94       	ror	r10
     b1e:	97 94       	ror	r9
     b20:	87 94       	ror	r8
     b22:	7a 95       	dec	r23
     b24:	d1 f7       	brne	.-12     	; 0xb1a <bmp180GetPressure+0x208>
     b26:	70 2d       	mov	r23, r0
     b28:	2d 8d       	ldd	r18, Y+29	; 0x1d
     b2a:	3e 8d       	ldd	r19, Y+30	; 0x1e
     b2c:	4f 8d       	ldd	r20, Y+31	; 0x1f
     b2e:	58 a1       	ldd	r21, Y+32	; 0x20
     b30:	c3 01       	movw	r24, r6
     b32:	b2 01       	movw	r22, r4
     b34:	0e 94 d7 25 	call	0x4bae	; 0x4bae <__mulsi3>
     b38:	bb 27       	eor	r27, r27
     b3a:	97 fd       	sbrc	r25, 7
     b3c:	b0 95       	com	r27
     b3e:	ab 2f       	mov	r26, r27
     b40:	88 0d       	add	r24, r8
     b42:	99 1d       	adc	r25, r9
     b44:	aa 1d       	adc	r26, r10
     b46:	bb 1d       	adc	r27, r11
     b48:	02 96       	adiw	r24, 0x02	; 2
     b4a:	a1 1d       	adc	r26, r1
     b4c:	b1 1d       	adc	r27, r1
     b4e:	b5 95       	asr	r27
     b50:	a7 95       	ror	r26
     b52:	97 95       	ror	r25
     b54:	87 95       	ror	r24
     b56:	b5 95       	asr	r27
     b58:	a7 95       	ror	r26
     b5a:	97 95       	ror	r25
     b5c:	87 95       	ror	r24
     b5e:	9c 01       	movw	r18, r24
     b60:	ad 01       	movw	r20, r26
     b62:	30 58       	subi	r19, 0x80	; 128
     b64:	4f 4f       	sbci	r20, 0xFF	; 255
     b66:	5f 4f       	sbci	r21, 0xFF	; 255
     b68:	ab 89       	ldd	r26, Y+19	; 0x13
     b6a:	bc 89       	ldd	r27, Y+20	; 0x14
     b6c:	0e 94 4b 26 	call	0x4c96	; 0x4c96 <__muluhisi3>
     b70:	4b 01       	movw	r8, r22
     b72:	5c 01       	movw	r10, r24
     b74:	07 2e       	mov	r0, r23
     b76:	7f e0       	ldi	r23, 0x0F	; 15
     b78:	b6 94       	lsr	r11
     b7a:	a7 94       	ror	r10
     b7c:	97 94       	ror	r9
     b7e:	87 94       	ror	r8
     b80:	7a 95       	dec	r23
     b82:	d1 f7       	brne	.-12     	; 0xb78 <bmp180GetPressure+0x266>
     b84:	70 2d       	mov	r23, r0
    B7 = ((unsigned long)UP - B3) * (50000 >> oss);
     b86:	29 a1       	ldd	r18, Y+33	; 0x21
     b88:	3a a1       	ldd	r19, Y+34	; 0x22
     b8a:	4b a1       	ldd	r20, Y+35	; 0x23
     b8c:	5c a1       	ldd	r21, Y+36	; 0x24
     b8e:	c3 01       	movw	r24, r6
     b90:	b2 01       	movw	r22, r4
     b92:	0e 94 d7 25 	call	0x4bae	; 0x4bae <__mulsi3>
     b96:	2b 01       	movw	r4, r22
     b98:	3c 01       	movw	r6, r24
     b9a:	03 2e       	mov	r0, r19
     b9c:	3b e0       	ldi	r19, 0x0B	; 11
     b9e:	75 94       	asr	r7
     ba0:	67 94       	ror	r6
     ba2:	57 94       	ror	r5
     ba4:	47 94       	ror	r4
     ba6:	3a 95       	dec	r19
     ba8:	d1 f7       	brne	.-12     	; 0xb9e <bmp180GetPressure+0x28c>
     baa:	30 2d       	mov	r19, r0
     bac:	2b 85       	ldd	r18, Y+11	; 0x0b
     bae:	3c 85       	ldd	r19, Y+12	; 0x0c
     bb0:	4d 85       	ldd	r20, Y+13	; 0x0d
     bb2:	5e 85       	ldd	r21, Y+14	; 0x0e
     bb4:	c7 01       	movw	r24, r14
     bb6:	b6 01       	movw	r22, r12
     bb8:	0e 94 d7 25 	call	0x4bae	; 0x4bae <__mulsi3>
     bbc:	dc 01       	movw	r26, r24
     bbe:	cb 01       	movw	r24, r22
     bc0:	07 2e       	mov	r0, r23
     bc2:	7b e0       	ldi	r23, 0x0B	; 11
     bc4:	b5 95       	asr	r27
     bc6:	a7 95       	ror	r26
     bc8:	97 95       	ror	r25
     bca:	87 95       	ror	r24
     bcc:	7a 95       	dec	r23
     bce:	d1 f7       	brne	.-12     	; 0xbc4 <bmp180GetPressure+0x2b2>
     bd0:	70 2d       	mov	r23, r0
     bd2:	48 0e       	add	r4, r24
     bd4:	59 1e       	adc	r5, r25
     bd6:	6a 1e       	adc	r6, r26
     bd8:	7b 1e       	adc	r7, r27
     bda:	8f 81       	ldd	r24, Y+7	; 0x07
     bdc:	98 85       	ldd	r25, Y+8	; 0x08
     bde:	a9 85       	ldd	r26, Y+9	; 0x09
     be0:	ba 85       	ldd	r27, Y+10	; 0x0a
     be2:	88 0f       	add	r24, r24
     be4:	99 1f       	adc	r25, r25
     be6:	aa 1f       	adc	r26, r26
     be8:	bb 1f       	adc	r27, r27
     bea:	88 0f       	add	r24, r24
     bec:	99 1f       	adc	r25, r25
     bee:	aa 1f       	adc	r26, r26
     bf0:	bb 1f       	adc	r27, r27
     bf2:	48 0e       	add	r4, r24
     bf4:	59 1e       	adc	r5, r25
     bf6:	6a 1e       	adc	r6, r26
     bf8:	7b 1e       	adc	r7, r27
     bfa:	00 2e       	mov	r0, r16
     bfc:	04 c0       	rjmp	.+8      	; 0xc06 <bmp180GetPressure+0x2f4>
     bfe:	44 0c       	add	r4, r4
     c00:	55 1c       	adc	r5, r5
     c02:	66 1c       	adc	r6, r6
     c04:	77 1c       	adc	r7, r7
     c06:	0a 94       	dec	r0
     c08:	d2 f7       	brpl	.-12     	; 0xbfe <bmp180GetPressure+0x2ec>
     c0a:	32 e0       	ldi	r19, 0x02	; 2
     c0c:	43 0e       	add	r4, r19
     c0e:	51 1c       	adc	r5, r1
     c10:	61 1c       	adc	r6, r1
     c12:	71 1c       	adc	r7, r1
     c14:	75 94       	asr	r7
     c16:	67 94       	ror	r6
     c18:	57 94       	ror	r5
     c1a:	47 94       	ror	r4
     c1c:	75 94       	asr	r7
     c1e:	67 94       	ror	r6
     c20:	57 94       	ror	r5
     c22:	47 94       	ror	r4
     c24:	2d a1       	ldd	r18, Y+37	; 0x25
     c26:	3e a1       	ldd	r19, Y+38	; 0x26
     c28:	4f a1       	ldd	r20, Y+39	; 0x27
     c2a:	58 a5       	ldd	r21, Y+40	; 0x28
     c2c:	24 19       	sub	r18, r4
     c2e:	35 09       	sbc	r19, r5
     c30:	46 09       	sbc	r20, r6
     c32:	57 09       	sbc	r21, r7
     c34:	80 e5       	ldi	r24, 0x50	; 80
     c36:	93 ec       	ldi	r25, 0xC3	; 195
     c38:	a0 e0       	ldi	r26, 0x00	; 0
     c3a:	b0 e0       	ldi	r27, 0x00	; 0
     c3c:	bc 01       	movw	r22, r24
     c3e:	cd 01       	movw	r24, r26
     c40:	04 c0       	rjmp	.+8      	; 0xc4a <bmp180GetPressure+0x338>
     c42:	95 95       	asr	r25
     c44:	87 95       	ror	r24
     c46:	77 95       	ror	r23
     c48:	67 95       	ror	r22
     c4a:	0a 95       	dec	r16
     c4c:	d2 f7       	brpl	.-12     	; 0xc42 <bmp180GetPressure+0x330>
     c4e:	0e 94 d7 25 	call	0x4bae	; 0x4bae <__mulsi3>
	
    if (B7 < 0x80000000)
     c52:	99 23       	and	r25, r25
     c54:	6c f0       	brlt	.+26     	; 0xc70 <bmp180GetPressure+0x35e>
	{
		p = (B7 * 2) / B4;
     c56:	66 0f       	add	r22, r22
     c58:	77 1f       	adc	r23, r23
     c5a:	88 1f       	adc	r24, r24
     c5c:	99 1f       	adc	r25, r25
     c5e:	a5 01       	movw	r20, r10
     c60:	94 01       	movw	r18, r8
     c62:	0e 94 fb 25 	call	0x4bf6	; 0x4bf6 <__udivmodsi4>
     c66:	2b 83       	std	Y+3, r18	; 0x03
     c68:	3c 83       	std	Y+4, r19	; 0x04
     c6a:	4d 83       	std	Y+5, r20	; 0x05
     c6c:	5e 83       	std	Y+6, r21	; 0x06
     c6e:	0e c0       	rjmp	.+28     	; 0xc8c <bmp180GetPressure+0x37a>
	}
    else
	{
		p = (B7 / B4) * 2;
     c70:	a5 01       	movw	r20, r10
     c72:	94 01       	movw	r18, r8
     c74:	0e 94 fb 25 	call	0x4bf6	; 0x4bf6 <__udivmodsi4>
     c78:	da 01       	movw	r26, r20
     c7a:	c9 01       	movw	r24, r18
     c7c:	88 0f       	add	r24, r24
     c7e:	99 1f       	adc	r25, r25
     c80:	aa 1f       	adc	r26, r26
     c82:	bb 1f       	adc	r27, r27
     c84:	8b 83       	std	Y+3, r24	; 0x03
     c86:	9c 83       	std	Y+4, r25	; 0x04
     c88:	ad 83       	std	Y+5, r26	; 0x05
     c8a:	be 83       	std	Y+6, r27	; 0x06
	}
    
	
    X1 = (p >> 8) * (p >> 8);
     c8c:	8b 80       	ldd	r8, Y+3	; 0x03
     c8e:	9c 80       	ldd	r9, Y+4	; 0x04
     c90:	ad 80       	ldd	r10, Y+5	; 0x05
     c92:	be 80       	ldd	r11, Y+6	; 0x06
     c94:	99 27       	eor	r25, r25
     c96:	b7 fc       	sbrc	r11, 7
     c98:	9a 95       	dec	r25
     c9a:	8b 2d       	mov	r24, r11
     c9c:	7a 2d       	mov	r23, r10
     c9e:	69 2d       	mov	r22, r9
    X1 = (X1 * 3038) >> 16;
     ca0:	9b 01       	movw	r18, r22
     ca2:	ac 01       	movw	r20, r24
     ca4:	0e 94 d7 25 	call	0x4bae	; 0x4bae <__mulsi3>
     ca8:	9b 01       	movw	r18, r22
     caa:	ac 01       	movw	r20, r24
     cac:	ae ed       	ldi	r26, 0xDE	; 222
     cae:	bb e0       	ldi	r27, 0x0B	; 11
     cb0:	0e 94 4b 26 	call	0x4c96	; 0x4c96 <__muluhisi3>
     cb4:	6b 01       	movw	r12, r22
     cb6:	7c 01       	movw	r14, r24
    X2 = (-7357 * p) >> 16;
    cal->pressure = p + ((X1 + X2 + 3791) >> 4);
     cb8:	a3 e4       	ldi	r26, 0x43	; 67
     cba:	b3 ee       	ldi	r27, 0xE3	; 227
     cbc:	a5 01       	movw	r20, r10
     cbe:	94 01       	movw	r18, r8
     cc0:	0e 94 59 26 	call	0x4cb2	; 0x4cb2 <__mulohisi3>
     cc4:	bb 27       	eor	r27, r27
     cc6:	97 fd       	sbrc	r25, 7
     cc8:	b0 95       	com	r27
     cca:	ab 2f       	mov	r26, r27
     ccc:	67 01       	movw	r12, r14
     cce:	ff 24       	eor	r15, r15
     cd0:	d7 fc       	sbrc	r13, 7
     cd2:	f0 94       	com	r15
     cd4:	ef 2c       	mov	r14, r15
     cd6:	c8 0e       	add	r12, r24
     cd8:	d9 1e       	adc	r13, r25
     cda:	ea 1e       	adc	r14, r26
     cdc:	fb 1e       	adc	r15, r27
     cde:	4f ec       	ldi	r20, 0xCF	; 207
     ce0:	c4 0e       	add	r12, r20
     ce2:	4e e0       	ldi	r20, 0x0E	; 14
     ce4:	d4 1e       	adc	r13, r20
     ce6:	e1 1c       	adc	r14, r1
     ce8:	f1 1c       	adc	r15, r1
     cea:	68 94       	set
     cec:	13 f8       	bld	r1, 3
     cee:	f5 94       	asr	r15
     cf0:	e7 94       	ror	r14
     cf2:	d7 94       	ror	r13
     cf4:	c7 94       	ror	r12
     cf6:	16 94       	lsr	r1
     cf8:	d1 f7       	brne	.-12     	; 0xcee <bmp180GetPressure+0x3dc>
     cfa:	c8 0c       	add	r12, r8
     cfc:	d9 1c       	adc	r13, r9
     cfe:	ea 1c       	adc	r14, r10
     d00:	fb 1c       	adc	r15, r11
     d02:	d1 01       	movw	r26, r2
     d04:	56 96       	adiw	r26, 0x16	; 22
     d06:	cd 92       	st	X+, r12
     d08:	dd 92       	st	X+, r13
     d0a:	ed 92       	st	X+, r14
     d0c:	fc 92       	st	X, r15
     d0e:	59 97       	sbiw	r26, 0x19	; 25
	
    return ret;
}
     d10:	81 2f       	mov	r24, r17
     d12:	a8 96       	adiw	r28, 0x28	; 40
     d14:	0f b6       	in	r0, 0x3f	; 63
     d16:	f8 94       	cli
     d18:	de bf       	out	0x3e, r29	; 62
     d1a:	0f be       	out	0x3f, r0	; 63
     d1c:	cd bf       	out	0x3d, r28	; 61
     d1e:	df 91       	pop	r29
     d20:	cf 91       	pop	r28
     d22:	1f 91       	pop	r17
     d24:	0f 91       	pop	r16
     d26:	ff 90       	pop	r15
     d28:	ef 90       	pop	r14
     d2a:	df 90       	pop	r13
     d2c:	cf 90       	pop	r12
     d2e:	bf 90       	pop	r11
     d30:	af 90       	pop	r10
     d32:	9f 90       	pop	r9
     d34:	8f 90       	pop	r8
     d36:	7f 90       	pop	r7
     d38:	6f 90       	pop	r6
     d3a:	5f 90       	pop	r5
     d3c:	4f 90       	pop	r4
     d3e:	3f 90       	pop	r3
     d40:	2f 90       	pop	r2
     d42:	08 95       	ret

00000d44 <bmp180Init>:
	return 1;
}

void bmp180Init(void)
{
	bmp180GetCal(&cal);
     d44:	89 ee       	ldi	r24, 0xE9	; 233
     d46:	93 e0       	ldi	r25, 0x03	; 3
     d48:	0e 94 c1 02 	call	0x582	; 0x582 <bmp180GetCal>
     d4c:	08 95       	ret

00000d4e <buildVer>:
	static char build[14] = "00000000000000";
	
	/*
	*	major and minor version
	*/
	build[0] = verMajor;
     d4e:	e0 e6       	ldi	r30, 0x60	; 96
     d50:	f0 e0       	ldi	r31, 0x00	; 0
     d52:	91 e3       	ldi	r25, 0x31	; 49
     d54:	90 83       	st	Z, r25
	build[1] = '.';
     d56:	8e e2       	ldi	r24, 0x2E	; 46
     d58:	81 83       	std	Z+1, r24	; 0x01
	build[2] = verMinor;
     d5a:	22 e3       	ldi	r18, 0x32	; 50
     d5c:	22 83       	std	Z+2, r18	; 0x02
	build[3] = '.';
     d5e:	83 83       	std	Z+3, r24	; 0x03
	
	/*
	*	time.: hour|min
	*/
	build[4] = __TIME__[0];
     d60:	94 83       	std	Z+4, r25	; 0x04
	build[5] = __TIME__[1];
     d62:	97 e3       	ldi	r25, 0x37	; 55
     d64:	95 83       	std	Z+5, r25	; 0x05
	build[6] = __TIME__[3];
     d66:	94 e3       	ldi	r25, 0x34	; 52
     d68:	96 83       	std	Z+6, r25	; 0x06
	build[7] = __TIME__[4];
     d6a:	25 e3       	ldi	r18, 0x35	; 53
     d6c:	27 83       	std	Z+7, r18	; 0x07
	
	build[8] = '.';
     d6e:	80 87       	std	Z+8, r24	; 0x08
	
	/*
	*	day
	*/
	build[9] = ((__DATE__[4] >= '0') ? (__DATE__[4]) : '0');
     d70:	80 e3       	ldi	r24, 0x30	; 48
     d72:	81 87       	std	Z+9, r24	; 0x09
	build[10] = (__DATE__[ 5]);
     d74:	92 87       	std	Z+10, r25	; 0x0a
	
	if(__DATE__[0] == 'A' && __DATE__[1] == 'u')
	build[12] = '8'; // August
	
	if(__DATE__[0] == 'S')
	build[12] = '9'; // September
     d76:	89 e3       	ldi	r24, 0x39	; 57
     d78:	84 87       	std	Z+12, r24	; 0x0c
	if(__DATE__[0] == 'D'){
		build[11] = '1';
		build[12] = '2'; // Dezember
	}

	build[13] = '\0';
     d7a:	15 86       	std	Z+13, r1	; 0x0d
	
	return build;
}
     d7c:	cf 01       	movw	r24, r30
     d7e:	08 95       	ret

00000d80 <decHex8>:

#include <avr/io.h>
#include "convert.h"

char *decHex8(uint8_t dec, char *b)
{	
     d80:	cf 93       	push	r28
     d82:	df 93       	push	r29
     d84:	cd b7       	in	r28, 0x3d	; 61
     d86:	de b7       	in	r29, 0x3e	; 62
     d88:	61 97       	sbiw	r28, 0x11	; 17
     d8a:	0f b6       	in	r0, 0x3f	; 63
     d8c:	f8 94       	cli
     d8e:	de bf       	out	0x3e, r29	; 62
     d90:	0f be       	out	0x3f, r0	; 63
     d92:	cd bf       	out	0x3d, r28	; 61
	/* hex char set */
	char hexchars[] = "0123456789ABCDEF";
     d94:	91 e1       	ldi	r25, 0x11	; 17
     d96:	e1 e3       	ldi	r30, 0x31	; 49
     d98:	f1 e0       	ldi	r31, 0x01	; 1
     d9a:	de 01       	movw	r26, r28
     d9c:	11 96       	adiw	r26, 0x01	; 1
     d9e:	01 90       	ld	r0, Z+
     da0:	0d 92       	st	X+, r0
     da2:	9a 95       	dec	r25
     da4:	e1 f7       	brne	.-8      	; 0xd9e <decHex8+0x1e>
  	b[0] = '0';	
     da6:	90 e3       	ldi	r25, 0x30	; 48
     da8:	fb 01       	movw	r30, r22
     daa:	90 83       	st	Z, r25
   	b[1] = 'x'; 	 
     dac:	98 e7       	ldi	r25, 0x78	; 120
     dae:	91 83       	std	Z+1, r25	; 0x01
    b[2] = hexchars[dec >>  4 & 0xF];          
     db0:	98 2f       	mov	r25, r24
     db2:	92 95       	swap	r25
     db4:	9f 70       	andi	r25, 0x0F	; 15
     db6:	e1 e0       	ldi	r30, 0x01	; 1
     db8:	f0 e0       	ldi	r31, 0x00	; 0
     dba:	ec 0f       	add	r30, r28
     dbc:	fd 1f       	adc	r31, r29
     dbe:	e9 0f       	add	r30, r25
     dc0:	f1 1d       	adc	r31, r1
     dc2:	90 81       	ld	r25, Z
     dc4:	fb 01       	movw	r30, r22
     dc6:	92 83       	std	Z+2, r25	; 0x02
    b[3] = hexchars[dec       & 0xF];
     dc8:	8f 70       	andi	r24, 0x0F	; 15
     dca:	e1 e0       	ldi	r30, 0x01	; 1
     dcc:	f0 e0       	ldi	r31, 0x00	; 0
     dce:	ec 0f       	add	r30, r28
     dd0:	fd 1f       	adc	r31, r29
     dd2:	e8 0f       	add	r30, r24
     dd4:	f1 1d       	adc	r31, r1
     dd6:	80 81       	ld	r24, Z
     dd8:	fb 01       	movw	r30, r22
     dda:	83 83       	std	Z+3, r24	; 0x03
	b[4] = '\0';
     ddc:	14 82       	std	Z+4, r1	; 0x04
	
    return b;
}
     dde:	cb 01       	movw	r24, r22
     de0:	61 96       	adiw	r28, 0x11	; 17
     de2:	0f b6       	in	r0, 0x3f	; 63
     de4:	f8 94       	cli
     de6:	de bf       	out	0x3e, r29	; 62
     de8:	0f be       	out	0x3f, r0	; 63
     dea:	cd bf       	out	0x3d, r28	; 61
     dec:	df 91       	pop	r29
     dee:	cf 91       	pop	r28
     df0:	08 95       	ret

00000df2 <dcf_running>:
 */

bool dcf_running(void)
{
    /*Wurde das Startbit empfangen?*/
    if( dcf_available && (dcf_value == DCF_START) && !dcf_start )
     df2:	80 91 10 04 	lds	r24, 0x0410	; 0x800410 <dcf_available>
     df6:	88 23       	and	r24, r24
     df8:	69 f0       	breq	.+26     	; 0xe14 <dcf_running+0x22>
     dfa:	80 91 0a 04 	lds	r24, 0x040A	; 0x80040a <dcf_value>
     dfe:	83 30       	cpi	r24, 0x03	; 3
     e00:	49 f4       	brne	.+18     	; 0xe14 <dcf_running+0x22>
     e02:	80 91 0f 04 	lds	r24, 0x040F	; 0x80040f <dcf_start>
     e06:	81 11       	cpse	r24, r1
     e08:	05 c0       	rjmp	.+10     	; 0xe14 <dcf_running+0x22>
    {
        dcf_start		= true;
     e0a:	81 e0       	ldi	r24, 0x01	; 1
     e0c:	80 93 0f 04 	sts	0x040F, r24	; 0x80040f <dcf_start>
        dcf_available	= false;
     e10:	10 92 10 04 	sts	0x0410, r1	; 0x800410 <dcf_available>
    }

    return dcf_start;
     e14:	80 91 0f 04 	lds	r24, 0x040F	; 0x80040f <dcf_start>
}
     e18:	08 95       	ret

00000e1a <dcf_collect>:
{
	/*Aktuelle Bitposition*/
	static uint8_t dcf_cnt = 0;

	/*Sind neue Daten verfgbar?*/
	if( dcf_available )
     e1a:	80 91 10 04 	lds	r24, 0x0410	; 0x800410 <dcf_available>
     e1e:	88 23       	and	r24, r24
     e20:	09 f4       	brne	.+2      	; 0xe24 <dcf_collect+0xa>
     e22:	46 c0       	rjmp	.+140    	; 0xeb0 <dcf_collect+0x96>
	{
		/*Wurde eine 1 empfangen?*/
		if( dcf_value == DCF_HIGH )
     e24:	80 91 0a 04 	lds	r24, 0x040A	; 0x80040a <dcf_value>
     e28:	81 30       	cpi	r24, 0x01	; 1
     e2a:	b1 f4       	brne	.+44     	; 0xe58 <dcf_collect+0x3e>
		{
			/*Das entsprechende Bit setzten*/
			dcf_data[(dcf_cnt/8)] |=  (0x01 << (dcf_cnt % 8));
     e2c:	90 91 ca 03 	lds	r25, 0x03CA	; 0x8003ca <dcf_cnt.1851>
     e30:	e9 2f       	mov	r30, r25
     e32:	e6 95       	lsr	r30
     e34:	e6 95       	lsr	r30
     e36:	e6 95       	lsr	r30
     e38:	f0 e0       	ldi	r31, 0x00	; 0
     e3a:	e5 53       	subi	r30, 0x35	; 53
     e3c:	fc 4f       	sbci	r31, 0xFC	; 252
     e3e:	30 81       	ld	r19, Z
     e40:	29 2f       	mov	r18, r25
     e42:	27 70       	andi	r18, 0x07	; 7
     e44:	81 e0       	ldi	r24, 0x01	; 1
     e46:	90 e0       	ldi	r25, 0x00	; 0
     e48:	02 c0       	rjmp	.+4      	; 0xe4e <dcf_collect+0x34>
     e4a:	88 0f       	add	r24, r24
     e4c:	99 1f       	adc	r25, r25
     e4e:	2a 95       	dec	r18
     e50:	e2 f7       	brpl	.-8      	; 0xe4a <dcf_collect+0x30>
     e52:	83 2b       	or	r24, r19
     e54:	80 83       	st	Z, r24
     e56:	25 c0       	rjmp	.+74     	; 0xea2 <dcf_collect+0x88>
		}
		/*Nein, es wurde eine 0 empfangen*/
		else if( dcf_value == DCF_LOW )
     e58:	80 91 0a 04 	lds	r24, 0x040A	; 0x80040a <dcf_value>
     e5c:	81 11       	cpse	r24, r1
     e5e:	17 c0       	rjmp	.+46     	; 0xe8e <dcf_collect+0x74>
		{
			/*Das entsprechende Bit lschen*/
			dcf_data[(dcf_cnt/8)] &= ~(0x01 << (dcf_cnt % 8));
     e60:	90 91 ca 03 	lds	r25, 0x03CA	; 0x8003ca <dcf_cnt.1851>
     e64:	e9 2f       	mov	r30, r25
     e66:	e6 95       	lsr	r30
     e68:	e6 95       	lsr	r30
     e6a:	e6 95       	lsr	r30
     e6c:	f0 e0       	ldi	r31, 0x00	; 0
     e6e:	e5 53       	subi	r30, 0x35	; 53
     e70:	fc 4f       	sbci	r31, 0xFC	; 252
     e72:	30 81       	ld	r19, Z
     e74:	29 2f       	mov	r18, r25
     e76:	27 70       	andi	r18, 0x07	; 7
     e78:	81 e0       	ldi	r24, 0x01	; 1
     e7a:	90 e0       	ldi	r25, 0x00	; 0
     e7c:	02 c0       	rjmp	.+4      	; 0xe82 <dcf_collect+0x68>
     e7e:	88 0f       	add	r24, r24
     e80:	99 1f       	adc	r25, r25
     e82:	2a 95       	dec	r18
     e84:	e2 f7       	brpl	.-8      	; 0xe7e <dcf_collect+0x64>
     e86:	80 95       	com	r24
     e88:	83 23       	and	r24, r19
     e8a:	80 83       	st	Z, r24
     e8c:	0a c0       	rjmp	.+20     	; 0xea2 <dcf_collect+0x88>
		}
		/* Nein, es beginnt eine neue Sequenze */
		else if( dcf_value == DCF_START )
     e8e:	80 91 0a 04 	lds	r24, 0x040A	; 0x80040a <dcf_value>
     e92:	83 30       	cpi	r24, 0x03	; 3
     e94:	31 f4       	brne	.+12     	; 0xea2 <dcf_collect+0x88>
		{
			dcf_cnt = 0;
     e96:	10 92 ca 03 	sts	0x03CA, r1	; 0x8003ca <dcf_cnt.1851>
			dcf_available = false;
     e9a:	10 92 10 04 	sts	0x0410, r1	; 0x800410 <dcf_available>
			return false;
     e9e:	80 e0       	ldi	r24, 0x00	; 0
     ea0:	08 95       	ret
		}
		/*Das nchste Bit*/
		dcf_cnt++;
     ea2:	80 91 ca 03 	lds	r24, 0x03CA	; 0x8003ca <dcf_cnt.1851>
     ea6:	8f 5f       	subi	r24, 0xFF	; 255
     ea8:	80 93 ca 03 	sts	0x03CA, r24	; 0x8003ca <dcf_cnt.1851>
		/*Daten sind verarbeitet/als*/
		dcf_available = false;
     eac:	10 92 10 04 	sts	0x0410, r1	; 0x800410 <dcf_available>
	}

	/*Alle Bits empfangen?*/
	if( dcf_cnt > 58 )
     eb0:	80 91 ca 03 	lds	r24, 0x03CA	; 0x8003ca <dcf_cnt.1851>
     eb4:	8b 33       	cpi	r24, 0x3B	; 59
     eb6:	30 f0       	brcs	.+12     	; 0xec4 <dcf_collect+0xaa>
	{
		dcf_cnt = 0;
     eb8:	10 92 ca 03 	sts	0x03CA, r1	; 0x8003ca <dcf_cnt.1851>
		dcf_start = false;
     ebc:	10 92 0f 04 	sts	0x040F, r1	; 0x80040f <dcf_start>
		return true;
     ec0:	81 e0       	ldi	r24, 0x01	; 1
     ec2:	08 95       	ret
	}
	else
	{
		return false;
     ec4:	80 e0       	ldi	r24, 0x00	; 0
	}
}
     ec6:	08 95       	ret

00000ec8 <dcf_decode>:
 * gltigen Zeitinformationen zurck. Im Fehlerfall liefert die Funktion
 * einen Nullpointer.
 */

bool dcf_decode (void)
{
     ec8:	0f 93       	push	r16
     eca:	1f 93       	push	r17
     ecc:	cf 93       	push	r28
     ece:	df 93       	push	r29
	uint8_t par = 0, k = 0;

	/*Parittsprfung*/

	for(k=21; k<29; k++)
     ed0:	85 e1       	ldi	r24, 0x15	; 21
 * einen Nullpointer.
 */

bool dcf_decode (void)
{
	uint8_t par = 0, k = 0;
     ed2:	90 e0       	ldi	r25, 0x00	; 0

	/*Parittsprfung*/

	for(k=21; k<29; k++)
	{
		if( dcf_data[(k)/8] & (0x01 << (k%8)) )
     ed4:	e8 2f       	mov	r30, r24
     ed6:	e6 95       	lsr	r30
     ed8:	e6 95       	lsr	r30
     eda:	e6 95       	lsr	r30
     edc:	f0 e0       	ldi	r31, 0x00	; 0
     ede:	e5 53       	subi	r30, 0x35	; 53
     ee0:	fc 4f       	sbci	r31, 0xFC	; 252
     ee2:	20 81       	ld	r18, Z
     ee4:	30 e0       	ldi	r19, 0x00	; 0
     ee6:	48 2f       	mov	r20, r24
     ee8:	47 70       	andi	r20, 0x07	; 7
     eea:	02 c0       	rjmp	.+4      	; 0xef0 <dcf_decode+0x28>
     eec:	35 95       	asr	r19
     eee:	27 95       	ror	r18
     ef0:	4a 95       	dec	r20
     ef2:	e2 f7       	brpl	.-8      	; 0xeec <dcf_decode+0x24>
     ef4:	20 fd       	sbrc	r18, 0
		{
			par++;
     ef6:	9f 5f       	subi	r25, 0xFF	; 255
{
	uint8_t par = 0, k = 0;

	/*Parittsprfung*/

	for(k=21; k<29; k++)
     ef8:	8f 5f       	subi	r24, 0xFF	; 255
     efa:	8d 31       	cpi	r24, 0x1D	; 29
     efc:	59 f7       	brne	.-42     	; 0xed4 <dcf_decode+0xc>
		{
			par++;
		}
	}
	
	if( par % 2 )
     efe:	90 fd       	sbrc	r25, 0
     f00:	6b c2       	rjmp	.+1238   	; 0x13d8 <dcf_decode+0x510>
		return false;
	}

	for(k=29; k<36; k++)
	{
		if( dcf_data[(k)/8] & (0x01 << (k%8)) )
     f02:	e8 2f       	mov	r30, r24
     f04:	e6 95       	lsr	r30
     f06:	e6 95       	lsr	r30
     f08:	e6 95       	lsr	r30
     f0a:	f0 e0       	ldi	r31, 0x00	; 0
     f0c:	e5 53       	subi	r30, 0x35	; 53
     f0e:	fc 4f       	sbci	r31, 0xFC	; 252
     f10:	20 81       	ld	r18, Z
     f12:	30 e0       	ldi	r19, 0x00	; 0
     f14:	48 2f       	mov	r20, r24
     f16:	47 70       	andi	r20, 0x07	; 7
     f18:	02 c0       	rjmp	.+4      	; 0xf1e <dcf_decode+0x56>
     f1a:	35 95       	asr	r19
     f1c:	27 95       	ror	r18
     f1e:	4a 95       	dec	r20
     f20:	e2 f7       	brpl	.-8      	; 0xf1a <dcf_decode+0x52>
     f22:	20 fd       	sbrc	r18, 0
		{
			par++;
     f24:	9f 5f       	subi	r25, 0xFF	; 255
	{
		/*Fehlgeschlagen*/
		return false;
	}

	for(k=29; k<36; k++)
     f26:	8f 5f       	subi	r24, 0xFF	; 255
     f28:	84 32       	cpi	r24, 0x24	; 36
     f2a:	59 f7       	brne	.-42     	; 0xf02 <dcf_decode+0x3a>
     f2c:	5b c2       	rjmp	.+1206   	; 0x13e4 <dcf_decode+0x51c>
		return false;
	}

	for(k=36; k<59; k++)
	{
		if( dcf_data[(k)/8] & (0x01 << (k%8)) )
     f2e:	e8 2f       	mov	r30, r24
     f30:	e6 95       	lsr	r30
     f32:	e6 95       	lsr	r30
     f34:	e6 95       	lsr	r30
     f36:	f0 e0       	ldi	r31, 0x00	; 0
     f38:	e5 53       	subi	r30, 0x35	; 53
     f3a:	fc 4f       	sbci	r31, 0xFC	; 252
     f3c:	20 81       	ld	r18, Z
     f3e:	30 e0       	ldi	r19, 0x00	; 0
     f40:	48 2f       	mov	r20, r24
     f42:	47 70       	andi	r20, 0x07	; 7
     f44:	02 c0       	rjmp	.+4      	; 0xf4a <dcf_decode+0x82>
     f46:	35 95       	asr	r19
     f48:	27 95       	ror	r18
     f4a:	4a 95       	dec	r20
     f4c:	e2 f7       	brpl	.-8      	; 0xf46 <dcf_decode+0x7e>
     f4e:	20 fd       	sbrc	r18, 0
		{
			par++;
     f50:	9f 5f       	subi	r25, 0xFF	; 255
	{
		/*Fehlgeschlagen*/
		return false;
	}

	for(k=36; k<59; k++)
     f52:	8f 5f       	subi	r24, 0xFF	; 255
     f54:	8b 33       	cpi	r24, 0x3B	; 59
     f56:	59 f7       	brne	.-42     	; 0xf2e <dcf_decode+0x66>
		{
			par++;
		}
	}

	if( par % 2 )
     f58:	90 fd       	sbrc	r25, 0
     f5a:	40 c2       	rjmp	.+1152   	; 0x13dc <dcf_decode+0x514>
		return false;
	}

	/*Auswertung*/

	time.Sec = 0;
     f5c:	ee e6       	ldi	r30, 0x6E	; 110
     f5e:	f0 e0       	ldi	r31, 0x00	; 0
     f60:	16 82       	std	Z+6, r1	; 0x06
	time.Min = 0;
     f62:	15 82       	std	Z+5, r1	; 0x05
	time.Hour = 0;
     f64:	14 82       	std	Z+4, r1	; 0x04
	time.Day = 0;
     f66:	10 82       	st	Z, r1
	time.wDay = 0;
     f68:	17 82       	std	Z+7, r1	; 0x07
	time.Month = 0;
     f6a:	11 82       	std	Z+1, r1	; 0x01
	time.Year = 0;
     f6c:	13 82       	std	Z+3, r1	; 0x03
     f6e:	12 82       	std	Z+2, r1	; 0x02
     f70:	80 e0       	ldi	r24, 0x00	; 0
     f72:	90 e0       	ldi	r25, 0x00	; 0
	for(k=0; k<4; k++)
	{
		/*Minute*/
		if( dcf_data[(DCF_MIN+k)/8] & (0x01 << ((DCF_MIN+k) % 8)) )
		{
			time.Min |= (0x01 << k);
     f74:	41 e0       	ldi	r20, 0x01	; 1
     f76:	50 e0       	ldi	r21, 0x00	; 0

	/*Zusammenrechnen der Einer-Stellen*/
	for(k=0; k<4; k++)
	{
		/*Minute*/
		if( dcf_data[(DCF_MIN+k)/8] & (0x01 << ((DCF_MIN+k) % 8)) )
     f78:	68 2f       	mov	r22, r24
     f7a:	9c 01       	movw	r18, r24
     f7c:	2b 5e       	subi	r18, 0xEB	; 235
     f7e:	3f 4f       	sbci	r19, 0xFF	; 255
     f80:	d9 01       	movw	r26, r18
     f82:	0a f4       	brpl	.+2      	; 0xf86 <dcf_decode+0xbe>
     f84:	17 96       	adiw	r26, 0x07	; 7
     f86:	b5 95       	asr	r27
     f88:	a7 95       	ror	r26
     f8a:	b5 95       	asr	r27
     f8c:	a7 95       	ror	r26
     f8e:	b5 95       	asr	r27
     f90:	a7 95       	ror	r26
     f92:	a5 53       	subi	r26, 0x35	; 53
     f94:	bc 4f       	sbci	r27, 0xFC	; 252
     f96:	ac 91       	ld	r26, X
     f98:	b0 e0       	ldi	r27, 0x00	; 0
     f9a:	27 70       	andi	r18, 0x07	; 7
     f9c:	30 78       	andi	r19, 0x80	; 128
     f9e:	33 23       	and	r19, r19
     fa0:	34 f4       	brge	.+12     	; 0xfae <dcf_decode+0xe6>
     fa2:	21 50       	subi	r18, 0x01	; 1
     fa4:	31 09       	sbc	r19, r1
     fa6:	28 6f       	ori	r18, 0xF8	; 248
     fa8:	3f 6f       	ori	r19, 0xFF	; 255
     faa:	2f 5f       	subi	r18, 0xFF	; 255
     fac:	3f 4f       	sbci	r19, 0xFF	; 255
     fae:	8d 01       	movw	r16, r26
     fb0:	02 c0       	rjmp	.+4      	; 0xfb6 <dcf_decode+0xee>
     fb2:	15 95       	asr	r17
     fb4:	07 95       	ror	r16
     fb6:	2a 95       	dec	r18
     fb8:	e2 f7       	brpl	.-8      	; 0xfb2 <dcf_decode+0xea>
     fba:	00 ff       	sbrs	r16, 0
     fbc:	0a c0       	rjmp	.+20     	; 0xfd2 <dcf_decode+0x10a>
		{
			time.Min |= (0x01 << k);
     fbe:	75 81       	ldd	r23, Z+5	; 0x05
     fc0:	9a 01       	movw	r18, r20
     fc2:	06 2e       	mov	r0, r22
     fc4:	02 c0       	rjmp	.+4      	; 0xfca <dcf_decode+0x102>
     fc6:	22 0f       	add	r18, r18
     fc8:	33 1f       	adc	r19, r19
     fca:	0a 94       	dec	r0
     fcc:	e2 f7       	brpl	.-8      	; 0xfc6 <dcf_decode+0xfe>
     fce:	27 2b       	or	r18, r23
     fd0:	25 83       	std	Z+5, r18	; 0x05
     fd2:	9c 01       	movw	r18, r24
     fd4:	23 5e       	subi	r18, 0xE3	; 227
     fd6:	3f 4f       	sbci	r19, 0xFF	; 255
		}
		/*Stunde*/
		if( dcf_data[(DCF_STD+k)/8] & (0x01 << ((DCF_STD+k) % 8)) )
     fd8:	d9 01       	movw	r26, r18
     fda:	0a f4       	brpl	.+2      	; 0xfde <dcf_decode+0x116>
     fdc:	17 96       	adiw	r26, 0x07	; 7
     fde:	b5 95       	asr	r27
     fe0:	a7 95       	ror	r26
     fe2:	b5 95       	asr	r27
     fe4:	a7 95       	ror	r26
     fe6:	b5 95       	asr	r27
     fe8:	a7 95       	ror	r26
     fea:	a5 53       	subi	r26, 0x35	; 53
     fec:	bc 4f       	sbci	r27, 0xFC	; 252
     fee:	ac 91       	ld	r26, X
     ff0:	b0 e0       	ldi	r27, 0x00	; 0
     ff2:	27 70       	andi	r18, 0x07	; 7
     ff4:	30 78       	andi	r19, 0x80	; 128
     ff6:	33 23       	and	r19, r19
     ff8:	34 f4       	brge	.+12     	; 0x1006 <dcf_decode+0x13e>
     ffa:	21 50       	subi	r18, 0x01	; 1
     ffc:	31 09       	sbc	r19, r1
     ffe:	28 6f       	ori	r18, 0xF8	; 248
    1000:	3f 6f       	ori	r19, 0xFF	; 255
    1002:	2f 5f       	subi	r18, 0xFF	; 255
    1004:	3f 4f       	sbci	r19, 0xFF	; 255
    1006:	ed 01       	movw	r28, r26
    1008:	02 c0       	rjmp	.+4      	; 0x100e <dcf_decode+0x146>
    100a:	d5 95       	asr	r29
    100c:	c7 95       	ror	r28
    100e:	2a 95       	dec	r18
    1010:	e2 f7       	brpl	.-8      	; 0x100a <dcf_decode+0x142>
    1012:	c0 ff       	sbrs	r28, 0
    1014:	0a c0       	rjmp	.+20     	; 0x102a <dcf_decode+0x162>
		{
			time.Hour |= (0x01 << k);
    1016:	74 81       	ldd	r23, Z+4	; 0x04
    1018:	9a 01       	movw	r18, r20
    101a:	06 2e       	mov	r0, r22
    101c:	02 c0       	rjmp	.+4      	; 0x1022 <dcf_decode+0x15a>
    101e:	22 0f       	add	r18, r18
    1020:	33 1f       	adc	r19, r19
    1022:	0a 94       	dec	r0
    1024:	e2 f7       	brpl	.-8      	; 0x101e <dcf_decode+0x156>
    1026:	27 2b       	or	r18, r23
    1028:	24 83       	std	Z+4, r18	; 0x04
    102a:	9c 01       	movw	r18, r24
    102c:	2c 5d       	subi	r18, 0xDC	; 220
    102e:	3f 4f       	sbci	r19, 0xFF	; 255
		}
		/*Tag*/
		if( dcf_data[(DCF_KT+k)/8] & (0x01 << ((DCF_KT+k) % 8)) )
    1030:	d9 01       	movw	r26, r18
    1032:	0a f4       	brpl	.+2      	; 0x1036 <dcf_decode+0x16e>
    1034:	17 96       	adiw	r26, 0x07	; 7
    1036:	b5 95       	asr	r27
    1038:	a7 95       	ror	r26
    103a:	b5 95       	asr	r27
    103c:	a7 95       	ror	r26
    103e:	b5 95       	asr	r27
    1040:	a7 95       	ror	r26
    1042:	a5 53       	subi	r26, 0x35	; 53
    1044:	bc 4f       	sbci	r27, 0xFC	; 252
    1046:	ac 91       	ld	r26, X
    1048:	b0 e0       	ldi	r27, 0x00	; 0
    104a:	27 70       	andi	r18, 0x07	; 7
    104c:	30 78       	andi	r19, 0x80	; 128
    104e:	33 23       	and	r19, r19
    1050:	34 f4       	brge	.+12     	; 0x105e <dcf_decode+0x196>
    1052:	21 50       	subi	r18, 0x01	; 1
    1054:	31 09       	sbc	r19, r1
    1056:	28 6f       	ori	r18, 0xF8	; 248
    1058:	3f 6f       	ori	r19, 0xFF	; 255
    105a:	2f 5f       	subi	r18, 0xFF	; 255
    105c:	3f 4f       	sbci	r19, 0xFF	; 255
    105e:	8d 01       	movw	r16, r26
    1060:	02 c0       	rjmp	.+4      	; 0x1066 <dcf_decode+0x19e>
    1062:	15 95       	asr	r17
    1064:	07 95       	ror	r16
    1066:	2a 95       	dec	r18
    1068:	e2 f7       	brpl	.-8      	; 0x1062 <dcf_decode+0x19a>
    106a:	00 ff       	sbrs	r16, 0
    106c:	0a c0       	rjmp	.+20     	; 0x1082 <dcf_decode+0x1ba>
		{
			time.Day |= (0x01 << k);
    106e:	70 81       	ld	r23, Z
    1070:	9a 01       	movw	r18, r20
    1072:	06 2e       	mov	r0, r22
    1074:	02 c0       	rjmp	.+4      	; 0x107a <dcf_decode+0x1b2>
    1076:	22 0f       	add	r18, r18
    1078:	33 1f       	adc	r19, r19
    107a:	0a 94       	dec	r0
    107c:	e2 f7       	brpl	.-8      	; 0x1076 <dcf_decode+0x1ae>
    107e:	27 2b       	or	r18, r23
    1080:	20 83       	st	Z, r18
    1082:	9c 01       	movw	r18, r24
    1084:	26 5d       	subi	r18, 0xD6	; 214
    1086:	3f 4f       	sbci	r19, 0xFF	; 255
		}
		/*Wochentag*/
		if( dcf_data[(DCF_WT+k)/8] & (0x01 << ((DCF_WT+k) % 8)) && (k < 3) )
    1088:	d9 01       	movw	r26, r18
    108a:	0a f4       	brpl	.+2      	; 0x108e <dcf_decode+0x1c6>
    108c:	17 96       	adiw	r26, 0x07	; 7
    108e:	b5 95       	asr	r27
    1090:	a7 95       	ror	r26
    1092:	b5 95       	asr	r27
    1094:	a7 95       	ror	r26
    1096:	b5 95       	asr	r27
    1098:	a7 95       	ror	r26
    109a:	a5 53       	subi	r26, 0x35	; 53
    109c:	bc 4f       	sbci	r27, 0xFC	; 252
    109e:	ac 91       	ld	r26, X
    10a0:	b0 e0       	ldi	r27, 0x00	; 0
    10a2:	27 70       	andi	r18, 0x07	; 7
    10a4:	30 78       	andi	r19, 0x80	; 128
    10a6:	33 23       	and	r19, r19
    10a8:	34 f4       	brge	.+12     	; 0x10b6 <dcf_decode+0x1ee>
    10aa:	21 50       	subi	r18, 0x01	; 1
    10ac:	31 09       	sbc	r19, r1
    10ae:	28 6f       	ori	r18, 0xF8	; 248
    10b0:	3f 6f       	ori	r19, 0xFF	; 255
    10b2:	2f 5f       	subi	r18, 0xFF	; 255
    10b4:	3f 4f       	sbci	r19, 0xFF	; 255
    10b6:	ed 01       	movw	r28, r26
    10b8:	02 c0       	rjmp	.+4      	; 0x10be <dcf_decode+0x1f6>
    10ba:	d5 95       	asr	r29
    10bc:	c7 95       	ror	r28
    10be:	2a 95       	dec	r18
    10c0:	e2 f7       	brpl	.-8      	; 0x10ba <dcf_decode+0x1f2>
    10c2:	c0 ff       	sbrs	r28, 0
    10c4:	0c c0       	rjmp	.+24     	; 0x10de <dcf_decode+0x216>
    10c6:	83 30       	cpi	r24, 0x03	; 3
    10c8:	50 f4       	brcc	.+20     	; 0x10de <dcf_decode+0x216>
		{
			time.wDay |= (0x01 << k);
    10ca:	77 81       	ldd	r23, Z+7	; 0x07
    10cc:	9a 01       	movw	r18, r20
    10ce:	06 2e       	mov	r0, r22
    10d0:	02 c0       	rjmp	.+4      	; 0x10d6 <dcf_decode+0x20e>
    10d2:	22 0f       	add	r18, r18
    10d4:	33 1f       	adc	r19, r19
    10d6:	0a 94       	dec	r0
    10d8:	e2 f7       	brpl	.-8      	; 0x10d2 <dcf_decode+0x20a>
    10da:	27 2b       	or	r18, r23
    10dc:	27 83       	std	Z+7, r18	; 0x07
    10de:	9c 01       	movw	r18, r24
    10e0:	23 5d       	subi	r18, 0xD3	; 211
    10e2:	3f 4f       	sbci	r19, 0xFF	; 255
		}
		/*Monat*/
		if( dcf_data[(DCF_M+k)/8] & (0x01 << ((DCF_M+k) % 8)) )
    10e4:	d9 01       	movw	r26, r18
    10e6:	0a f4       	brpl	.+2      	; 0x10ea <dcf_decode+0x222>
    10e8:	17 96       	adiw	r26, 0x07	; 7
    10ea:	b5 95       	asr	r27
    10ec:	a7 95       	ror	r26
    10ee:	b5 95       	asr	r27
    10f0:	a7 95       	ror	r26
    10f2:	b5 95       	asr	r27
    10f4:	a7 95       	ror	r26
    10f6:	a5 53       	subi	r26, 0x35	; 53
    10f8:	bc 4f       	sbci	r27, 0xFC	; 252
    10fa:	ac 91       	ld	r26, X
    10fc:	b0 e0       	ldi	r27, 0x00	; 0
    10fe:	27 70       	andi	r18, 0x07	; 7
    1100:	30 78       	andi	r19, 0x80	; 128
    1102:	33 23       	and	r19, r19
    1104:	34 f4       	brge	.+12     	; 0x1112 <dcf_decode+0x24a>
    1106:	21 50       	subi	r18, 0x01	; 1
    1108:	31 09       	sbc	r19, r1
    110a:	28 6f       	ori	r18, 0xF8	; 248
    110c:	3f 6f       	ori	r19, 0xFF	; 255
    110e:	2f 5f       	subi	r18, 0xFF	; 255
    1110:	3f 4f       	sbci	r19, 0xFF	; 255
    1112:	8d 01       	movw	r16, r26
    1114:	02 c0       	rjmp	.+4      	; 0x111a <dcf_decode+0x252>
    1116:	15 95       	asr	r17
    1118:	07 95       	ror	r16
    111a:	2a 95       	dec	r18
    111c:	e2 f7       	brpl	.-8      	; 0x1116 <dcf_decode+0x24e>
    111e:	00 ff       	sbrs	r16, 0
    1120:	0a c0       	rjmp	.+20     	; 0x1136 <dcf_decode+0x26e>
		{
			time.Month |= (0x01 << k);
    1122:	71 81       	ldd	r23, Z+1	; 0x01
    1124:	9a 01       	movw	r18, r20
    1126:	06 2e       	mov	r0, r22
    1128:	02 c0       	rjmp	.+4      	; 0x112e <dcf_decode+0x266>
    112a:	22 0f       	add	r18, r18
    112c:	33 1f       	adc	r19, r19
    112e:	0a 94       	dec	r0
    1130:	e2 f7       	brpl	.-8      	; 0x112a <dcf_decode+0x262>
    1132:	27 2b       	or	r18, r23
    1134:	21 83       	std	Z+1, r18	; 0x01
    1136:	9c 01       	movw	r18, r24
    1138:	2e 5c       	subi	r18, 0xCE	; 206
    113a:	3f 4f       	sbci	r19, 0xFF	; 255
		}
		/*Jahr*/
		if( dcf_data[(DCF_J+k)/8] & (0x01 << ((DCF_J+k) % 8)) )
    113c:	d9 01       	movw	r26, r18
    113e:	0a f4       	brpl	.+2      	; 0x1142 <dcf_decode+0x27a>
    1140:	17 96       	adiw	r26, 0x07	; 7
    1142:	b5 95       	asr	r27
    1144:	a7 95       	ror	r26
    1146:	b5 95       	asr	r27
    1148:	a7 95       	ror	r26
    114a:	b5 95       	asr	r27
    114c:	a7 95       	ror	r26
    114e:	a5 53       	subi	r26, 0x35	; 53
    1150:	bc 4f       	sbci	r27, 0xFC	; 252
    1152:	ac 91       	ld	r26, X
    1154:	b0 e0       	ldi	r27, 0x00	; 0
    1156:	27 70       	andi	r18, 0x07	; 7
    1158:	30 78       	andi	r19, 0x80	; 128
    115a:	33 23       	and	r19, r19
    115c:	34 f4       	brge	.+12     	; 0x116a <dcf_decode+0x2a2>
    115e:	21 50       	subi	r18, 0x01	; 1
    1160:	31 09       	sbc	r19, r1
    1162:	28 6f       	ori	r18, 0xF8	; 248
    1164:	3f 6f       	ori	r19, 0xFF	; 255
    1166:	2f 5f       	subi	r18, 0xFF	; 255
    1168:	3f 4f       	sbci	r19, 0xFF	; 255
    116a:	ed 01       	movw	r28, r26
    116c:	02 c0       	rjmp	.+4      	; 0x1172 <dcf_decode+0x2aa>
    116e:	d5 95       	asr	r29
    1170:	c7 95       	ror	r28
    1172:	2a 95       	dec	r18
    1174:	e2 f7       	brpl	.-8      	; 0x116e <dcf_decode+0x2a6>
    1176:	c0 ff       	sbrs	r28, 0
    1178:	0c c0       	rjmp	.+24     	; 0x1192 <dcf_decode+0x2ca>
		{
			time.Year |= (0x01 << k);
    117a:	22 81       	ldd	r18, Z+2	; 0x02
    117c:	33 81       	ldd	r19, Z+3	; 0x03
    117e:	8a 01       	movw	r16, r20
    1180:	02 c0       	rjmp	.+4      	; 0x1186 <dcf_decode+0x2be>
    1182:	00 0f       	add	r16, r16
    1184:	11 1f       	adc	r17, r17
    1186:	6a 95       	dec	r22
    1188:	e2 f7       	brpl	.-8      	; 0x1182 <dcf_decode+0x2ba>
    118a:	20 2b       	or	r18, r16
    118c:	31 2b       	or	r19, r17
    118e:	33 83       	std	Z+3, r19	; 0x03
    1190:	22 83       	std	Z+2, r18	; 0x02
    1192:	01 96       	adiw	r24, 0x01	; 1
	time.wDay = 0;
	time.Month = 0;
	time.Year = 0;

	/*Zusammenrechnen der Einer-Stellen*/
	for(k=0; k<4; k++)
    1194:	84 30       	cpi	r24, 0x04	; 4
    1196:	91 05       	cpc	r25, r1
    1198:	09 f0       	breq	.+2      	; 0x119c <dcf_decode+0x2d4>
    119a:	ee ce       	rjmp	.-548    	; 0xf78 <dcf_decode+0xb0>
    119c:	48 e2       	ldi	r20, 0x28	; 40
    119e:	50 e0       	ldi	r21, 0x00	; 0
    11a0:	20 e0       	ldi	r18, 0x00	; 0
    11a2:	30 e0       	ldi	r19, 0x00	; 0
    11a4:	c4 e0       	ldi	r28, 0x04	; 4
	for(k=4; k<8; k++)
	{
		/*Minute*/
		if( dcf_data[(DCF_MIN+k)/8] & (0x01 << ((DCF_MIN+k) % 8)) && (k < 7) )
		{
			time.Min += (0x0A << (k-4));
    11a6:	ee e6       	ldi	r30, 0x6E	; 110
    11a8:	f0 e0       	ldi	r31, 0x00	; 0
    11aa:	6a e0       	ldi	r22, 0x0A	; 10
    11ac:	70 e0       	ldi	r23, 0x00	; 0
    11ae:	c9 01       	movw	r24, r18
    11b0:	49 96       	adiw	r24, 0x19	; 25

	/*Hinzuaddieren der Zehner-Stellen*/
	for(k=4; k<8; k++)
	{
		/*Minute*/
		if( dcf_data[(DCF_MIN+k)/8] & (0x01 << ((DCF_MIN+k) % 8)) && (k < 7) )
    11b2:	dc 01       	movw	r26, r24
    11b4:	0a f4       	brpl	.+2      	; 0x11b8 <dcf_decode+0x2f0>
    11b6:	17 96       	adiw	r26, 0x07	; 7
    11b8:	b5 95       	asr	r27
    11ba:	a7 95       	ror	r26
    11bc:	b5 95       	asr	r27
    11be:	a7 95       	ror	r26
    11c0:	b5 95       	asr	r27
    11c2:	a7 95       	ror	r26
    11c4:	a5 53       	subi	r26, 0x35	; 53
    11c6:	bc 4f       	sbci	r27, 0xFC	; 252
    11c8:	ac 91       	ld	r26, X
    11ca:	b0 e0       	ldi	r27, 0x00	; 0
    11cc:	87 70       	andi	r24, 0x07	; 7
    11ce:	90 78       	andi	r25, 0x80	; 128
    11d0:	99 23       	and	r25, r25
    11d2:	24 f4       	brge	.+8      	; 0x11dc <dcf_decode+0x314>
    11d4:	01 97       	sbiw	r24, 0x01	; 1
    11d6:	88 6f       	ori	r24, 0xF8	; 248
    11d8:	9f 6f       	ori	r25, 0xFF	; 255
    11da:	01 96       	adiw	r24, 0x01	; 1
    11dc:	8d 01       	movw	r16, r26
    11de:	02 c0       	rjmp	.+4      	; 0x11e4 <dcf_decode+0x31c>
    11e0:	15 95       	asr	r17
    11e2:	07 95       	ror	r16
    11e4:	8a 95       	dec	r24
    11e6:	e2 f7       	brpl	.-8      	; 0x11e0 <dcf_decode+0x318>
    11e8:	00 ff       	sbrs	r16, 0
    11ea:	0c c0       	rjmp	.+24     	; 0x1204 <dcf_decode+0x33c>
    11ec:	c7 30       	cpi	r28, 0x07	; 7
    11ee:	50 f4       	brcc	.+20     	; 0x1204 <dcf_decode+0x33c>
		{
			time.Min += (0x0A << (k-4));
    11f0:	a5 81       	ldd	r26, Z+5	; 0x05
    11f2:	cb 01       	movw	r24, r22
    11f4:	02 2e       	mov	r0, r18
    11f6:	02 c0       	rjmp	.+4      	; 0x11fc <dcf_decode+0x334>
    11f8:	88 0f       	add	r24, r24
    11fa:	99 1f       	adc	r25, r25
    11fc:	0a 94       	dec	r0
    11fe:	e2 f7       	brpl	.-8      	; 0x11f8 <dcf_decode+0x330>
    1200:	8a 0f       	add	r24, r26
    1202:	85 83       	std	Z+5, r24	; 0x05
    1204:	c9 01       	movw	r24, r18
    1206:	81 96       	adiw	r24, 0x21	; 33
		}
		/*Stunde*/
		if( dcf_data[(DCF_STD+k)/8] & (0x01 << ((DCF_STD+k) % 8)) && (k < 6) )
    1208:	dc 01       	movw	r26, r24
    120a:	0a f4       	brpl	.+2      	; 0x120e <dcf_decode+0x346>
    120c:	17 96       	adiw	r26, 0x07	; 7
    120e:	b5 95       	asr	r27
    1210:	a7 95       	ror	r26
    1212:	b5 95       	asr	r27
    1214:	a7 95       	ror	r26
    1216:	b5 95       	asr	r27
    1218:	a7 95       	ror	r26
    121a:	a5 53       	subi	r26, 0x35	; 53
    121c:	bc 4f       	sbci	r27, 0xFC	; 252
    121e:	ac 91       	ld	r26, X
    1220:	b0 e0       	ldi	r27, 0x00	; 0
    1222:	87 70       	andi	r24, 0x07	; 7
    1224:	90 78       	andi	r25, 0x80	; 128
    1226:	99 23       	and	r25, r25
    1228:	24 f4       	brge	.+8      	; 0x1232 <dcf_decode+0x36a>
    122a:	01 97       	sbiw	r24, 0x01	; 1
    122c:	88 6f       	ori	r24, 0xF8	; 248
    122e:	9f 6f       	ori	r25, 0xFF	; 255
    1230:	01 96       	adiw	r24, 0x01	; 1
    1232:	8d 01       	movw	r16, r26
    1234:	02 c0       	rjmp	.+4      	; 0x123a <dcf_decode+0x372>
    1236:	15 95       	asr	r17
    1238:	07 95       	ror	r16
    123a:	8a 95       	dec	r24
    123c:	e2 f7       	brpl	.-8      	; 0x1236 <dcf_decode+0x36e>
    123e:	00 ff       	sbrs	r16, 0
    1240:	2d c0       	rjmp	.+90     	; 0x129c <dcf_decode+0x3d4>
    1242:	c6 30       	cpi	r28, 0x06	; 6
    1244:	08 f0       	brcs	.+2      	; 0x1248 <dcf_decode+0x380>
    1246:	d1 c0       	rjmp	.+418    	; 0x13ea <dcf_decode+0x522>
		{
			time.Hour += (0x0A << (k-4));
    1248:	a4 81       	ldd	r26, Z+4	; 0x04
    124a:	cb 01       	movw	r24, r22
    124c:	02 2e       	mov	r0, r18
    124e:	02 c0       	rjmp	.+4      	; 0x1254 <dcf_decode+0x38c>
    1250:	88 0f       	add	r24, r24
    1252:	99 1f       	adc	r25, r25
    1254:	0a 94       	dec	r0
    1256:	e2 f7       	brpl	.-8      	; 0x1250 <dcf_decode+0x388>
    1258:	8a 0f       	add	r24, r26
    125a:	84 83       	std	Z+4, r24	; 0x04
		}
		/*Tag*/
		if( dcf_data[(DCF_KT+k)/8] & (0x01 << ((DCF_KT+k) % 8)) && (k < 6) )
    125c:	ca 01       	movw	r24, r20
    125e:	da 01       	movw	r26, r20
    1260:	55 23       	and	r21, r21
    1262:	0c f4       	brge	.+2      	; 0x1266 <dcf_decode+0x39e>
    1264:	17 96       	adiw	r26, 0x07	; 7
    1266:	b5 95       	asr	r27
    1268:	a7 95       	ror	r26
    126a:	b5 95       	asr	r27
    126c:	a7 95       	ror	r26
    126e:	b5 95       	asr	r27
    1270:	a7 95       	ror	r26
    1272:	a5 53       	subi	r26, 0x35	; 53
    1274:	bc 4f       	sbci	r27, 0xFC	; 252
    1276:	ac 91       	ld	r26, X
    1278:	b0 e0       	ldi	r27, 0x00	; 0
    127a:	87 70       	andi	r24, 0x07	; 7
    127c:	90 78       	andi	r25, 0x80	; 128
    127e:	99 23       	and	r25, r25
    1280:	24 f4       	brge	.+8      	; 0x128a <dcf_decode+0x3c2>
    1282:	01 97       	sbiw	r24, 0x01	; 1
    1284:	88 6f       	ori	r24, 0xF8	; 248
    1286:	9f 6f       	ori	r25, 0xFF	; 255
    1288:	01 96       	adiw	r24, 0x01	; 1
    128a:	8d 01       	movw	r16, r26
    128c:	02 c0       	rjmp	.+4      	; 0x1292 <dcf_decode+0x3ca>
    128e:	15 95       	asr	r17
    1290:	07 95       	ror	r16
    1292:	8a 95       	dec	r24
    1294:	e2 f7       	brpl	.-8      	; 0x128e <dcf_decode+0x3c6>
    1296:	00 fd       	sbrc	r16, 0
    1298:	22 c0       	rjmp	.+68     	; 0x12de <dcf_decode+0x416>
    129a:	2b c0       	rjmp	.+86     	; 0x12f2 <dcf_decode+0x42a>
    129c:	ca 01       	movw	r24, r20
    129e:	da 01       	movw	r26, r20
    12a0:	55 23       	and	r21, r21
    12a2:	0c f4       	brge	.+2      	; 0x12a6 <dcf_decode+0x3de>
    12a4:	17 96       	adiw	r26, 0x07	; 7
    12a6:	b5 95       	asr	r27
    12a8:	a7 95       	ror	r26
    12aa:	b5 95       	asr	r27
    12ac:	a7 95       	ror	r26
    12ae:	b5 95       	asr	r27
    12b0:	a7 95       	ror	r26
    12b2:	a5 53       	subi	r26, 0x35	; 53
    12b4:	bc 4f       	sbci	r27, 0xFC	; 252
    12b6:	ac 91       	ld	r26, X
    12b8:	b0 e0       	ldi	r27, 0x00	; 0
    12ba:	87 70       	andi	r24, 0x07	; 7
    12bc:	90 78       	andi	r25, 0x80	; 128
    12be:	99 23       	and	r25, r25
    12c0:	24 f4       	brge	.+8      	; 0x12ca <dcf_decode+0x402>
    12c2:	01 97       	sbiw	r24, 0x01	; 1
    12c4:	88 6f       	ori	r24, 0xF8	; 248
    12c6:	9f 6f       	ori	r25, 0xFF	; 255
    12c8:	01 96       	adiw	r24, 0x01	; 1
    12ca:	8d 01       	movw	r16, r26
    12cc:	02 c0       	rjmp	.+4      	; 0x12d2 <dcf_decode+0x40a>
    12ce:	15 95       	asr	r17
    12d0:	07 95       	ror	r16
    12d2:	8a 95       	dec	r24
    12d4:	e2 f7       	brpl	.-8      	; 0x12ce <dcf_decode+0x406>
    12d6:	00 ff       	sbrs	r16, 0
    12d8:	0c c0       	rjmp	.+24     	; 0x12f2 <dcf_decode+0x42a>
    12da:	c6 30       	cpi	r28, 0x06	; 6
    12dc:	50 f4       	brcc	.+20     	; 0x12f2 <dcf_decode+0x42a>
		{
			time.Day += (0x0A << (k-4));
    12de:	a0 81       	ld	r26, Z
    12e0:	cb 01       	movw	r24, r22
    12e2:	02 2e       	mov	r0, r18
    12e4:	02 c0       	rjmp	.+4      	; 0x12ea <dcf_decode+0x422>
    12e6:	88 0f       	add	r24, r24
    12e8:	99 1f       	adc	r25, r25
    12ea:	0a 94       	dec	r0
    12ec:	e2 f7       	brpl	.-8      	; 0x12e6 <dcf_decode+0x41e>
    12ee:	8a 0f       	add	r24, r26
    12f0:	80 83       	st	Z, r24
    12f2:	c9 01       	movw	r24, r18
    12f4:	c1 96       	adiw	r24, 0x31	; 49
		}
		/*Monat*/
		if( dcf_data[(DCF_M+k)/8] & (0x01 << ((DCF_M+k) % 8)) && (k == 4) )
    12f6:	dc 01       	movw	r26, r24
    12f8:	0a f4       	brpl	.+2      	; 0x12fc <dcf_decode+0x434>
    12fa:	17 96       	adiw	r26, 0x07	; 7
    12fc:	b5 95       	asr	r27
    12fe:	a7 95       	ror	r26
    1300:	b5 95       	asr	r27
    1302:	a7 95       	ror	r26
    1304:	b5 95       	asr	r27
    1306:	a7 95       	ror	r26
    1308:	a5 53       	subi	r26, 0x35	; 53
    130a:	bc 4f       	sbci	r27, 0xFC	; 252
    130c:	ac 91       	ld	r26, X
    130e:	b0 e0       	ldi	r27, 0x00	; 0
    1310:	87 70       	andi	r24, 0x07	; 7
    1312:	90 78       	andi	r25, 0x80	; 128
    1314:	99 23       	and	r25, r25
    1316:	24 f4       	brge	.+8      	; 0x1320 <dcf_decode+0x458>
    1318:	01 97       	sbiw	r24, 0x01	; 1
    131a:	88 6f       	ori	r24, 0xF8	; 248
    131c:	9f 6f       	ori	r25, 0xFF	; 255
    131e:	01 96       	adiw	r24, 0x01	; 1
    1320:	8d 01       	movw	r16, r26
    1322:	02 c0       	rjmp	.+4      	; 0x1328 <dcf_decode+0x460>
    1324:	15 95       	asr	r17
    1326:	07 95       	ror	r16
    1328:	8a 95       	dec	r24
    132a:	e2 f7       	brpl	.-8      	; 0x1324 <dcf_decode+0x45c>
    132c:	00 ff       	sbrs	r16, 0
    132e:	0c c0       	rjmp	.+24     	; 0x1348 <dcf_decode+0x480>
    1330:	c4 30       	cpi	r28, 0x04	; 4
    1332:	51 f4       	brne	.+20     	; 0x1348 <dcf_decode+0x480>
		{
			time.Month += (0x0A << (k-4));
    1334:	a1 81       	ldd	r26, Z+1	; 0x01
    1336:	cb 01       	movw	r24, r22
    1338:	02 2e       	mov	r0, r18
    133a:	02 c0       	rjmp	.+4      	; 0x1340 <dcf_decode+0x478>
    133c:	88 0f       	add	r24, r24
    133e:	99 1f       	adc	r25, r25
    1340:	0a 94       	dec	r0
    1342:	e2 f7       	brpl	.-8      	; 0x133c <dcf_decode+0x474>
    1344:	8a 0f       	add	r24, r26
    1346:	81 83       	std	Z+1, r24	; 0x01
    1348:	c9 01       	movw	r24, r18
    134a:	c6 96       	adiw	r24, 0x36	; 54
		}
		/*Jahr*/
		if( dcf_data[(DCF_J+k)/8] & (0x01 << ((DCF_J+k) % 8)) )
    134c:	dc 01       	movw	r26, r24
    134e:	0a f4       	brpl	.+2      	; 0x1352 <dcf_decode+0x48a>
    1350:	17 96       	adiw	r26, 0x07	; 7
    1352:	b5 95       	asr	r27
    1354:	a7 95       	ror	r26
    1356:	b5 95       	asr	r27
    1358:	a7 95       	ror	r26
    135a:	b5 95       	asr	r27
    135c:	a7 95       	ror	r26
    135e:	a5 53       	subi	r26, 0x35	; 53
    1360:	bc 4f       	sbci	r27, 0xFC	; 252
    1362:	ac 91       	ld	r26, X
    1364:	b0 e0       	ldi	r27, 0x00	; 0
    1366:	87 70       	andi	r24, 0x07	; 7
    1368:	90 78       	andi	r25, 0x80	; 128
    136a:	99 23       	and	r25, r25
    136c:	24 f4       	brge	.+8      	; 0x1376 <dcf_decode+0x4ae>
    136e:	01 97       	sbiw	r24, 0x01	; 1
    1370:	88 6f       	ori	r24, 0xF8	; 248
    1372:	9f 6f       	ori	r25, 0xFF	; 255
    1374:	01 96       	adiw	r24, 0x01	; 1
    1376:	8d 01       	movw	r16, r26
    1378:	02 c0       	rjmp	.+4      	; 0x137e <dcf_decode+0x4b6>
    137a:	15 95       	asr	r17
    137c:	07 95       	ror	r16
    137e:	8a 95       	dec	r24
    1380:	e2 f7       	brpl	.-8      	; 0x137a <dcf_decode+0x4b2>
    1382:	00 ff       	sbrs	r16, 0
    1384:	0d c0       	rjmp	.+26     	; 0x13a0 <dcf_decode+0x4d8>
		{
			time.Year += (0x0A << (k-4));
    1386:	82 81       	ldd	r24, Z+2	; 0x02
    1388:	93 81       	ldd	r25, Z+3	; 0x03
    138a:	db 01       	movw	r26, r22
    138c:	02 2e       	mov	r0, r18
    138e:	02 c0       	rjmp	.+4      	; 0x1394 <dcf_decode+0x4cc>
    1390:	aa 0f       	add	r26, r26
    1392:	bb 1f       	adc	r27, r27
    1394:	0a 94       	dec	r0
    1396:	e2 f7       	brpl	.-8      	; 0x1390 <dcf_decode+0x4c8>
    1398:	8a 0f       	add	r24, r26
    139a:	9b 1f       	adc	r25, r27
    139c:	93 83       	std	Z+3, r25	; 0x03
    139e:	82 83       	std	Z+2, r24	; 0x02
			time.Year |= (0x01 << k);
		}
	}

	/*Hinzuaddieren der Zehner-Stellen*/
	for(k=4; k<8; k++)
    13a0:	cf 5f       	subi	r28, 0xFF	; 255
    13a2:	2f 5f       	subi	r18, 0xFF	; 255
    13a4:	3f 4f       	sbci	r19, 0xFF	; 255
    13a6:	4f 5f       	subi	r20, 0xFF	; 255
    13a8:	5f 4f       	sbci	r21, 0xFF	; 255
    13aa:	c8 30       	cpi	r28, 0x08	; 8
    13ac:	09 f0       	breq	.+2      	; 0x13b0 <dcf_decode+0x4e8>
    13ae:	ff ce       	rjmp	.-514    	; 0x11ae <dcf_decode+0x2e6>
			time.Year += (0x0A << (k-4));
		}
	}

	/*Die Information des Jahres erfolgt ber DCF77 zweistellig*/
	time.Year += 2000;
    13b0:	ee e6       	ldi	r30, 0x6E	; 110
    13b2:	f0 e0       	ldi	r31, 0x00	; 0
    13b4:	82 81       	ldd	r24, Z+2	; 0x02
    13b6:	93 81       	ldd	r25, Z+3	; 0x03
    13b8:	80 53       	subi	r24, 0x30	; 48
    13ba:	98 4f       	sbci	r25, 0xF8	; 248
    13bc:	93 83       	std	Z+3, r25	; 0x03
    13be:	82 83       	std	Z+2, r24	; 0x02

	/*Sommer-/Winterzeit*/
	if( dcf_data[2] & 0x02 )
    13c0:	80 91 cd 03 	lds	r24, 0x03CD	; 0x8003cd <dcf_data+0x2>
    13c4:	81 ff       	sbrs	r24, 1
    13c6:	04 c0       	rjmp	.+8      	; 0x13d0 <dcf_decode+0x508>
	{
		time.stime = MESZ;
    13c8:	81 e0       	ldi	r24, 0x01	; 1
    13ca:	80 93 76 00 	sts	0x0076, r24	; 0x800076 <time+0x8>
    13ce:	1c c0       	rjmp	.+56     	; 0x1408 <dcf_decode+0x540>
	}
	else
	{
		time.stime = MEZ;
    13d0:	10 92 76 00 	sts	0x0076, r1	; 0x800076 <time+0x8>
	}

	/*Erfolg melden*/
	return true;
    13d4:	81 e0       	ldi	r24, 0x01	; 1
    13d6:	18 c0       	rjmp	.+48     	; 0x1408 <dcf_decode+0x540>
	}
	
	if( par % 2 )
	{
		/*Fehlgeschlagen*/
		return false;
    13d8:	80 e0       	ldi	r24, 0x00	; 0
    13da:	16 c0       	rjmp	.+44     	; 0x1408 <dcf_decode+0x540>
	}

	if( par % 2 )
	{
		/*Fehlgeschlagen*/
		return false;
    13dc:	80 e0       	ldi	r24, 0x00	; 0
    13de:	14 c0       	rjmp	.+40     	; 0x1408 <dcf_decode+0x540>
	}

	if( par % 2 )
	{
		/*Fehlgeschlagen*/
		return false;
    13e0:	80 e0       	ldi	r24, 0x00	; 0
    13e2:	12 c0       	rjmp	.+36     	; 0x1408 <dcf_decode+0x540>
		{
			par++;
		}
	}

	if( par % 2 )
    13e4:	90 ff       	sbrs	r25, 0
    13e6:	a3 cd       	rjmp	.-1210   	; 0xf2e <dcf_decode+0x66>
    13e8:	fb cf       	rjmp	.-10     	; 0x13e0 <dcf_decode+0x518>
		if( dcf_data[(DCF_STD+k)/8] & (0x01 << ((DCF_STD+k) % 8)) && (k < 6) )
		{
			time.Hour += (0x0A << (k-4));
		}
		/*Tag*/
		if( dcf_data[(DCF_KT+k)/8] & (0x01 << ((DCF_KT+k) % 8)) && (k < 6) )
    13ea:	ca 01       	movw	r24, r20
    13ec:	55 23       	and	r21, r21
    13ee:	0c f4       	brge	.+2      	; 0x13f2 <dcf_decode+0x52a>
    13f0:	07 96       	adiw	r24, 0x07	; 7
    13f2:	95 95       	asr	r25
    13f4:	87 95       	ror	r24
    13f6:	95 95       	asr	r25
    13f8:	87 95       	ror	r24
    13fa:	95 95       	asr	r25
    13fc:	87 95       	ror	r24
    13fe:	dc 01       	movw	r26, r24
    1400:	a5 53       	subi	r26, 0x35	; 53
    1402:	bc 4f       	sbci	r27, 0xFC	; 252
    1404:	8c 91       	ld	r24, X
    1406:	75 cf       	rjmp	.-278    	; 0x12f2 <dcf_decode+0x42a>
		time.stime = MEZ;
	}

	/*Erfolg melden*/
	return true;
}
    1408:	df 91       	pop	r29
    140a:	cf 91       	pop	r28
    140c:	1f 91       	pop	r17
    140e:	0f 91       	pop	r16
    1410:	08 95       	ret

00001412 <dcf_check>:
	/*Zur Messung der DCF77 Puls-/Pausenlnge*/
	static uint16_t dcf_cntL = 0;
	static uint16_t dcf_cntH = 0;

	/* berwachung des Signals */
	if( DCF77_DATA )
    1412:	b2 99       	sbic	0x16, 2	; 22
    1414:	20 c0       	rjmp	.+64     	; 0x1456 <dcf_check+0x44>
	{
		/* >1500 ms low? */
		if( dcf_cntL > 1500 )
    1416:	80 91 c8 03 	lds	r24, 0x03C8	; 0x8003c8 <dcf_cntL.1875>
    141a:	90 91 c9 03 	lds	r25, 0x03C9	; 0x8003c9 <dcf_cntL.1875+0x1>
    141e:	8d 3d       	cpi	r24, 0xDD	; 221
    1420:	95 40       	sbci	r25, 0x05	; 5
    1422:	58 f0       	brcs	.+22     	; 0x143a <dcf_check+0x28>
		{
			dcf_available	= true;
    1424:	81 e0       	ldi	r24, 0x01	; 1
    1426:	80 93 10 04 	sts	0x0410, r24	; 0x800410 <dcf_available>
			dcf_value		= DCF_START;
    142a:	83 e0       	ldi	r24, 0x03	; 3
    142c:	80 93 0a 04 	sts	0x040A, r24	; 0x80040a <dcf_value>
			dcf_cntL		= 0;
    1430:	10 92 c9 03 	sts	0x03C9, r1	; 0x8003c9 <dcf_cntL.1875+0x1>
    1434:	10 92 c8 03 	sts	0x03C8, r1	; 0x8003c8 <dcf_cntL.1875>
    1438:	04 c0       	rjmp	.+8      	; 0x1442 <dcf_check+0x30>
		}
		/* Strimpuls */
		else
		{
			dcf_cntL = 0;
    143a:	10 92 c9 03 	sts	0x03C9, r1	; 0x8003c9 <dcf_cntL.1875+0x1>
    143e:	10 92 c8 03 	sts	0x03C8, r1	; 0x8003c8 <dcf_cntL.1875>
		}

		/*High-Counter*/
		dcf_cntH++;
    1442:	80 91 c6 03 	lds	r24, 0x03C6	; 0x8003c6 <__data_end>
    1446:	90 91 c7 03 	lds	r25, 0x03C7	; 0x8003c7 <__data_end+0x1>
    144a:	01 96       	adiw	r24, 0x01	; 1
    144c:	90 93 c7 03 	sts	0x03C7, r25	; 0x8003c7 <__data_end+0x1>
    1450:	80 93 c6 03 	sts	0x03C6, r24	; 0x8003c6 <__data_end>
    1454:	2b c0       	rjmp	.+86     	; 0x14ac <dcf_check+0x9a>
	}
	else
	{
		/* >180 ms high? */
		if( dcf_cntH > 180 )
    1456:	80 91 c6 03 	lds	r24, 0x03C6	; 0x8003c6 <__data_end>
    145a:	90 91 c7 03 	lds	r25, 0x03C7	; 0x8003c7 <__data_end+0x1>
    145e:	85 3b       	cpi	r24, 0xB5	; 181
    1460:	91 05       	cpc	r25, r1
    1462:	50 f0       	brcs	.+20     	; 0x1478 <dcf_check+0x66>
		{
			dcf_available	= true;
    1464:	81 e0       	ldi	r24, 0x01	; 1
    1466:	80 93 10 04 	sts	0x0410, r24	; 0x800410 <dcf_available>
			dcf_value		= DCF_HIGH;
    146a:	80 93 0a 04 	sts	0x040A, r24	; 0x80040a <dcf_value>
			dcf_cntH		= 0;
    146e:	10 92 c7 03 	sts	0x03C7, r1	; 0x8003c7 <__data_end+0x1>
    1472:	10 92 c6 03 	sts	0x03C6, r1	; 0x8003c6 <__data_end>
    1476:	11 c0       	rjmp	.+34     	; 0x149a <dcf_check+0x88>
		}
		/* >80 ms high? */
		else if( dcf_cntH > 80 )
    1478:	81 35       	cpi	r24, 0x51	; 81
    147a:	91 05       	cpc	r25, r1
    147c:	50 f0       	brcs	.+20     	; 0x1492 <dcf_check+0x80>
		{
			dcf_available	= true;
    147e:	81 e0       	ldi	r24, 0x01	; 1
    1480:	80 93 10 04 	sts	0x0410, r24	; 0x800410 <dcf_available>
			dcf_value		= DCF_LOW;
    1484:	10 92 0a 04 	sts	0x040A, r1	; 0x80040a <dcf_value>
			dcf_cntH		= 0;
    1488:	10 92 c7 03 	sts	0x03C7, r1	; 0x8003c7 <__data_end+0x1>
    148c:	10 92 c6 03 	sts	0x03C6, r1	; 0x8003c6 <__data_end>
    1490:	04 c0       	rjmp	.+8      	; 0x149a <dcf_check+0x88>
		}
		/* Strimpuls */
		else
		{
			dcf_cntH = 0;
    1492:	10 92 c7 03 	sts	0x03C7, r1	; 0x8003c7 <__data_end+0x1>
    1496:	10 92 c6 03 	sts	0x03C6, r1	; 0x8003c6 <__data_end>
		}

		/*Low-Counter*/
		dcf_cntL++;
    149a:	80 91 c8 03 	lds	r24, 0x03C8	; 0x8003c8 <dcf_cntL.1875>
    149e:	90 91 c9 03 	lds	r25, 0x03C9	; 0x8003c9 <dcf_cntL.1875+0x1>
    14a2:	01 96       	adiw	r24, 0x01	; 1
    14a4:	90 93 c9 03 	sts	0x03C9, r25	; 0x8003c9 <dcf_cntL.1875+0x1>
    14a8:	80 93 c8 03 	sts	0x03C8, r24	; 0x8003c8 <dcf_cntL.1875>
    }
    

    /*Luft eine Aufnahme?*/
    if( dcf_running() )
    14ac:	0e 94 f9 06 	call	0xdf2	; 0xdf2 <dcf_running>
    14b0:	88 23       	and	r24, r24
    14b2:	a1 f0       	breq	.+40     	; 0x14dc <dcf_check+0xca>
    {
        /*Wurden alle Bits empfangen?*/
        if( dcf_collect() )
    14b4:	0e 94 0d 07 	call	0xe1a	; 0xe1a <dcf_collect>
    14b8:	88 23       	and	r24, r24
    14ba:	81 f0       	breq	.+32     	; 0x14dc <dcf_check+0xca>
        {
            /*Erfolgreich dekodiert?*/
            if( dcf_decode() )
    14bc:	0e 94 64 07 	call	0xec8	; 0xec8 <dcf_decode>
    14c0:	88 23       	and	r24, r24
    14c2:	41 f0       	breq	.+16     	; 0x14d4 <dcf_check+0xc2>
            {
				dcfNewData			= true;
    14c4:	81 e0       	ldi	r24, 0x01	; 1
    14c6:	80 93 0b 04 	sts	0x040B, r24	; 0x80040b <dcfNewData>
				dcf77ScanIsActive	= false;
    14ca:	10 92 08 04 	sts	0x0408, r1	; 0x800408 <dcf77ScanIsActive>
				
               
			    // Abgleich fertig!
                syncDCF = false;
    14ce:	10 92 09 04 	sts	0x0409, r1	; 0x800409 <syncDCF>
    14d2:	08 95       	ret
            }
			
            /*Abgleich fehlgeschlagen*/
            else
            {
				dcfNewData = false;				
    14d4:	10 92 0b 04 	sts	0x040B, r1	; 0x80040b <dcfNewData>
                // Abgleich fertig!
                syncDCF = false;
    14d8:	10 92 09 04 	sts	0x0409, r1	; 0x800409 <syncDCF>
    14dc:	08 95       	ret

000014de <delay_ms>:
// delay_ms(...):
// delays a given number of milliseconds
void delay_ms(uint16_t ms) {
  //_delay_ms(ms);
  uint16_t i;
  for(i=0; i<ms; i++)
    14de:	00 97       	sbiw	r24, 0x00	; 0
    14e0:	b1 f4       	brne	.+44     	; 0x150e <delay_ms+0x30>
    14e2:	08 95       	ret
	...
    NOP;
    NOP;
    NOP;
    NOP;
    NOP;
    NOP;
    14fc:	21 50       	subi	r18, 0x01	; 1
    14fe:	31 09       	sbc	r19, r1
// delay_us(...):
// delays a given number of microseconds
inline void delay_us(uint16_t us) {
  //_delay_us(us);
  uint16_t i;
  for(i=0; i<us; i++) {
    1500:	89 f7       	brne	.-30     	; 0x14e4 <delay_ms+0x6>
// delay_ms(...):
// delays a given number of milliseconds
void delay_ms(uint16_t ms) {
  //_delay_ms(ms);
  uint16_t i;
  for(i=0; i<ms; i++)
    1502:	4f 5f       	subi	r20, 0xFF	; 255
    1504:	5f 4f       	sbci	r21, 0xFF	; 255
    1506:	84 17       	cp	r24, r20
    1508:	95 07       	cpc	r25, r21
    150a:	19 f4       	brne	.+6      	; 0x1512 <delay_ms+0x34>
    150c:	08 95       	ret
    150e:	40 e0       	ldi	r20, 0x00	; 0
    1510:	50 e0       	ldi	r21, 0x00	; 0
  }
}

// delay_ms(...):
// delays a given number of milliseconds
void delay_ms(uint16_t ms) {
    1512:	28 ee       	ldi	r18, 0xE8	; 232
    1514:	33 e0       	ldi	r19, 0x03	; 3
    1516:	e6 cf       	rjmp	.-52     	; 0x14e4 <delay_ms+0x6>

00001518 <ht1632c_chipselect>:
    ht1632c_chipselect();  // Select chip
    ht1632c_send_to_display(0b101, 1<<2);  // send 3 bits to identify as data write
    ht1632c_send_to_display(address, 1<<6); // Send memory address
    ht1632c_send_to_display(data, 1<<3); // send nibble of data
    ht1632c_chipfree(); // Release chip
}
    1518:	dd 98       	cbi	0x1b, 5	; 27
    151a:	08 95       	ret

0000151c <ht1632c_chipfree>:
    151c:	dd 9a       	sbi	0x1b, 5	; 27
    151e:	08 95       	ret

00001520 <ht1632c_send_to_display>:
    1520:	66 23       	and	r22, r22
    1522:	51 f0       	breq	.+20     	; 0x1538 <ht1632c_send_to_display+0x18>
    1524:	db 98       	cbi	0x1b, 3	; 27
    1526:	98 2f       	mov	r25, r24
    1528:	96 23       	and	r25, r22
    152a:	11 f0       	breq	.+4      	; 0x1530 <ht1632c_send_to_display+0x10>
    152c:	da 9a       	sbi	0x1b, 2	; 27
    152e:	01 c0       	rjmp	.+2      	; 0x1532 <ht1632c_send_to_display+0x12>
    1530:	da 98       	cbi	0x1b, 2	; 27
    1532:	db 9a       	sbi	0x1b, 3	; 27
    1534:	66 95       	lsr	r22
    1536:	b1 f7       	brne	.-20     	; 0x1524 <ht1632c_send_to_display+0x4>
    1538:	08 95       	ret

0000153a <ht1632c_send_page>:
    153a:	cf 93       	push	r28
    153c:	df 93       	push	r29
    153e:	0e 94 8c 0a 	call	0x1518	; 0x1518 <ht1632c_chipselect>
    1542:	64 e0       	ldi	r22, 0x04	; 4
    1544:	85 e0       	ldi	r24, 0x05	; 5
    1546:	0e 94 90 0a 	call	0x1520	; 0x1520 <ht1632c_send_to_display>
    154a:	60 e4       	ldi	r22, 0x40	; 64
    154c:	80 e0       	ldi	r24, 0x00	; 0
    154e:	0e 94 90 0a 	call	0x1520	; 0x1520 <ht1632c_send_to_display>
    1552:	c0 e0       	ldi	r28, 0x00	; 0
    1554:	d0 e0       	ldi	r29, 0x00	; 0
    1556:	fe 01       	movw	r30, r28
    1558:	ef 5e       	subi	r30, 0xEF	; 239
    155a:	fb 4f       	sbci	r31, 0xFB	; 251
    155c:	80 81       	ld	r24, Z
    155e:	68 e0       	ldi	r22, 0x08	; 8
    1560:	0e 94 90 0a 	call	0x1520	; 0x1520 <ht1632c_send_to_display>
    1564:	21 96       	adiw	r28, 0x01	; 1
    1566:	c0 34       	cpi	r28, 0x40	; 64
    1568:	d1 05       	cpc	r29, r1
    156a:	a9 f7       	brne	.-22     	; 0x1556 <ht1632c_send_page+0x1c>
    156c:	0e 94 8e 0a 	call	0x151c	; 0x151c <ht1632c_chipfree>
    1570:	df 91       	pop	r29
    1572:	cf 91       	pop	r28
    1574:	08 95       	ret

00001576 <ht1632cSendCmd>:
    1576:	cf 93       	push	r28
    1578:	c8 2f       	mov	r28, r24
    157a:	0e 94 8c 0a 	call	0x1518	; 0x1518 <ht1632c_chipselect>
    157e:	64 e0       	ldi	r22, 0x04	; 4
    1580:	84 e0       	ldi	r24, 0x04	; 4
    1582:	0e 94 90 0a 	call	0x1520	; 0x1520 <ht1632c_send_to_display>
    1586:	60 e8       	ldi	r22, 0x80	; 128
    1588:	8c 2f       	mov	r24, r28
    158a:	0e 94 90 0a 	call	0x1520	; 0x1520 <ht1632c_send_to_display>
    158e:	61 e0       	ldi	r22, 0x01	; 1
    1590:	81 e0       	ldi	r24, 0x01	; 1
    1592:	0e 94 90 0a 	call	0x1520	; 0x1520 <ht1632c_send_to_display>
    1596:	0e 94 8e 0a 	call	0x151c	; 0x151c <ht1632c_chipfree>
    159a:	cf 91       	pop	r28
    159c:	08 95       	ret

0000159e <ht1632c_init>:
    159e:	ef 92       	push	r14
    15a0:	ff 92       	push	r15
    15a2:	0f 93       	push	r16
    15a4:	1f 93       	push	r17
    15a6:	cf 93       	push	r28
    15a8:	df 93       	push	r29
    15aa:	00 d0       	rcall	.+0      	; 0x15ac <ht1632c_init+0xe>
    15ac:	00 d0       	rcall	.+0      	; 0x15ae <ht1632c_init+0x10>
    15ae:	00 d0       	rcall	.+0      	; 0x15b0 <ht1632c_init+0x12>
    15b0:	cd b7       	in	r28, 0x3d	; 61
    15b2:	de b7       	in	r29, 0x3e	; 62
    15b4:	d5 9a       	sbi	0x1a, 5	; 26
    15b6:	dd 9a       	sbi	0x1b, 5	; 27
    15b8:	d3 9a       	sbi	0x1a, 3	; 26
    15ba:	d2 9a       	sbi	0x1a, 2	; 26
    15bc:	91 e0       	ldi	r25, 0x01	; 1
    15be:	99 83       	std	Y+1, r25	; 0x01
    15c0:	93 e0       	ldi	r25, 0x03	; 3
    15c2:	9a 83       	std	Y+2, r25	; 0x02
    15c4:	98 e0       	ldi	r25, 0x08	; 8
    15c6:	9b 83       	std	Y+3, r25	; 0x03
    15c8:	98 e1       	ldi	r25, 0x18	; 24
    15ca:	9c 83       	std	Y+4, r25	; 0x04
    15cc:	90 e2       	ldi	r25, 0x20	; 32
    15ce:	9d 83       	std	Y+5, r25	; 0x05
    15d0:	8e 83       	std	Y+6, r24	; 0x06
    15d2:	8e 01       	movw	r16, r28
    15d4:	0f 5f       	subi	r16, 0xFF	; 255
    15d6:	1f 4f       	sbci	r17, 0xFF	; 255
    15d8:	7e 01       	movw	r14, r28
    15da:	87 e0       	ldi	r24, 0x07	; 7
    15dc:	e8 0e       	add	r14, r24
    15de:	f1 1c       	adc	r15, r1
    15e0:	f8 01       	movw	r30, r16
    15e2:	81 91       	ld	r24, Z+
    15e4:	8f 01       	movw	r16, r30
    15e6:	0e 94 bb 0a 	call	0x1576	; 0x1576 <ht1632cSendCmd>
    15ea:	0e 15       	cp	r16, r14
    15ec:	1f 05       	cpc	r17, r15
    15ee:	c1 f7       	brne	.-16     	; 0x15e0 <ht1632c_init+0x42>
    15f0:	26 96       	adiw	r28, 0x06	; 6
    15f2:	0f b6       	in	r0, 0x3f	; 63
    15f4:	f8 94       	cli
    15f6:	de bf       	out	0x3e, r29	; 62
    15f8:	0f be       	out	0x3f, r0	; 63
    15fa:	cd bf       	out	0x3d, r28	; 61
    15fc:	df 91       	pop	r29
    15fe:	cf 91       	pop	r28
    1600:	1f 91       	pop	r17
    1602:	0f 91       	pop	r16
    1604:	ff 90       	pop	r15
    1606:	ef 90       	pop	r14
    1608:	08 95       	ret

0000160a <ht1632c_get>:
uint8_t ht1632c_get(uint8_t x, uint8_t y)
{
    uint8_t bitval;
    int addr;

    if ((x < 0) || (y < 0) || (x > (COLS-1)) || (y > (ROWS-1))) 
    160a:	80 32       	cpi	r24, 0x20	; 32
    160c:	40 f5       	brcc	.+80     	; 0x165e <ht1632c_get+0x54>
    160e:	68 30       	cpi	r22, 0x08	; 8
    1610:	40 f5       	brcc	.+80     	; 0x1662 <ht1632c_get+0x58>
	{
      return 0;
    }
 
    bitval = 8>>(x&3);  // compute which bit will need set (Will equal 1, 2, 4, or 8)
    addr = ((x>>3)<<4)+(y<<1)+((x&4)>>2);  // compute which memory word this is in
    1612:	98 2f       	mov	r25, r24
    1614:	96 95       	lsr	r25
    1616:	96 95       	lsr	r25
    1618:	96 95       	lsr	r25
    161a:	70 e0       	ldi	r23, 0x00	; 0
    161c:	66 0f       	add	r22, r22
    161e:	77 1f       	adc	r23, r23
    1620:	20 e1       	ldi	r18, 0x10	; 16
    1622:	92 9f       	mul	r25, r18
    1624:	60 0d       	add	r22, r0
    1626:	71 1d       	adc	r23, r1
    1628:	11 24       	eor	r1, r1
    162a:	82 fb       	bst	r24, 2
    162c:	22 27       	eor	r18, r18
    162e:	20 f9       	bld	r18, 0
    1630:	30 e0       	ldi	r19, 0x00	; 0
    1632:	62 0f       	add	r22, r18
    1634:	73 1f       	adc	r23, r19
  
    if((ht1632_shadowram[addr] & bitval) != 0) 
    1636:	fb 01       	movw	r30, r22
    1638:	ef 5e       	subi	r30, 0xEF	; 239
    163a:	fb 4f       	sbci	r31, 0xFB	; 251
    163c:	40 81       	ld	r20, Z
    uint8_t bitval;
    int addr;

    if ((x < 0) || (y < 0) || (x > (COLS-1)) || (y > (ROWS-1))) 
	{
      return 0;
    163e:	83 70       	andi	r24, 0x03	; 3
    1640:	28 e0       	ldi	r18, 0x08	; 8
    1642:	30 e0       	ldi	r19, 0x00	; 0
    1644:	b9 01       	movw	r22, r18
    1646:	02 c0       	rjmp	.+4      	; 0x164c <ht1632c_get+0x42>
    1648:	75 95       	asr	r23
    164a:	67 95       	ror	r22
    164c:	8a 95       	dec	r24
    164e:	e2 f7       	brpl	.-8      	; 0x1648 <ht1632c_get+0x3e>
    1650:	cb 01       	movw	r24, r22
    1652:	94 2f       	mov	r25, r20
    1654:	98 23       	and	r25, r24
    1656:	81 e0       	ldi	r24, 0x01	; 1
    1658:	29 f4       	brne	.+10     	; 0x1664 <ht1632c_get+0x5a>
    165a:	80 e0       	ldi	r24, 0x00	; 0
    165c:	08 95       	ret
    165e:	80 e0       	ldi	r24, 0x00	; 0
    1660:	08 95       	ret
    1662:	80 e0       	ldi	r24, 0x00	; 0
    } 
	else 
	{
      return 0;
    }
 }
    1664:	08 95       	ret

00001666 <ht1632c_set>:
void ht1632c_set(uint8_t x, uint8_t y, uint8_t val)
{
    uint8_t bitval;
    int addr;

    if ((x < 0) || (y < 0) || (x > 31) || (y > 7)) 
    1666:	80 32       	cpi	r24, 0x20	; 32
    1668:	68 f5       	brcc	.+90     	; 0x16c4 <ht1632c_set+0x5e>
    166a:	68 30       	cpi	r22, 0x08	; 8
    166c:	58 f5       	brcc	.+86     	; 0x16c4 <ht1632c_set+0x5e>
	{
      return;
    }
    bitval = 8>>(x&3);  // compute which bit will need set (Will equal 1, 2, 4, or 8)
    166e:	98 2f       	mov	r25, r24
    1670:	93 70       	andi	r25, 0x03	; 3
    1672:	e8 e0       	ldi	r30, 0x08	; 8
    1674:	f0 e0       	ldi	r31, 0x00	; 0
    1676:	02 c0       	rjmp	.+4      	; 0x167c <ht1632c_set+0x16>
    1678:	f5 95       	asr	r31
    167a:	e7 95       	ror	r30
    167c:	9a 95       	dec	r25
    167e:	e2 f7       	brpl	.-8      	; 0x1678 <ht1632c_set+0x12>
    addr = ((x>>3)<<4)+(y<<1)+((x&4)>>2);  // compute which memory word this is in
    1680:	98 2f       	mov	r25, r24
    1682:	96 95       	lsr	r25
    1684:	96 95       	lsr	r25
    1686:	96 95       	lsr	r25
    1688:	70 e0       	ldi	r23, 0x00	; 0
    168a:	66 0f       	add	r22, r22
    168c:	77 1f       	adc	r23, r23
    168e:	20 e1       	ldi	r18, 0x10	; 16
    1690:	92 9f       	mul	r25, r18
    1692:	60 0d       	add	r22, r0
    1694:	71 1d       	adc	r23, r1
    1696:	11 24       	eor	r1, r1
    1698:	82 fb       	bst	r24, 2
    169a:	22 27       	eor	r18, r18
    169c:	20 f9       	bld	r18, 0
    169e:	30 e0       	ldi	r19, 0x00	; 0
    16a0:	62 0f       	add	r22, r18
    16a2:	73 1f       	adc	r23, r19
  
    if (val) // Modify the shadow memory
    16a4:	44 23       	and	r20, r20
    16a6:	39 f0       	breq	.+14     	; 0x16b6 <ht1632c_set+0x50>
	{  
      ht1632_shadowram[addr] |= bitval;
    16a8:	db 01       	movw	r26, r22
    16aa:	af 5e       	subi	r26, 0xEF	; 239
    16ac:	bb 4f       	sbci	r27, 0xFB	; 251
    16ae:	8c 91       	ld	r24, X
    16b0:	e8 2b       	or	r30, r24
    16b2:	ec 93       	st	X, r30
    16b4:	08 95       	ret
    }
    else 
	{
      ht1632_shadowram[addr] &= ~bitval;
    16b6:	db 01       	movw	r26, r22
    16b8:	af 5e       	subi	r26, 0xEF	; 239
    16ba:	bb 4f       	sbci	r27, 0xFB	; 251
    16bc:	8c 91       	ld	r24, X
    16be:	e0 95       	com	r30
    16c0:	e8 23       	and	r30, r24
    16c2:	ec 93       	st	X, r30
    16c4:	08 95       	ret

000016c6 <rtcBcdToDec>:
}                   

uint16_t				rtcGetDays				( const uint16_t year )							
{
  return ( rtcIsLeapYear( year ) ) ? 366 : 365;
}                   
    16c6:	98 2f       	mov	r25, r24
    16c8:	92 95       	swap	r25
    16ca:	9f 70       	andi	r25, 0x0F	; 15
    16cc:	99 0f       	add	r25, r25
    16ce:	29 2f       	mov	r18, r25
    16d0:	22 0f       	add	r18, r18
    16d2:	22 0f       	add	r18, r18
    16d4:	92 0f       	add	r25, r18
    16d6:	8f 70       	andi	r24, 0x0F	; 15
    16d8:	89 0f       	add	r24, r25
    16da:	08 95       	ret

000016dc <rtcSetTime>:
    16dc:	0f 93       	push	r16
    16de:	1f 93       	push	r17
    16e0:	cf 93       	push	r28
    16e2:	df 93       	push	r29
    16e4:	e3 ed       	ldi	r30, 0xD3	; 211
    16e6:	f3 e0       	ldi	r31, 0x03	; 3
    16e8:	92 e0       	ldi	r25, 0x02	; 2
    16ea:	90 83       	st	Z, r25
    16ec:	9d ec       	ldi	r25, 0xCD	; 205
    16ee:	49 9f       	mul	r20, r25
    16f0:	21 2d       	mov	r18, r1
    16f2:	11 24       	eor	r1, r1
    16f4:	26 95       	lsr	r18
    16f6:	26 95       	lsr	r18
    16f8:	26 95       	lsr	r18
    16fa:	30 e1       	ldi	r19, 0x10	; 16
    16fc:	23 9f       	mul	r18, r19
    16fe:	d0 01       	movw	r26, r0
    1700:	11 24       	eor	r1, r1
    1702:	22 0f       	add	r18, r18
    1704:	32 2f       	mov	r19, r18
    1706:	33 0f       	add	r19, r19
    1708:	33 0f       	add	r19, r19
    170a:	23 0f       	add	r18, r19
    170c:	42 1b       	sub	r20, r18
    170e:	4a 2b       	or	r20, r26
    1710:	41 83       	std	Z+1, r20	; 0x01
    1712:	69 9f       	mul	r22, r25
    1714:	21 2d       	mov	r18, r1
    1716:	11 24       	eor	r1, r1
    1718:	26 95       	lsr	r18
    171a:	26 95       	lsr	r18
    171c:	26 95       	lsr	r18
    171e:	30 e1       	ldi	r19, 0x10	; 16
    1720:	23 9f       	mul	r18, r19
    1722:	a0 01       	movw	r20, r0
    1724:	11 24       	eor	r1, r1
    1726:	22 0f       	add	r18, r18
    1728:	32 2f       	mov	r19, r18
    172a:	33 0f       	add	r19, r19
    172c:	33 0f       	add	r19, r19
    172e:	23 0f       	add	r18, r19
    1730:	62 1b       	sub	r22, r18
    1732:	64 2b       	or	r22, r20
    1734:	62 83       	std	Z+2, r22	; 0x02
    1736:	89 9f       	mul	r24, r25
    1738:	91 2d       	mov	r25, r1
    173a:	11 24       	eor	r1, r1
    173c:	96 95       	lsr	r25
    173e:	96 95       	lsr	r25
    1740:	96 95       	lsr	r25
    1742:	40 e1       	ldi	r20, 0x10	; 16
    1744:	94 9f       	mul	r25, r20
    1746:	90 01       	movw	r18, r0
    1748:	11 24       	eor	r1, r1
    174a:	99 0f       	add	r25, r25
    174c:	39 2f       	mov	r19, r25
    174e:	33 0f       	add	r19, r19
    1750:	33 0f       	add	r19, r19
    1752:	93 0f       	add	r25, r19
    1754:	89 1b       	sub	r24, r25
    1756:	82 2b       	or	r24, r18
    1758:	83 83       	std	Z+3, r24	; 0x03
    175a:	82 ea       	ldi	r24, 0xA2	; 162
    175c:	0e 94 dc 01 	call	0x3b8	; 0x3b8 <i2c_start_wait>
    1760:	c3 ed       	ldi	r28, 0xD3	; 211
    1762:	d3 e0       	ldi	r29, 0x03	; 3
    1764:	0e ed       	ldi	r16, 0xDE	; 222
    1766:	13 e0       	ldi	r17, 0x03	; 3
    1768:	89 91       	ld	r24, Y+
    176a:	0e 94 ee 01 	call	0x3dc	; 0x3dc <i2c_write>
    176e:	c0 17       	cp	r28, r16
    1770:	d1 07       	cpc	r29, r17
    1772:	d1 f7       	brne	.-12     	; 0x1768 <rtcSetTime+0x8c>
    1774:	0e 94 e6 01 	call	0x3cc	; 0x3cc <i2c_stop>
    1778:	df 91       	pop	r29
    177a:	cf 91       	pop	r28
    177c:	1f 91       	pop	r17
    177e:	0f 91       	pop	r16
    1780:	08 95       	ret

00001782 <rtcSetDate>:
    1782:	0f 93       	push	r16
    1784:	1f 93       	push	r17
    1786:	cf 93       	push	r28
    1788:	df 93       	push	r29
    178a:	e3 ed       	ldi	r30, 0xD3	; 211
    178c:	f3 e0       	ldi	r31, 0x03	; 3
    178e:	95 e0       	ldi	r25, 0x05	; 5
    1790:	90 83       	st	Z, r25
    1792:	9d ec       	ldi	r25, 0xCD	; 205
    1794:	89 9f       	mul	r24, r25
    1796:	31 2d       	mov	r19, r1
    1798:	11 24       	eor	r1, r1
    179a:	36 95       	lsr	r19
    179c:	36 95       	lsr	r19
    179e:	36 95       	lsr	r19
    17a0:	50 e1       	ldi	r21, 0x10	; 16
    17a2:	35 9f       	mul	r19, r21
    17a4:	d0 01       	movw	r26, r0
    17a6:	11 24       	eor	r1, r1
    17a8:	33 0f       	add	r19, r19
    17aa:	53 2f       	mov	r21, r19
    17ac:	55 0f       	add	r21, r21
    17ae:	55 0f       	add	r21, r21
    17b0:	35 0f       	add	r19, r21
    17b2:	83 1b       	sub	r24, r19
    17b4:	8a 2b       	or	r24, r26
    17b6:	81 83       	std	Z+1, r24	; 0x01
    17b8:	69 9f       	mul	r22, r25
    17ba:	81 2d       	mov	r24, r1
    17bc:	11 24       	eor	r1, r1
    17be:	86 95       	lsr	r24
    17c0:	86 95       	lsr	r24
    17c2:	86 95       	lsr	r24
    17c4:	30 e1       	ldi	r19, 0x10	; 16
    17c6:	83 9f       	mul	r24, r19
    17c8:	d0 01       	movw	r26, r0
    17ca:	11 24       	eor	r1, r1
    17cc:	88 0f       	add	r24, r24
    17ce:	38 2f       	mov	r19, r24
    17d0:	33 0f       	add	r19, r19
    17d2:	33 0f       	add	r19, r19
    17d4:	83 0f       	add	r24, r19
    17d6:	68 1b       	sub	r22, r24
    17d8:	6a 2b       	or	r22, r26
    17da:	62 83       	std	Z+2, r22	; 0x02
    17dc:	49 9f       	mul	r20, r25
    17de:	81 2d       	mov	r24, r1
    17e0:	11 24       	eor	r1, r1
    17e2:	86 95       	lsr	r24
    17e4:	86 95       	lsr	r24
    17e6:	86 95       	lsr	r24
    17e8:	50 e1       	ldi	r21, 0x10	; 16
    17ea:	85 9f       	mul	r24, r21
    17ec:	b0 01       	movw	r22, r0
    17ee:	11 24       	eor	r1, r1
    17f0:	88 0f       	add	r24, r24
    17f2:	38 2f       	mov	r19, r24
    17f4:	33 0f       	add	r19, r19
    17f6:	33 0f       	add	r19, r19
    17f8:	83 0f       	add	r24, r19
    17fa:	48 1b       	sub	r20, r24
    17fc:	46 2b       	or	r20, r22
    17fe:	43 83       	std	Z+3, r20	; 0x03
    1800:	20 5d       	subi	r18, 0xD0	; 208
    1802:	29 9f       	mul	r18, r25
    1804:	91 2d       	mov	r25, r1
    1806:	11 24       	eor	r1, r1
    1808:	96 95       	lsr	r25
    180a:	96 95       	lsr	r25
    180c:	96 95       	lsr	r25
    180e:	80 e1       	ldi	r24, 0x10	; 16
    1810:	98 9f       	mul	r25, r24
    1812:	a0 01       	movw	r20, r0
    1814:	11 24       	eor	r1, r1
    1816:	99 0f       	add	r25, r25
    1818:	89 2f       	mov	r24, r25
    181a:	88 0f       	add	r24, r24
    181c:	88 0f       	add	r24, r24
    181e:	98 0f       	add	r25, r24
    1820:	29 1b       	sub	r18, r25
    1822:	24 2b       	or	r18, r20
    1824:	24 83       	std	Z+4, r18	; 0x04
    1826:	82 ea       	ldi	r24, 0xA2	; 162
    1828:	0e 94 dc 01 	call	0x3b8	; 0x3b8 <i2c_start_wait>
    182c:	c3 ed       	ldi	r28, 0xD3	; 211
    182e:	d3 e0       	ldi	r29, 0x03	; 3
    1830:	0e ed       	ldi	r16, 0xDE	; 222
    1832:	13 e0       	ldi	r17, 0x03	; 3
    1834:	89 91       	ld	r24, Y+
    1836:	0e 94 ee 01 	call	0x3dc	; 0x3dc <i2c_write>
    183a:	c0 17       	cp	r28, r16
    183c:	d1 07       	cpc	r29, r17
    183e:	d1 f7       	brne	.-12     	; 0x1834 <rtcSetDate+0xb2>
    1840:	0e 94 e6 01 	call	0x3cc	; 0x3cc <i2c_stop>
    1844:	df 91       	pop	r29
    1846:	cf 91       	pop	r28
    1848:	1f 91       	pop	r17
    184a:	0f 91       	pop	r16
    184c:	08 95       	ret

0000184e <rtcGetData>:
    184e:	ef 92       	push	r14
    1850:	ff 92       	push	r15
    1852:	0f 93       	push	r16
    1854:	1f 93       	push	r17
    1856:	cf 93       	push	r28
    1858:	df 93       	push	r29
    185a:	8c 01       	movw	r16, r24
    185c:	c3 ed       	ldi	r28, 0xD3	; 211
    185e:	d3 e0       	ldi	r29, 0x03	; 3
    1860:	82 e0       	ldi	r24, 0x02	; 2
    1862:	88 83       	st	Y, r24
    1864:	82 ea       	ldi	r24, 0xA2	; 162
    1866:	0e 94 ce 01 	call	0x39c	; 0x39c <i2c_start>
    186a:	88 81       	ld	r24, Y
    186c:	0e 94 ee 01 	call	0x3dc	; 0x3dc <i2c_write>
    1870:	83 ea       	ldi	r24, 0xA3	; 163
    1872:	0e 94 d2 01 	call	0x3a4	; 0x3a4 <i2c_rep_start>
    1876:	88 23       	and	r24, r24
    1878:	19 f0       	breq	.+6      	; 0x1880 <rtcGetData+0x32>
    187a:	0e 94 e6 01 	call	0x3cc	; 0x3cc <i2c_stop>
    187e:	14 c0       	rjmp	.+40     	; 0x18a8 <rtcGetData+0x5a>
    1880:	c3 ed       	ldi	r28, 0xD3	; 211
    1882:	d3 e0       	ldi	r29, 0x03	; 3
    1884:	0f 2e       	mov	r0, r31
    1886:	fe ed       	ldi	r31, 0xDE	; 222
    1888:	ef 2e       	mov	r14, r31
    188a:	f3 e0       	ldi	r31, 0x03	; 3
    188c:	ff 2e       	mov	r15, r31
    188e:	f0 2d       	mov	r31, r0
    1890:	0e 94 0c 02 	call	0x418	; 0x418 <i2c_readAck>
    1894:	89 93       	st	Y+, r24
    1896:	ce 15       	cp	r28, r14
    1898:	df 05       	cpc	r29, r15
    189a:	d1 f7       	brne	.-12     	; 0x1890 <rtcGetData+0x42>
    189c:	0e 94 0a 02 	call	0x414	; 0x414 <i2c_readNak>
    18a0:	80 93 de 03 	sts	0x03DE, r24	; 0x8003de <newHourDelay.3736>
    18a4:	0e 94 e6 01 	call	0x3cc	; 0x3cc <i2c_stop>
    18a8:	e3 ed       	ldi	r30, 0xD3	; 211
    18aa:	f3 e0       	ldi	r31, 0x03	; 3
    18ac:	a0 81       	ld	r26, Z
    18ae:	e8 01       	movw	r28, r16
    18b0:	a8 83       	st	Y, r26
    18b2:	71 81       	ldd	r23, Z+1	; 0x01
    18b4:	79 83       	std	Y+1, r23	; 0x01
    18b6:	62 81       	ldd	r22, Z+2	; 0x02
    18b8:	6a 83       	std	Y+2, r22	; 0x02
    18ba:	53 81       	ldd	r21, Z+3	; 0x03
    18bc:	5c 83       	std	Y+4, r21	; 0x04
    18be:	34 81       	ldd	r19, Z+4	; 0x04
    18c0:	3d 83       	std	Y+5, r19	; 0x05
    18c2:	45 81       	ldd	r20, Z+5	; 0x05
    18c4:	4b 83       	std	Y+3, r20	; 0x03
    18c6:	86 81       	ldd	r24, Z+6	; 0x06
    18c8:	90 e0       	ldi	r25, 0x00	; 0
    18ca:	9f 83       	std	Y+7, r25	; 0x07
    18cc:	8e 83       	std	Y+6, r24	; 0x06
    18ce:	27 81       	ldd	r18, Z+7	; 0x07
    18d0:	28 87       	std	Y+8, r18	; 0x08
    18d2:	90 85       	ldd	r25, Z+8	; 0x08
    18d4:	99 87       	std	Y+9, r25	; 0x09
    18d6:	81 85       	ldd	r24, Z+9	; 0x09
    18d8:	8a 87       	std	Y+10, r24	; 0x0a
    18da:	e2 85       	ldd	r30, Z+10	; 0x0a
    18dc:	af 77       	andi	r26, 0x7F	; 127
    18de:	a8 83       	st	Y, r26
    18e0:	7f 77       	andi	r23, 0x7F	; 127
    18e2:	79 83       	std	Y+1, r23	; 0x01
    18e4:	6f 73       	andi	r22, 0x3F	; 63
    18e6:	6a 83       	std	Y+2, r22	; 0x02
    18e8:	5f 73       	andi	r21, 0x3F	; 63
    18ea:	5c 83       	std	Y+4, r21	; 0x04
    18ec:	4f 71       	andi	r20, 0x1F	; 31
    18ee:	4b 83       	std	Y+3, r20	; 0x03
    18f0:	37 70       	andi	r19, 0x07	; 7
    18f2:	3d 83       	std	Y+5, r19	; 0x05
    18f4:	2f 77       	andi	r18, 0x7F	; 127
    18f6:	28 87       	std	Y+8, r18	; 0x08
    18f8:	9f 77       	andi	r25, 0x7F	; 127
    18fa:	99 87       	std	Y+9, r25	; 0x09
    18fc:	8f 77       	andi	r24, 0x7F	; 127
    18fe:	8a 87       	std	Y+10, r24	; 0x0a
    1900:	8e 2f       	mov	r24, r30
    1902:	8f 77       	andi	r24, 0x7F	; 127
    1904:	8b 87       	std	Y+11, r24	; 0x0b
    1906:	df 91       	pop	r29
    1908:	cf 91       	pop	r28
    190a:	1f 91       	pop	r17
    190c:	0f 91       	pop	r16
    190e:	ff 90       	pop	r15
    1910:	ef 90       	pop	r14
    1912:	08 95       	ret

00001914 <rtcIsLeapYear>:
    1914:	ac 01       	movw	r20, r24
    1916:	9c 01       	movw	r18, r24
    1918:	32 95       	swap	r19
    191a:	22 95       	swap	r18
    191c:	2f 70       	andi	r18, 0x0F	; 15
    191e:	23 27       	eor	r18, r19
    1920:	3f 70       	andi	r19, 0x0F	; 15
    1922:	23 27       	eor	r18, r19
    1924:	ae e3       	ldi	r26, 0x3E	; 62
    1926:	ba e0       	ldi	r27, 0x0A	; 10
    1928:	0e 94 3c 26 	call	0x4c78	; 0x4c78 <__umulhisi3>
    192c:	20 e9       	ldi	r18, 0x90	; 144
    192e:	31 e0       	ldi	r19, 0x01	; 1
    1930:	bc 01       	movw	r22, r24
    1932:	62 9f       	mul	r22, r18
    1934:	c0 01       	movw	r24, r0
    1936:	63 9f       	mul	r22, r19
    1938:	90 0d       	add	r25, r0
    193a:	72 9f       	mul	r23, r18
    193c:	90 0d       	add	r25, r0
    193e:	11 24       	eor	r1, r1
    1940:	48 17       	cp	r20, r24
    1942:	59 07       	cpc	r21, r25
    1944:	d9 f0       	breq	.+54     	; 0x197c <rtcIsLeapYear+0x68>
    1946:	9a 01       	movw	r18, r20
    1948:	36 95       	lsr	r19
    194a:	27 95       	ror	r18
    194c:	36 95       	lsr	r19
    194e:	27 95       	ror	r18
    1950:	ab e7       	ldi	r26, 0x7B	; 123
    1952:	b4 e1       	ldi	r27, 0x14	; 20
    1954:	0e 94 3c 26 	call	0x4c78	; 0x4c78 <__umulhisi3>
    1958:	96 95       	lsr	r25
    195a:	87 95       	ror	r24
    195c:	64 e6       	ldi	r22, 0x64	; 100
    195e:	68 9f       	mul	r22, r24
    1960:	90 01       	movw	r18, r0
    1962:	69 9f       	mul	r22, r25
    1964:	30 0d       	add	r19, r0
    1966:	11 24       	eor	r1, r1
    1968:	42 17       	cp	r20, r18
    196a:	53 07       	cpc	r21, r19
    196c:	49 f0       	breq	.+18     	; 0x1980 <rtcIsLeapYear+0x6c>
    196e:	43 70       	andi	r20, 0x03	; 3
    1970:	55 27       	eor	r21, r21
    1972:	81 e0       	ldi	r24, 0x01	; 1
    1974:	45 2b       	or	r20, r21
    1976:	29 f0       	breq	.+10     	; 0x1982 <rtcIsLeapYear+0x6e>
    1978:	80 e0       	ldi	r24, 0x00	; 0
    197a:	08 95       	ret
    197c:	81 e0       	ldi	r24, 0x01	; 1
    197e:	08 95       	ret
    1980:	80 e0       	ldi	r24, 0x00	; 0
    1982:	08 95       	ret

00001984 <rtcGetNumOfDayAtMonth>:
    1984:	cf 93       	push	r28
    1986:	df 93       	push	r29
    1988:	cd b7       	in	r28, 0x3d	; 61
    198a:	de b7       	in	r29, 0x3e	; 62
    198c:	2d 97       	sbiw	r28, 0x0d	; 13
    198e:	0f b6       	in	r0, 0x3f	; 63
    1990:	f8 94       	cli
    1992:	de bf       	out	0x3e, r29	; 62
    1994:	0f be       	out	0x3f, r0	; 63
    1996:	cd bf       	out	0x3d, r28	; 61
    1998:	9d e0       	ldi	r25, 0x0D	; 13
    199a:	e7 e1       	ldi	r30, 0x17	; 23
    199c:	f1 e0       	ldi	r31, 0x01	; 1
    199e:	de 01       	movw	r26, r28
    19a0:	11 96       	adiw	r26, 0x01	; 1
    19a2:	01 90       	ld	r0, Z+
    19a4:	0d 92       	st	X+, r0
    19a6:	9a 95       	dec	r25
    19a8:	e1 f7       	brne	.-8      	; 0x19a2 <rtcGetNumOfDayAtMonth+0x1e>
    19aa:	82 30       	cpi	r24, 0x02	; 2
    19ac:	41 f4       	brne	.+16     	; 0x19be <rtcGetNumOfDayAtMonth+0x3a>
    19ae:	cb 01       	movw	r24, r22
    19b0:	0e 94 8a 0c 	call	0x1914	; 0x1914 <rtcIsLeapYear>
    19b4:	81 11       	cpse	r24, r1
    19b6:	0d c0       	rjmp	.+26     	; 0x19d2 <rtcGetNumOfDayAtMonth+0x4e>
    19b8:	8c e1       	ldi	r24, 0x1C	; 28
    19ba:	90 e0       	ldi	r25, 0x00	; 0
    19bc:	0f c0       	rjmp	.+30     	; 0x19dc <rtcGetNumOfDayAtMonth+0x58>
    19be:	9f ef       	ldi	r25, 0xFF	; 255
    19c0:	98 0f       	add	r25, r24
    19c2:	9c 30       	cpi	r25, 0x0C	; 12
    19c4:	48 f4       	brcc	.+18     	; 0x19d8 <rtcGetNumOfDayAtMonth+0x54>
    19c6:	fe 01       	movw	r30, r28
    19c8:	e8 0f       	add	r30, r24
    19ca:	f1 1d       	adc	r31, r1
    19cc:	81 81       	ldd	r24, Z+1	; 0x01
    19ce:	90 e0       	ldi	r25, 0x00	; 0
    19d0:	05 c0       	rjmp	.+10     	; 0x19dc <rtcGetNumOfDayAtMonth+0x58>
    19d2:	8d e1       	ldi	r24, 0x1D	; 29
    19d4:	90 e0       	ldi	r25, 0x00	; 0
    19d6:	02 c0       	rjmp	.+4      	; 0x19dc <rtcGetNumOfDayAtMonth+0x58>
    19d8:	80 e0       	ldi	r24, 0x00	; 0
    19da:	90 e0       	ldi	r25, 0x00	; 0
    19dc:	2d 96       	adiw	r28, 0x0d	; 13
    19de:	0f b6       	in	r0, 0x3f	; 63
    19e0:	f8 94       	cli
    19e2:	de bf       	out	0x3e, r29	; 62
    19e4:	0f be       	out	0x3f, r0	; 63
    19e6:	cd bf       	out	0x3d, r28	; 61
    19e8:	df 91       	pop	r29
    19ea:	cf 91       	pop	r28
    19ec:	08 95       	ret

000019ee <rtcGetWeekDay>:

uint16_t				rtcGetWeekDay			( const uint8_t day , const uint8_t month , const uint16_t year )	
{
    19ee:	af 92       	push	r10
    19f0:	bf 92       	push	r11
    19f2:	cf 92       	push	r12
    19f4:	df 92       	push	r13
    19f6:	ef 92       	push	r14
    19f8:	ff 92       	push	r15
    19fa:	0f 93       	push	r16
    19fc:	1f 93       	push	r17
    19fe:	cf 93       	push	r28
    1a00:	df 93       	push	r29
    1a02:	cd b7       	in	r28, 0x3d	; 61
    1a04:	de b7       	in	r29, 0x3e	; 62
    1a06:	2d 97       	sbiw	r28, 0x0d	; 13
    1a08:	0f b6       	in	r0, 0x3f	; 63
    1a0a:	f8 94       	cli
    1a0c:	de bf       	out	0x3e, r29	; 62
    1a0e:	0f be       	out	0x3f, r0	; 63
    1a10:	cd bf       	out	0x3d, r28	; 61
    1a12:	16 2f       	mov	r17, r22
	//                       ungueltig Jan Feb Mrz Apr Mai Jun Jul Aug Sep Okt Nov Dez 
	uint8_t monthOffset[13] = {  0 ,  0 ,  3 ,  3 ,  6 ,  1 ,  4 ,  6 ,  2 ,  5 ,  0 ,  3 ,  5 };
    1a14:	9d e0       	ldi	r25, 0x0D	; 13
    1a16:	e4 e2       	ldi	r30, 0x24	; 36
    1a18:	f1 e0       	ldi	r31, 0x01	; 1
    1a1a:	de 01       	movw	r26, r28
    1a1c:	11 96       	adiw	r26, 0x01	; 1
    1a1e:	01 90       	ld	r0, Z+
    1a20:	0d 92       	st	X+, r0
    1a22:	9a 95       	dec	r25
    1a24:	e1 f7       	brne	.-8      	; 0x1a1e <rtcGetWeekDay+0x30>
	uint16_t result = 0;
	
	
	// Monat / Tag - Plausi pruefen:
	if ( ( day > 31 ) || ( month > 12 ) || ( month <= 0 ) || ( day <= 0 ) || ( year <= 0 ) )
    1a26:	9f ef       	ldi	r25, 0xFF	; 255
    1a28:	96 0f       	add	r25, r22
    1a2a:	9c 30       	cpi	r25, 0x0C	; 12
    1a2c:	08 f0       	brcs	.+2      	; 0x1a30 <rtcGetWeekDay+0x42>
    1a2e:	76 c0       	rjmp	.+236    	; 0x1b1c <rtcGetWeekDay+0x12e>
    1a30:	9f ef       	ldi	r25, 0xFF	; 255
    1a32:	98 0f       	add	r25, r24
    1a34:	9f 31       	cpi	r25, 0x1F	; 31
    1a36:	08 f0       	brcs	.+2      	; 0x1a3a <rtcGetWeekDay+0x4c>
    1a38:	74 c0       	rjmp	.+232    	; 0x1b22 <rtcGetWeekDay+0x134>
    1a3a:	41 15       	cp	r20, r1
    1a3c:	51 05       	cpc	r21, r1
    1a3e:	09 f4       	brne	.+2      	; 0x1a42 <rtcGetWeekDay+0x54>
    1a40:	73 c0       	rjmp	.+230    	; 0x1b28 <rtcGetWeekDay+0x13a>
	{
		return -1;
	}
	
	uint8_t dayDigit 		= ( day % 7 );
    1a42:	05 e2       	ldi	r16, 0x25	; 37
    1a44:	80 9f       	mul	r24, r16
    1a46:	01 2d       	mov	r16, r1
    1a48:	11 24       	eor	r1, r1
    1a4a:	98 2f       	mov	r25, r24
    1a4c:	90 1b       	sub	r25, r16
    1a4e:	96 95       	lsr	r25
    1a50:	09 0f       	add	r16, r25
    1a52:	06 95       	lsr	r16
    1a54:	06 95       	lsr	r16
    1a56:	90 2f       	mov	r25, r16
    1a58:	99 0f       	add	r25, r25
    1a5a:	99 0f       	add	r25, r25
    1a5c:	99 0f       	add	r25, r25
    1a5e:	90 1b       	sub	r25, r16
    1a60:	08 2f       	mov	r16, r24
    1a62:	09 1b       	sub	r16, r25
	uint8_t monthDigit 		= monthOffset[month];
    1a64:	fe 01       	movw	r30, r28
    1a66:	e6 0f       	add	r30, r22
    1a68:	f1 1d       	adc	r31, r1
    1a6a:	d1 80       	ldd	r13, Z+1	; 0x01
	uint8_t yearDigit 		= ( ( year % 100 ) + ( ( year % 100 ) / 4 ) ) % 7;
    1a6c:	5a 01       	movw	r10, r20
    1a6e:	b6 94       	lsr	r11
    1a70:	a7 94       	ror	r10
    1a72:	b6 94       	lsr	r11
    1a74:	a7 94       	ror	r10
    1a76:	95 01       	movw	r18, r10
    1a78:	ab e7       	ldi	r26, 0x7B	; 123
    1a7a:	b4 e1       	ldi	r27, 0x14	; 20
    1a7c:	0e 94 3c 26 	call	0x4c78	; 0x4c78 <__umulhisi3>
    1a80:	96 95       	lsr	r25
    1a82:	87 95       	ror	r24
    1a84:	64 e6       	ldi	r22, 0x64	; 100
    1a86:	68 9f       	mul	r22, r24
    1a88:	90 01       	movw	r18, r0
    1a8a:	69 9f       	mul	r22, r25
    1a8c:	30 0d       	add	r19, r0
    1a8e:	11 24       	eor	r1, r1
    1a90:	ca 01       	movw	r24, r20
    1a92:	82 1b       	sub	r24, r18
    1a94:	93 0b       	sbc	r25, r19
    1a96:	fc 01       	movw	r30, r24
    1a98:	f6 95       	lsr	r31
    1a9a:	e7 95       	ror	r30
    1a9c:	f6 95       	lsr	r31
    1a9e:	e7 95       	ror	r30
    1aa0:	e8 0f       	add	r30, r24
    1aa2:	f9 1f       	adc	r31, r25
    1aa4:	9f 01       	movw	r18, r30
    1aa6:	a3 e9       	ldi	r26, 0x93	; 147
    1aa8:	b4 e2       	ldi	r27, 0x24	; 36
    1aaa:	0e 94 3c 26 	call	0x4c78	; 0x4c78 <__umulhisi3>
    1aae:	28 1b       	sub	r18, r24
    1ab0:	39 0b       	sbc	r19, r25
    1ab2:	36 95       	lsr	r19
    1ab4:	27 95       	ror	r18
    1ab6:	7c 01       	movw	r14, r24
    1ab8:	e2 0e       	add	r14, r18
    1aba:	f3 1e       	adc	r15, r19
    1abc:	f6 94       	lsr	r15
    1abe:	e7 94       	ror	r14
    1ac0:	f6 94       	lsr	r15
    1ac2:	e7 94       	ror	r14
    1ac4:	c7 01       	movw	r24, r14
    1ac6:	88 0f       	add	r24, r24
    1ac8:	99 1f       	adc	r25, r25
    1aca:	88 0f       	add	r24, r24
    1acc:	99 1f       	adc	r25, r25
    1ace:	88 0f       	add	r24, r24
    1ad0:	99 1f       	adc	r25, r25
    1ad2:	8e 19       	sub	r24, r14
    1ad4:	9f 09       	sbc	r25, r15
    1ad6:	7f 01       	movw	r14, r30
    1ad8:	e8 1a       	sub	r14, r24
    1ada:	f9 0a       	sbc	r15, r25
	uint8_t centuryDigit 	= ( 3 - ( ( year / 100 ) % 4 ) ) * 2;
    1adc:	95 01       	movw	r18, r10
    1ade:	ab e7       	ldi	r26, 0x7B	; 123
    1ae0:	b4 e1       	ldi	r27, 0x14	; 20
    1ae2:	0e 94 3c 26 	call	0x4c78	; 0x4c78 <__umulhisi3>
    1ae6:	96 95       	lsr	r25
    1ae8:	87 95       	ror	r24
    1aea:	80 95       	com	r24
    1aec:	90 95       	com	r25
    1aee:	83 70       	andi	r24, 0x03	; 3
    1af0:	c8 2e       	mov	r12, r24
    1af2:	cc 0c       	add	r12, r12
	
	// Schaltjahreskorrektur:
	if ( ( month <= 2 ) && ( rtcIsLeapYear( year ) ) )
    1af4:	13 30       	cpi	r17, 0x03	; 3
    1af6:	28 f4       	brcc	.+10     	; 0x1b02 <rtcGetWeekDay+0x114>
    1af8:	ca 01       	movw	r24, r20
    1afa:	0e 94 8a 0c 	call	0x1914	; 0x1914 <rtcIsLeapYear>
    1afe:	81 11       	cpse	r24, r1
	{
		dayDigit = dayDigit + 6;
    1b00:	0a 5f       	subi	r16, 0xFA	; 250
	}
	
	result = ( dayDigit + monthDigit + yearDigit + centuryDigit ) % 7;
    1b02:	8d 2d       	mov	r24, r13
    1b04:	90 e0       	ldi	r25, 0x00	; 0
    1b06:	80 0f       	add	r24, r16
    1b08:	91 1d       	adc	r25, r1
    1b0a:	8e 0d       	add	r24, r14
    1b0c:	91 1d       	adc	r25, r1
    1b0e:	8c 0d       	add	r24, r12
    1b10:	91 1d       	adc	r25, r1
	// 2 = Dienstag
	// 3 = Mittwoch
	// 4 = Donnerstag
	// 5 = Freitag
	// 6 = Samstag
	return result;
    1b12:	67 e0       	ldi	r22, 0x07	; 7
    1b14:	70 e0       	ldi	r23, 0x00	; 0
    1b16:	0e 94 e7 25 	call	0x4bce	; 0x4bce <__divmodhi4>
    1b1a:	08 c0       	rjmp	.+16     	; 0x1b2c <rtcGetWeekDay+0x13e>
	
	
	// Monat / Tag - Plausi pruefen:
	if ( ( day > 31 ) || ( month > 12 ) || ( month <= 0 ) || ( day <= 0 ) || ( year <= 0 ) )
	{
		return -1;
    1b1c:	8f ef       	ldi	r24, 0xFF	; 255
    1b1e:	9f ef       	ldi	r25, 0xFF	; 255
    1b20:	05 c0       	rjmp	.+10     	; 0x1b2c <rtcGetWeekDay+0x13e>
    1b22:	8f ef       	ldi	r24, 0xFF	; 255
    1b24:	9f ef       	ldi	r25, 0xFF	; 255
    1b26:	02 c0       	rjmp	.+4      	; 0x1b2c <rtcGetWeekDay+0x13e>
    1b28:	8f ef       	ldi	r24, 0xFF	; 255
    1b2a:	9f ef       	ldi	r25, 0xFF	; 255
	// 3 = Mittwoch
	// 4 = Donnerstag
	// 5 = Freitag
	// 6 = Samstag
	return result;
}   
    1b2c:	2d 96       	adiw	r28, 0x0d	; 13
    1b2e:	0f b6       	in	r0, 0x3f	; 63
    1b30:	f8 94       	cli
    1b32:	de bf       	out	0x3e, r29	; 62
    1b34:	0f be       	out	0x3f, r0	; 63
    1b36:	cd bf       	out	0x3d, r28	; 61
    1b38:	df 91       	pop	r29
    1b3a:	cf 91       	pop	r28
    1b3c:	1f 91       	pop	r17
    1b3e:	0f 91       	pop	r16
    1b40:	ff 90       	pop	r15
    1b42:	ef 90       	pop	r14
    1b44:	df 90       	pop	r13
    1b46:	cf 90       	pop	r12
    1b48:	bf 90       	pop	r11
    1b4a:	af 90       	pop	r10
    1b4c:	08 95       	ret

00001b4e <rtcGetDayofYear>:

uint16_t				rtcGetDayofYear			( const uint8_t day , const uint8_t month , const uint16_t year )	
{
    1b4e:	0f 93       	push	r16
    1b50:	1f 93       	push	r17
    1b52:	cf 93       	push	r28
    1b54:	df 93       	push	r29
  // Der wievielte Tag des Jahres ist dieser Tag
  if ( ( month == 0 ) || ( month > 12 ) )
    1b56:	9f ef       	ldi	r25, 0xFF	; 255
    1b58:	96 0f       	add	r25, r22
    1b5a:	9c 30       	cpi	r25, 0x0C	; 12
    1b5c:	90 f4       	brcc	.+36     	; 0x1b82 <rtcGetDayofYear+0x34>
  }

  uint8_t localDay = day;
  uint8_t localMonth = month;

  while ( localMonth > 1 )
    1b5e:	62 30       	cpi	r22, 0x02	; 2
    1b60:	60 f0       	brcs	.+24     	; 0x1b7a <rtcGetDayofYear+0x2c>
    1b62:	8a 01       	movw	r16, r20
    1b64:	c6 2f       	mov	r28, r22
    1b66:	d8 2f       	mov	r29, r24
  {
    localMonth--;
    1b68:	c1 50       	subi	r28, 0x01	; 1
    localDay += rtcGetNumOfDayAtMonth( localMonth , year );
    1b6a:	b8 01       	movw	r22, r16
    1b6c:	8c 2f       	mov	r24, r28
    1b6e:	0e 94 c2 0c 	call	0x1984	; 0x1984 <rtcGetNumOfDayAtMonth>
    1b72:	d8 0f       	add	r29, r24
  }

  uint8_t localDay = day;
  uint8_t localMonth = month;

  while ( localMonth > 1 )
    1b74:	c1 30       	cpi	r28, 0x01	; 1
    1b76:	c1 f7       	brne	.-16     	; 0x1b68 <rtcGetDayofYear+0x1a>
    1b78:	01 c0       	rjmp	.+2      	; 0x1b7c <rtcGetDayofYear+0x2e>
    1b7a:	d8 2f       	mov	r29, r24
  {
    localMonth--;
    localDay += rtcGetNumOfDayAtMonth( localMonth , year );
  }

  return localDay;
    1b7c:	8d 2f       	mov	r24, r29
    1b7e:	90 e0       	ldi	r25, 0x00	; 0
    1b80:	02 c0       	rjmp	.+4      	; 0x1b86 <rtcGetDayofYear+0x38>
uint16_t				rtcGetDayofYear			( const uint8_t day , const uint8_t month , const uint16_t year )	
{
  // Der wievielte Tag des Jahres ist dieser Tag
  if ( ( month == 0 ) || ( month > 12 ) )
  {
    return -1;
    1b82:	8f ef       	ldi	r24, 0xFF	; 255
    1b84:	9f ef       	ldi	r25, 0xFF	; 255
    localMonth--;
    localDay += rtcGetNumOfDayAtMonth( localMonth , year );
  }

  return localDay;
}                   
    1b86:	df 91       	pop	r29
    1b88:	cf 91       	pop	r28
    1b8a:	1f 91       	pop	r17
    1b8c:	0f 91       	pop	r16
    1b8e:	08 95       	ret

00001b90 <rtcGetWeek>:

uint16_t				rtcGetWeek				( uint16_t day , uint16_t month , uint16_t year )					
{
    1b90:	ef 92       	push	r14
    1b92:	ff 92       	push	r15
    1b94:	0f 93       	push	r16
    1b96:	1f 93       	push	r17
    1b98:	cf 93       	push	r28
    1b9a:	df 93       	push	r29
    1b9c:	7a 01       	movw	r14, r20
  // Berechnung erfolgt analog DIN 1355, welche besagt:
  // Der erste Donnerstag im neuen Jahr liegt immer in der KW 1.
  // "Woche" ist dabei definiert als [Mo, ..., So].

  uint16_t dayOfYear = rtcGetDayofYear( day , month , year );
    1b9e:	0e 94 a7 0d 	call	0x1b4e	; 0x1b4e <rtcGetDayofYear>
    1ba2:	ec 01       	movw	r28, r24

  // Berechnen des Wochentags des 1. Januar:
  uint16_t weekDay1Jan = rtcGetWeekDay( 1 , 1 , year );
    1ba4:	a7 01       	movw	r20, r14
    1ba6:	61 e0       	ldi	r22, 0x01	; 1
    1ba8:	81 e0       	ldi	r24, 0x01	; 1
    1baa:	0e 94 f7 0c 	call	0x19ee	; 0x19ee <rtcGetWeekDay>
    1bae:	8c 01       	movw	r16, r24

  // Sonderfaelle Freitag und Samstag
  if (weekDay1Jan >= 5) 
    1bb0:	05 97       	sbiw	r24, 0x05	; 5
    1bb2:	10 f0       	brcs	.+4      	; 0x1bb8 <rtcGetWeek+0x28>
  {
  	weekDay1Jan = weekDay1Jan - 7;
    1bb4:	07 50       	subi	r16, 0x07	; 7
    1bb6:	11 09       	sbc	r17, r1
  }
    
  // Sonderfaelle "Jahresanfang mit KW - Nummer aus dem Vorjahr"
  if ( ( dayOfYear + weekDay1Jan ) <= 1 )
    1bb8:	c8 01       	movw	r24, r16
    1bba:	8c 0f       	add	r24, r28
    1bbc:	9d 1f       	adc	r25, r29
    1bbe:	82 30       	cpi	r24, 0x02	; 2
    1bc0:	91 05       	cpc	r25, r1
    1bc2:	50 f4       	brcc	.+20     	; 0x1bd8 <rtcGetWeek+0x48>
  {
    return rtcGetWeek( 31 , 12 , year - 1 );
    1bc4:	a7 01       	movw	r20, r14
    1bc6:	41 50       	subi	r20, 0x01	; 1
    1bc8:	51 09       	sbc	r21, r1
    1bca:	6c e0       	ldi	r22, 0x0C	; 12
    1bcc:	70 e0       	ldi	r23, 0x00	; 0
    1bce:	8f e1       	ldi	r24, 0x1F	; 31
    1bd0:	90 e0       	ldi	r25, 0x00	; 0
    1bd2:	0e 94 c8 0d 	call	0x1b90	; 0x1b90 <rtcGetWeek>
    1bd6:	40 c0       	rjmp	.+128    	; 0x1c58 <rtcGetWeek+0xc8>
  }

  uint16_t week = ( ( dayOfYear + weekDay1Jan + 5 ) / 7 );
    1bd8:	fc 01       	movw	r30, r24
    1bda:	35 96       	adiw	r30, 0x05	; 5
    1bdc:	9f 01       	movw	r18, r30
    1bde:	a3 e9       	ldi	r26, 0x93	; 147
    1be0:	b4 e2       	ldi	r27, 0x24	; 36
    1be2:	0e 94 3c 26 	call	0x4c78	; 0x4c78 <__umulhisi3>
    1be6:	e8 1b       	sub	r30, r24
    1be8:	f9 0b       	sbc	r31, r25
    1bea:	f6 95       	lsr	r31
    1bec:	e7 95       	ror	r30
    1bee:	9c 01       	movw	r18, r24
    1bf0:	2e 0f       	add	r18, r30
    1bf2:	3f 1f       	adc	r19, r31
    1bf4:	36 95       	lsr	r19
    1bf6:	27 95       	ror	r18
    1bf8:	36 95       	lsr	r19
    1bfa:	27 95       	ror	r18

  // 53 Kalenderwochen hat grunds?tzlich nur ein Jahr, 
  // welches mit einem Donnerstag anf?ngt !
  // In Schaltjahren ist es auch mit einem Mittwoch moeglich, z.B. 1992
  // Andernfalls ist diese KW schon die KW1 des Folgejahres.
  if ( week == 53 )
    1bfc:	25 33       	cpi	r18, 0x35	; 53
    1bfe:	31 05       	cpc	r19, r1
    1c00:	d1 f4       	brne	.+52     	; 0x1c36 <rtcGetWeek+0xa6>
  {
    bool leapYear = rtcIsLeapYear( year );
    1c02:	c7 01       	movw	r24, r14
    1c04:	0e 94 8a 0c 	call	0x1914	; 0x1914 <rtcIsLeapYear>

    if ( ( weekDay1Jan  ==  4 ) ||  ( weekDay1Jan  == -3 ) ||  ( ( weekDay1Jan ==  3 ) && leapYear ) || ( ( weekDay1Jan == -4 ) && leapYear ) )
    1c08:	04 30       	cpi	r16, 0x04	; 4
    1c0a:	11 05       	cpc	r17, r1
    1c0c:	b9 f0       	breq	.+46     	; 0x1c3c <rtcGetWeek+0xac>
    1c0e:	0d 3f       	cpi	r16, 0xFD	; 253
    1c10:	9f ef       	ldi	r25, 0xFF	; 255
    1c12:	19 07       	cpc	r17, r25
    1c14:	b1 f0       	breq	.+44     	; 0x1c42 <rtcGetWeek+0xb2>
    1c16:	03 30       	cpi	r16, 0x03	; 3
    1c18:	11 05       	cpc	r17, r1
    1c1a:	29 f4       	brne	.+10     	; 0x1c26 <rtcGetWeek+0x96>
    1c1c:	81 11       	cpse	r24, r1
    1c1e:	14 c0       	rjmp	.+40     	; 0x1c48 <rtcGetWeek+0xb8>
    {
    	// Das ist korrekt und erlaubt
    }
    else
    {
    	week = 1; // Korrektur des Wertes
    1c20:	81 e0       	ldi	r24, 0x01	; 1
    1c22:	90 e0       	ldi	r25, 0x00	; 0
    1c24:	19 c0       	rjmp	.+50     	; 0x1c58 <rtcGetWeek+0xc8>
  // Andernfalls ist diese KW schon die KW1 des Folgejahres.
  if ( week == 53 )
  {
    bool leapYear = rtcIsLeapYear( year );

    if ( ( weekDay1Jan  ==  4 ) ||  ( weekDay1Jan  == -3 ) ||  ( ( weekDay1Jan ==  3 ) && leapYear ) || ( ( weekDay1Jan == -4 ) && leapYear ) )
    1c26:	0c 3f       	cpi	r16, 0xFC	; 252
    1c28:	1f 4f       	sbci	r17, 0xFF	; 255
    1c2a:	89 f4       	brne	.+34     	; 0x1c4e <rtcGetWeek+0xbe>
    1c2c:	88 23       	and	r24, r24
    1c2e:	91 f0       	breq	.+36     	; 0x1c54 <rtcGetWeek+0xc4>
  if ( ( dayOfYear + weekDay1Jan ) <= 1 )
  {
    return rtcGetWeek( 31 , 12 , year - 1 );
  }

  uint16_t week = ( ( dayOfYear + weekDay1Jan + 5 ) / 7 );
    1c30:	85 e3       	ldi	r24, 0x35	; 53
    1c32:	90 e0       	ldi	r25, 0x00	; 0
    1c34:	11 c0       	rjmp	.+34     	; 0x1c58 <rtcGetWeek+0xc8>
    1c36:	82 2f       	mov	r24, r18
    1c38:	93 2f       	mov	r25, r19
    1c3a:	0e c0       	rjmp	.+28     	; 0x1c58 <rtcGetWeek+0xc8>
    1c3c:	85 e3       	ldi	r24, 0x35	; 53
    1c3e:	90 e0       	ldi	r25, 0x00	; 0
    1c40:	0b c0       	rjmp	.+22     	; 0x1c58 <rtcGetWeek+0xc8>
    1c42:	85 e3       	ldi	r24, 0x35	; 53
    1c44:	90 e0       	ldi	r25, 0x00	; 0
    1c46:	08 c0       	rjmp	.+16     	; 0x1c58 <rtcGetWeek+0xc8>
    1c48:	85 e3       	ldi	r24, 0x35	; 53
    1c4a:	90 e0       	ldi	r25, 0x00	; 0
    1c4c:	05 c0       	rjmp	.+10     	; 0x1c58 <rtcGetWeek+0xc8>
    {
    	// Das ist korrekt und erlaubt
    }
    else
    {
    	week = 1; // Korrektur des Wertes
    1c4e:	81 e0       	ldi	r24, 0x01	; 1
    1c50:	90 e0       	ldi	r25, 0x00	; 0
    1c52:	02 c0       	rjmp	.+4      	; 0x1c58 <rtcGetWeek+0xc8>
    1c54:	81 e0       	ldi	r24, 0x01	; 1
    1c56:	90 e0       	ldi	r25, 0x00	; 0
	}
      
  }

  return week;
    1c58:	df 91       	pop	r29
    1c5a:	cf 91       	pop	r28
    1c5c:	1f 91       	pop	r17
    1c5e:	0f 91       	pop	r16
    1c60:	ff 90       	pop	r15
    1c62:	ef 90       	pop	r14
    1c64:	08 95       	ret

00001c66 <ledarray_left_shift>:

uint8_t get_key_short			( uint8_t key_mask )
{
	cli();                                          // read key state and key press atomic !
	return get_key_press( ~sys.key_state & key_mask );
}
    1c66:	0f 93       	push	r16
    1c68:	1f 93       	push	r17
    1c6a:	cf 93       	push	r28
    1c6c:	df 93       	push	r29
    1c6e:	10 e0       	ldi	r17, 0x00	; 0
    1c70:	00 e0       	ldi	r16, 0x00	; 0
    1c72:	16 c0       	rjmp	.+44     	; 0x1ca0 <ledarray_left_shift+0x3a>
    1c74:	d1 e0       	ldi	r29, 0x01	; 1
    1c76:	dc 0f       	add	r29, r28
    1c78:	61 2f       	mov	r22, r17
    1c7a:	8d 2f       	mov	r24, r29
    1c7c:	0e 94 05 0b 	call	0x160a	; 0x160a <ht1632c_get>
    1c80:	48 2f       	mov	r20, r24
    1c82:	61 2f       	mov	r22, r17
    1c84:	8c 2f       	mov	r24, r28
    1c86:	0e 94 33 0b 	call	0x1666	; 0x1666 <ht1632c_set>
    1c8a:	cd 2f       	mov	r28, r29
    1c8c:	df 31       	cpi	r29, 0x1F	; 31
    1c8e:	91 f7       	brne	.-28     	; 0x1c74 <ledarray_left_shift+0xe>
    1c90:	40 2f       	mov	r20, r16
    1c92:	61 2f       	mov	r22, r17
    1c94:	8f e1       	ldi	r24, 0x1F	; 31
    1c96:	0e 94 33 0b 	call	0x1666	; 0x1666 <ht1632c_set>
    1c9a:	1f 5f       	subi	r17, 0xFF	; 255
    1c9c:	18 30       	cpi	r17, 0x08	; 8
    1c9e:	11 f0       	breq	.+4      	; 0x1ca4 <ledarray_left_shift+0x3e>
    1ca0:	c0 2f       	mov	r28, r16
    1ca2:	e8 cf       	rjmp	.-48     	; 0x1c74 <ledarray_left_shift+0xe>
    1ca4:	df 91       	pop	r29
    1ca6:	cf 91       	pop	r28
    1ca8:	1f 91       	pop	r17
    1caa:	0f 91       	pop	r16
    1cac:	08 95       	ret

00001cae <ledarray_shift_up>:
    1cae:	0f 93       	push	r16
    1cb0:	1f 93       	push	r17
    1cb2:	cf 93       	push	r28
    1cb4:	df 93       	push	r29
    1cb6:	10 e0       	ldi	r17, 0x00	; 0
    1cb8:	0f c0       	rjmp	.+30     	; 0x1cd8 <ledarray_shift_up+0x2a>
    1cba:	6d 2f       	mov	r22, r29
    1cbc:	8c 2f       	mov	r24, r28
    1cbe:	0e 94 05 0b 	call	0x160a	; 0x160a <ht1632c_get>
    1cc2:	48 2f       	mov	r20, r24
    1cc4:	61 2f       	mov	r22, r17
    1cc6:	8c 2f       	mov	r24, r28
    1cc8:	0e 94 33 0b 	call	0x1666	; 0x1666 <ht1632c_set>
    1ccc:	cf 5f       	subi	r28, 0xFF	; 255
    1cce:	c0 32       	cpi	r28, 0x20	; 32
    1cd0:	a1 f7       	brne	.-24     	; 0x1cba <ledarray_shift_up+0xc>
    1cd2:	d7 30       	cpi	r29, 0x07	; 7
    1cd4:	29 f0       	breq	.+10     	; 0x1ce0 <ledarray_shift_up+0x32>
    1cd6:	1d 2f       	mov	r17, r29
    1cd8:	c0 e0       	ldi	r28, 0x00	; 0
    1cda:	d1 e0       	ldi	r29, 0x01	; 1
    1cdc:	d1 0f       	add	r29, r17
    1cde:	ed cf       	rjmp	.-38     	; 0x1cba <ledarray_shift_up+0xc>
    1ce0:	c0 e0       	ldi	r28, 0x00	; 0
    1ce2:	40 e0       	ldi	r20, 0x00	; 0
    1ce4:	67 e0       	ldi	r22, 0x07	; 7
    1ce6:	8c 2f       	mov	r24, r28
    1ce8:	0e 94 33 0b 	call	0x1666	; 0x1666 <ht1632c_set>
    1cec:	cf 5f       	subi	r28, 0xFF	; 255
    1cee:	c0 32       	cpi	r28, 0x20	; 32
    1cf0:	c1 f7       	brne	.-16     	; 0x1ce2 <ledarray_shift_up+0x34>
    1cf2:	df 91       	pop	r29
    1cf4:	cf 91       	pop	r28
    1cf6:	1f 91       	pop	r17
    1cf8:	0f 91       	pop	r16
    1cfa:	08 95       	ret

00001cfc <getFont>:
    1cfc:	af 92       	push	r10
    1cfe:	bf 92       	push	r11
    1d00:	cf 92       	push	r12
    1d02:	df 92       	push	r13
    1d04:	ef 92       	push	r14
    1d06:	ff 92       	push	r15
    1d08:	0f 93       	push	r16
    1d0a:	1f 93       	push	r17
    1d0c:	cf 93       	push	r28
    1d0e:	df 93       	push	r29
    1d10:	00 d0       	rcall	.+0      	; 0x1d12 <getFont+0x16>
    1d12:	1f 92       	push	r1
    1d14:	cd b7       	in	r28, 0x3d	; 61
    1d16:	de b7       	in	r29, 0x3e	; 62
    1d18:	8b 83       	std	Y+3, r24	; 0x03
    1d1a:	5b 01       	movw	r10, r22
    1d1c:	04 e5       	ldi	r16, 0x54	; 84
    1d1e:	10 e0       	ldi	r17, 0x00	; 0
    1d20:	0f 2e       	mov	r0, r31
    1d22:	fc ef       	ldi	r31, 0xFC	; 252
    1d24:	cf 2e       	mov	r12, r31
    1d26:	f0 e0       	ldi	r31, 0x00	; 0
    1d28:	df 2e       	mov	r13, r31
    1d2a:	f0 2d       	mov	r31, r0
    1d2c:	42 e0       	ldi	r20, 0x02	; 2
    1d2e:	50 e0       	ldi	r21, 0x00	; 0
    1d30:	b8 01       	movw	r22, r16
    1d32:	ce 01       	movw	r24, r28
    1d34:	01 96       	adiw	r24, 0x01	; 1
    1d36:	0e 94 7f 26 	call	0x4cfe	; 0x4cfe <memcpy_P>
    1d3a:	e9 80       	ldd	r14, Y+1	; 0x01
    1d3c:	fa 80       	ldd	r15, Y+2	; 0x02
    1d3e:	41 e0       	ldi	r20, 0x01	; 1
    1d40:	50 e0       	ldi	r21, 0x00	; 0
    1d42:	b7 01       	movw	r22, r14
    1d44:	ce 01       	movw	r24, r28
    1d46:	03 96       	adiw	r24, 0x03	; 3
    1d48:	0e 94 72 26 	call	0x4ce4	; 0x4ce4 <memcmp_P>
    1d4c:	89 2b       	or	r24, r25
    1d4e:	39 f4       	brne	.+14     	; 0x1d5e <getFont+0x62>
    1d50:	47 e0       	ldi	r20, 0x07	; 7
    1d52:	50 e0       	ldi	r21, 0x00	; 0
    1d54:	b7 01       	movw	r22, r14
    1d56:	c5 01       	movw	r24, r10
    1d58:	0e 94 7f 26 	call	0x4cfe	; 0x4cfe <memcpy_P>
    1d5c:	09 c0       	rjmp	.+18     	; 0x1d70 <getFont+0x74>
    1d5e:	0e 5f       	subi	r16, 0xFE	; 254
    1d60:	1f 4f       	sbci	r17, 0xFF	; 255
    1d62:	0c 15       	cp	r16, r12
    1d64:	1d 05       	cpc	r17, r13
    1d66:	11 f7       	brne	.-60     	; 0x1d2c <getFont+0x30>
    1d68:	b5 01       	movw	r22, r10
    1d6a:	8f e3       	ldi	r24, 0x3F	; 63
    1d6c:	0e 94 7e 0e 	call	0x1cfc	; 0x1cfc <getFont>
    1d70:	0f 90       	pop	r0
    1d72:	0f 90       	pop	r0
    1d74:	0f 90       	pop	r0
    1d76:	df 91       	pop	r29
    1d78:	cf 91       	pop	r28
    1d7a:	1f 91       	pop	r17
    1d7c:	0f 91       	pop	r16
    1d7e:	ff 90       	pop	r15
    1d80:	ef 90       	pop	r14
    1d82:	df 90       	pop	r13
    1d84:	cf 90       	pop	r12
    1d86:	bf 90       	pop	r11
    1d88:	af 90       	pop	r10
    1d8a:	08 95       	ret

00001d8c <getFontWidth>:
    1d8c:	cf 93       	push	r28
    1d8e:	df 93       	push	r29
    1d90:	cd b7       	in	r28, 0x3d	; 61
    1d92:	de b7       	in	r29, 0x3e	; 62
    1d94:	27 97       	sbiw	r28, 0x07	; 7
    1d96:	0f b6       	in	r0, 0x3f	; 63
    1d98:	f8 94       	cli
    1d9a:	de bf       	out	0x3e, r29	; 62
    1d9c:	0f be       	out	0x3f, r0	; 63
    1d9e:	cd bf       	out	0x3d, r28	; 61
    1da0:	1a 82       	std	Y+2, r1	; 0x02
    1da2:	19 82       	std	Y+1, r1	; 0x01
    1da4:	fe 01       	movw	r30, r28
    1da6:	33 96       	adiw	r30, 0x03	; 3
    1da8:	95 e0       	ldi	r25, 0x05	; 5
    1daa:	df 01       	movw	r26, r30
    1dac:	1d 92       	st	X+, r1
    1dae:	9a 95       	dec	r25
    1db0:	e9 f7       	brne	.-6      	; 0x1dac <getFontWidth+0x20>
    1db2:	be 01       	movw	r22, r28
    1db4:	6f 5f       	subi	r22, 0xFF	; 255
    1db6:	7f 4f       	sbci	r23, 0xFF	; 255
    1db8:	0e 94 7e 0e 	call	0x1cfc	; 0x1cfc <getFont>
    1dbc:	8a 81       	ldd	r24, Y+2	; 0x02
    1dbe:	27 96       	adiw	r28, 0x07	; 7
    1dc0:	0f b6       	in	r0, 0x3f	; 63
    1dc2:	f8 94       	cli
    1dc4:	de bf       	out	0x3e, r29	; 62
    1dc6:	0f be       	out	0x3f, r0	; 63
    1dc8:	cd bf       	out	0x3d, r28	; 61
    1dca:	df 91       	pop	r29
    1dcc:	cf 91       	pop	r28
    1dce:	08 95       	ret

00001dd0 <putChar>:
    1dd0:	3f 92       	push	r3
    1dd2:	4f 92       	push	r4
    1dd4:	5f 92       	push	r5
    1dd6:	6f 92       	push	r6
    1dd8:	7f 92       	push	r7
    1dda:	8f 92       	push	r8
    1ddc:	9f 92       	push	r9
    1dde:	af 92       	push	r10
    1de0:	bf 92       	push	r11
    1de2:	cf 92       	push	r12
    1de4:	df 92       	push	r13
    1de6:	ef 92       	push	r14
    1de8:	ff 92       	push	r15
    1dea:	0f 93       	push	r16
    1dec:	1f 93       	push	r17
    1dee:	cf 93       	push	r28
    1df0:	df 93       	push	r29
    1df2:	cd b7       	in	r28, 0x3d	; 61
    1df4:	de b7       	in	r29, 0x3e	; 62
    1df6:	29 97       	sbiw	r28, 0x09	; 9
    1df8:	0f b6       	in	r0, 0x3f	; 63
    1dfa:	f8 94       	cli
    1dfc:	de bf       	out	0x3e, r29	; 62
    1dfe:	0f be       	out	0x3f, r0	; 63
    1e00:	cd bf       	out	0x3d, r28	; 61
    1e02:	46 2e       	mov	r4, r22
    1e04:	be 01       	movw	r22, r28
    1e06:	6f 5f       	subi	r22, 0xFF	; 255
    1e08:	7f 4f       	sbci	r23, 0xFF	; 255
    1e0a:	0e 94 7e 0e 	call	0x1cfc	; 0x1cfc <getFont>
    1e0e:	3a 80       	ldd	r3, Y+2	; 0x02
    1e10:	0f 2e       	mov	r0, r31
    1e12:	f7 e0       	ldi	r31, 0x07	; 7
    1e14:	af 2e       	mov	r10, r31
    1e16:	b1 2c       	mov	r11, r1
    1e18:	f0 2d       	mov	r31, r0
    1e1a:	51 2c       	mov	r5, r1
    1e1c:	88 24       	eor	r8, r8
    1e1e:	83 94       	inc	r8
    1e20:	91 2c       	mov	r9, r1
    1e22:	ce 01       	movw	r24, r28
    1e24:	01 96       	adiw	r24, 0x01	; 1
    1e26:	99 87       	std	Y+9, r25	; 0x09
    1e28:	88 87       	std	Y+8, r24	; 0x08
    1e2a:	63 2c       	mov	r6, r3
    1e2c:	64 0c       	add	r6, r4
    1e2e:	e4 2c       	mov	r14, r4
    1e30:	f1 2c       	mov	r15, r1
    1e32:	e8 1a       	sub	r14, r24
    1e34:	f9 0a       	sbc	r15, r25
    1e36:	23 c0       	rjmp	.+70     	; 0x1e7e <putChar+0xae>
    1e38:	c7 01       	movw	r24, r14
    1e3a:	80 0f       	add	r24, r16
    1e3c:	91 1f       	adc	r25, r17
    1e3e:	80 97       	sbiw	r24, 0x20	; 32
    1e40:	94 f4       	brge	.+36     	; 0x1e66 <putChar+0x96>
    1e42:	f8 01       	movw	r30, r16
    1e44:	82 81       	ldd	r24, Z+2	; 0x02
    1e46:	90 e0       	ldi	r25, 0x00	; 0
    1e48:	8c 21       	and	r24, r12
    1e4a:	9d 21       	and	r25, r13
    1e4c:	89 2b       	or	r24, r25
    1e4e:	31 f0       	breq	.+12     	; 0x1e5c <putChar+0x8c>
    1e50:	41 e0       	ldi	r20, 0x01	; 1
    1e52:	65 2d       	mov	r22, r5
    1e54:	87 2d       	mov	r24, r7
    1e56:	0e 94 33 0b 	call	0x1666	; 0x1666 <ht1632c_set>
    1e5a:	05 c0       	rjmp	.+10     	; 0x1e66 <putChar+0x96>
    1e5c:	40 e0       	ldi	r20, 0x00	; 0
    1e5e:	65 2d       	mov	r22, r5
    1e60:	87 2d       	mov	r24, r7
    1e62:	0e 94 33 0b 	call	0x1666	; 0x1666 <ht1632c_set>
    1e66:	73 94       	inc	r7
    1e68:	0f 5f       	subi	r16, 0xFF	; 255
    1e6a:	1f 4f       	sbci	r17, 0xFF	; 255
    1e6c:	76 10       	cpse	r7, r6
    1e6e:	e4 cf       	rjmp	.-56     	; 0x1e38 <putChar+0x68>
    1e70:	53 94       	inc	r5
    1e72:	f1 e0       	ldi	r31, 0x01	; 1
    1e74:	af 1a       	sub	r10, r31
    1e76:	b1 08       	sbc	r11, r1
    1e78:	88 e0       	ldi	r24, 0x08	; 8
    1e7a:	58 16       	cp	r5, r24
    1e7c:	71 f0       	breq	.+28     	; 0x1e9a <putChar+0xca>
    1e7e:	33 20       	and	r3, r3
    1e80:	b9 f3       	breq	.-18     	; 0x1e70 <putChar+0xa0>
    1e82:	64 01       	movw	r12, r8
    1e84:	0a 2c       	mov	r0, r10
    1e86:	02 c0       	rjmp	.+4      	; 0x1e8c <putChar+0xbc>
    1e88:	cc 0c       	add	r12, r12
    1e8a:	dd 1c       	adc	r13, r13
    1e8c:	0a 94       	dec	r0
    1e8e:	e2 f7       	brpl	.-8      	; 0x1e88 <putChar+0xb8>
    1e90:	8e 01       	movw	r16, r28
    1e92:	0f 5f       	subi	r16, 0xFF	; 255
    1e94:	1f 4f       	sbci	r17, 0xFF	; 255
    1e96:	74 2c       	mov	r7, r4
    1e98:	cf cf       	rjmp	.-98     	; 0x1e38 <putChar+0x68>
    1e9a:	10 e0       	ldi	r17, 0x00	; 0
    1e9c:	43 0c       	add	r4, r3
    1e9e:	40 e0       	ldi	r20, 0x00	; 0
    1ea0:	61 2f       	mov	r22, r17
    1ea2:	84 2d       	mov	r24, r4
    1ea4:	0e 94 33 0b 	call	0x1666	; 0x1666 <ht1632c_set>
    1ea8:	1f 5f       	subi	r17, 0xFF	; 255
    1eaa:	18 30       	cpi	r17, 0x08	; 8
    1eac:	c1 f7       	brne	.-16     	; 0x1e9e <putChar+0xce>
    1eae:	29 96       	adiw	r28, 0x09	; 9
    1eb0:	0f b6       	in	r0, 0x3f	; 63
    1eb2:	f8 94       	cli
    1eb4:	de bf       	out	0x3e, r29	; 62
    1eb6:	0f be       	out	0x3f, r0	; 63
    1eb8:	cd bf       	out	0x3d, r28	; 61
    1eba:	df 91       	pop	r29
    1ebc:	cf 91       	pop	r28
    1ebe:	1f 91       	pop	r17
    1ec0:	0f 91       	pop	r16
    1ec2:	ff 90       	pop	r15
    1ec4:	ef 90       	pop	r14
    1ec6:	df 90       	pop	r13
    1ec8:	cf 90       	pop	r12
    1eca:	bf 90       	pop	r11
    1ecc:	af 90       	pop	r10
    1ece:	9f 90       	pop	r9
    1ed0:	8f 90       	pop	r8
    1ed2:	7f 90       	pop	r7
    1ed4:	6f 90       	pop	r6
    1ed6:	5f 90       	pop	r5
    1ed8:	4f 90       	pop	r4
    1eda:	3f 90       	pop	r3
    1edc:	08 95       	ret

00001ede <putTimertcBcdToDec>:
    1ede:	0f 93       	push	r16
    1ee0:	1f 93       	push	r17
    1ee2:	cf 93       	push	r28
    1ee4:	df 93       	push	r29
    1ee6:	c6 2f       	mov	r28, r22
    1ee8:	0e 94 63 0b 	call	0x16c6	; 0x16c6 <rtcBcdToDec>
    1eec:	08 2f       	mov	r16, r24
    1eee:	8c 2f       	mov	r24, r28
    1ef0:	0e 94 63 0b 	call	0x16c6	; 0x16c6 <rtcBcdToDec>
    1ef4:	18 2f       	mov	r17, r24
    1ef6:	cd ec       	ldi	r28, 0xCD	; 205
    1ef8:	0c 9f       	mul	r16, r28
    1efa:	d1 2d       	mov	r29, r1
    1efc:	11 24       	eor	r1, r1
    1efe:	d6 95       	lsr	r29
    1f00:	d6 95       	lsr	r29
    1f02:	d6 95       	lsr	r29
    1f04:	61 e0       	ldi	r22, 0x01	; 1
    1f06:	80 e3       	ldi	r24, 0x30	; 48
    1f08:	8d 0f       	add	r24, r29
    1f0a:	0e 94 e8 0e 	call	0x1dd0	; 0x1dd0 <putChar>
    1f0e:	dd 0f       	add	r29, r29
    1f10:	8d 2f       	mov	r24, r29
    1f12:	88 0f       	add	r24, r24
    1f14:	88 0f       	add	r24, r24
    1f16:	d8 0f       	add	r29, r24
    1f18:	80 2f       	mov	r24, r16
    1f1a:	8d 1b       	sub	r24, r29
    1f1c:	67 e0       	ldi	r22, 0x07	; 7
    1f1e:	80 5d       	subi	r24, 0xD0	; 208
    1f20:	0e 94 e8 0e 	call	0x1dd0	; 0x1dd0 <putChar>
    1f24:	1c 9f       	mul	r17, r28
    1f26:	c1 2d       	mov	r28, r1
    1f28:	11 24       	eor	r1, r1
    1f2a:	c6 95       	lsr	r28
    1f2c:	c6 95       	lsr	r28
    1f2e:	c6 95       	lsr	r28
    1f30:	63 e1       	ldi	r22, 0x13	; 19
    1f32:	80 e3       	ldi	r24, 0x30	; 48
    1f34:	8c 0f       	add	r24, r28
    1f36:	0e 94 e8 0e 	call	0x1dd0	; 0x1dd0 <putChar>
    1f3a:	cc 0f       	add	r28, r28
    1f3c:	8c 2f       	mov	r24, r28
    1f3e:	88 0f       	add	r24, r24
    1f40:	88 0f       	add	r24, r24
    1f42:	c8 0f       	add	r28, r24
    1f44:	81 2f       	mov	r24, r17
    1f46:	8c 1b       	sub	r24, r28
    1f48:	69 e1       	ldi	r22, 0x19	; 25
    1f4a:	80 5d       	subi	r24, 0xD0	; 208
    1f4c:	0e 94 e8 0e 	call	0x1dd0	; 0x1dd0 <putChar>
    1f50:	df 91       	pop	r29
    1f52:	cf 91       	pop	r28
    1f54:	1f 91       	pop	r17
    1f56:	0f 91       	pop	r16
    1f58:	08 95       	ret

00001f5a <putTimeDec>:
    1f5a:	0f 93       	push	r16
    1f5c:	1f 93       	push	r17
    1f5e:	cf 93       	push	r28
    1f60:	df 93       	push	r29
    1f62:	08 2f       	mov	r16, r24
    1f64:	16 2f       	mov	r17, r22
    1f66:	cd ec       	ldi	r28, 0xCD	; 205
    1f68:	8c 9f       	mul	r24, r28
    1f6a:	d1 2d       	mov	r29, r1
    1f6c:	11 24       	eor	r1, r1
    1f6e:	d6 95       	lsr	r29
    1f70:	d6 95       	lsr	r29
    1f72:	d6 95       	lsr	r29
    1f74:	61 e0       	ldi	r22, 0x01	; 1
    1f76:	80 e3       	ldi	r24, 0x30	; 48
    1f78:	8d 0f       	add	r24, r29
    1f7a:	0e 94 e8 0e 	call	0x1dd0	; 0x1dd0 <putChar>
    1f7e:	dd 0f       	add	r29, r29
    1f80:	8d 2f       	mov	r24, r29
    1f82:	88 0f       	add	r24, r24
    1f84:	88 0f       	add	r24, r24
    1f86:	d8 0f       	add	r29, r24
    1f88:	80 2f       	mov	r24, r16
    1f8a:	8d 1b       	sub	r24, r29
    1f8c:	67 e0       	ldi	r22, 0x07	; 7
    1f8e:	80 5d       	subi	r24, 0xD0	; 208
    1f90:	0e 94 e8 0e 	call	0x1dd0	; 0x1dd0 <putChar>
    1f94:	1c 9f       	mul	r17, r28
    1f96:	c1 2d       	mov	r28, r1
    1f98:	11 24       	eor	r1, r1
    1f9a:	c6 95       	lsr	r28
    1f9c:	c6 95       	lsr	r28
    1f9e:	c6 95       	lsr	r28
    1fa0:	63 e1       	ldi	r22, 0x13	; 19
    1fa2:	80 e3       	ldi	r24, 0x30	; 48
    1fa4:	8c 0f       	add	r24, r28
    1fa6:	0e 94 e8 0e 	call	0x1dd0	; 0x1dd0 <putChar>
    1faa:	cc 0f       	add	r28, r28
    1fac:	8c 2f       	mov	r24, r28
    1fae:	88 0f       	add	r24, r24
    1fb0:	88 0f       	add	r24, r24
    1fb2:	c8 0f       	add	r28, r24
    1fb4:	81 2f       	mov	r24, r17
    1fb6:	8c 1b       	sub	r24, r28
    1fb8:	69 e1       	ldi	r22, 0x19	; 25
    1fba:	80 5d       	subi	r24, 0xD0	; 208
    1fbc:	0e 94 e8 0e 	call	0x1dd0	; 0x1dd0 <putChar>
    1fc0:	df 91       	pop	r29
    1fc2:	cf 91       	pop	r28
    1fc4:	1f 91       	pop	r17
    1fc6:	0f 91       	pop	r16
    1fc8:	08 95       	ret

00001fca <putStr>:
    1fca:	ef 92       	push	r14
    1fcc:	ff 92       	push	r15
    1fce:	0f 93       	push	r16
    1fd0:	1f 93       	push	r17
    1fd2:	cf 93       	push	r28
    1fd4:	df 93       	push	r29
    1fd6:	7c 01       	movw	r14, r24
    1fd8:	d6 2f       	mov	r29, r22
    1fda:	fc 01       	movw	r30, r24
    1fdc:	81 91       	ld	r24, Z+
    1fde:	8f 01       	movw	r16, r30
    1fe0:	0e 94 e8 0e 	call	0x1dd0	; 0x1dd0 <putChar>
    1fe4:	f7 01       	movw	r30, r14
    1fe6:	80 81       	ld	r24, Z
    1fe8:	0e 94 c6 0e 	call	0x1d8c	; 0x1d8c <getFontWidth>
    1fec:	c1 e0       	ldi	r28, 0x01	; 1
    1fee:	c8 0f       	add	r28, r24
    1ff0:	f7 01       	movw	r30, r14
    1ff2:	81 81       	ldd	r24, Z+1	; 0x01
    1ff4:	88 23       	and	r24, r24
    1ff6:	81 f0       	breq	.+32     	; 0x2018 <putStr+0x4e>
    1ff8:	6d 2f       	mov	r22, r29
    1ffa:	6c 0f       	add	r22, r28
    1ffc:	0e 94 e8 0e 	call	0x1dd0	; 0x1dd0 <putChar>
    2000:	f8 01       	movw	r30, r16
    2002:	81 91       	ld	r24, Z+
    2004:	8f 01       	movw	r16, r30
    2006:	0e 94 c6 0e 	call	0x1d8c	; 0x1d8c <getFontWidth>
    200a:	8c 0f       	add	r24, r28
    200c:	c1 e0       	ldi	r28, 0x01	; 1
    200e:	c8 0f       	add	r28, r24
    2010:	f8 01       	movw	r30, r16
    2012:	80 81       	ld	r24, Z
    2014:	81 11       	cpse	r24, r1
    2016:	f0 cf       	rjmp	.-32     	; 0x1ff8 <putStr+0x2e>
    2018:	df 91       	pop	r29
    201a:	cf 91       	pop	r28
    201c:	1f 91       	pop	r17
    201e:	0f 91       	pop	r16
    2020:	ff 90       	pop	r15
    2022:	ef 90       	pop	r14
    2024:	08 95       	ret

00002026 <doublePointOn>:
    2026:	6f e0       	ldi	r22, 0x0F	; 15
    2028:	8a e3       	ldi	r24, 0x3A	; 58
    202a:	0e 94 e8 0e 	call	0x1dd0	; 0x1dd0 <putChar>
    202e:	08 95       	ret

00002030 <blinkTime>:
    2030:	20 91 6b 04 	lds	r18, 0x046B	; 0x80046b <sys+0xd>
    2034:	30 91 6c 04 	lds	r19, 0x046C	; 0x80046c <sys+0xe>
    2038:	20 39       	cpi	r18, 0x90	; 144
    203a:	31 40       	sbci	r19, 0x01	; 1
    203c:	18 f4       	brcc	.+6      	; 0x2044 <blinkTime+0x14>
    203e:	0e 94 ad 0f 	call	0x1f5a	; 0x1f5a <putTimeDec>
    2042:	08 95       	ret
    2044:	80 91 6b 04 	lds	r24, 0x046B	; 0x80046b <sys+0xd>
    2048:	90 91 6c 04 	lds	r25, 0x046C	; 0x80046c <sys+0xe>
    204c:	81 39       	cpi	r24, 0x91	; 145
    204e:	91 40       	sbci	r25, 0x01	; 1
    2050:	f0 f0       	brcs	.+60     	; 0x208e <blinkTime+0x5e>
    2052:	80 91 6b 04 	lds	r24, 0x046B	; 0x80046b <sys+0xd>
    2056:	90 91 6c 04 	lds	r25, 0x046C	; 0x80046c <sys+0xe>
    205a:	80 32       	cpi	r24, 0x20	; 32
    205c:	93 40       	sbci	r25, 0x03	; 3
    205e:	b8 f4       	brcc	.+46     	; 0x208e <blinkTime+0x5e>
    2060:	44 23       	and	r20, r20
    2062:	19 f0       	breq	.+6      	; 0x206a <blinkTime+0x3a>
    2064:	41 30       	cpi	r20, 0x01	; 1
    2066:	51 f0       	breq	.+20     	; 0x207c <blinkTime+0x4c>
    2068:	08 95       	ret
    206a:	61 e0       	ldi	r22, 0x01	; 1
    206c:	80 e6       	ldi	r24, 0x60	; 96
    206e:	0e 94 e8 0e 	call	0x1dd0	; 0x1dd0 <putChar>
    2072:	67 e0       	ldi	r22, 0x07	; 7
    2074:	80 e6       	ldi	r24, 0x60	; 96
    2076:	0e 94 e8 0e 	call	0x1dd0	; 0x1dd0 <putChar>
    207a:	08 95       	ret
    207c:	63 e1       	ldi	r22, 0x13	; 19
    207e:	80 e6       	ldi	r24, 0x60	; 96
    2080:	0e 94 e8 0e 	call	0x1dd0	; 0x1dd0 <putChar>
    2084:	69 e1       	ldi	r22, 0x19	; 25
    2086:	80 e6       	ldi	r24, 0x60	; 96
    2088:	0e 94 e8 0e 	call	0x1dd0	; 0x1dd0 <putChar>
    208c:	08 95       	ret
    208e:	80 91 6b 04 	lds	r24, 0x046B	; 0x80046b <sys+0xd>
    2092:	90 91 6c 04 	lds	r25, 0x046C	; 0x80046c <sys+0xe>
    2096:	81 32       	cpi	r24, 0x21	; 33
    2098:	93 40       	sbci	r25, 0x03	; 3
    209a:	20 f0       	brcs	.+8      	; 0x20a4 <blinkTime+0x74>
    209c:	10 92 6c 04 	sts	0x046C, r1	; 0x80046c <sys+0xe>
    20a0:	10 92 6b 04 	sts	0x046B, r1	; 0x80046b <sys+0xd>
    20a4:	08 95       	ret

000020a6 <blinkChars>:
    20a6:	0f 93       	push	r16
    20a8:	1f 93       	push	r17
    20aa:	cf 93       	push	r28
    20ac:	df 93       	push	r29
    20ae:	8c 01       	movw	r16, r24
    20b0:	80 91 6b 04 	lds	r24, 0x046B	; 0x80046b <sys+0xd>
    20b4:	90 91 6c 04 	lds	r25, 0x046C	; 0x80046c <sys+0xe>
    20b8:	80 39       	cpi	r24, 0x90	; 144
    20ba:	91 40       	sbci	r25, 0x01	; 1
    20bc:	20 f4       	brcc	.+8      	; 0x20c6 <blinkChars+0x20>
    20be:	c8 01       	movw	r24, r16
    20c0:	0e 94 e5 0f 	call	0x1fca	; 0x1fca <putStr>
    20c4:	30 c0       	rjmp	.+96     	; 0x2126 <blinkChars+0x80>
    20c6:	80 91 6b 04 	lds	r24, 0x046B	; 0x80046b <sys+0xd>
    20ca:	90 91 6c 04 	lds	r25, 0x046C	; 0x80046c <sys+0xe>
    20ce:	81 39       	cpi	r24, 0x91	; 145
    20d0:	91 40       	sbci	r25, 0x01	; 1
    20d2:	f0 f0       	brcs	.+60     	; 0x2110 <blinkChars+0x6a>
    20d4:	80 91 6b 04 	lds	r24, 0x046B	; 0x80046b <sys+0xd>
    20d8:	90 91 6c 04 	lds	r25, 0x046C	; 0x80046c <sys+0xe>
    20dc:	80 32       	cpi	r24, 0x20	; 32
    20de:	93 40       	sbci	r25, 0x03	; 3
    20e0:	40 f0       	brcs	.+16     	; 0x20f2 <blinkChars+0x4c>
    20e2:	16 c0       	rjmp	.+44     	; 0x2110 <blinkChars+0x6a>
    20e4:	6c 2f       	mov	r22, r28
    20e6:	80 e6       	ldi	r24, 0x60	; 96
    20e8:	0e 94 e8 0e 	call	0x1dd0	; 0x1dd0 <putChar>
    20ec:	df 5f       	subi	r29, 0xFF	; 255
    20ee:	ca 5f       	subi	r28, 0xFA	; 250
    20f0:	02 c0       	rjmp	.+4      	; 0x20f6 <blinkChars+0x50>
    20f2:	c6 2f       	mov	r28, r22
    20f4:	d0 e0       	ldi	r29, 0x00	; 0
    20f6:	f8 01       	movw	r30, r16
    20f8:	01 90       	ld	r0, Z+
    20fa:	00 20       	and	r0, r0
    20fc:	e9 f7       	brne	.-6      	; 0x20f8 <blinkChars+0x52>
    20fe:	31 97       	sbiw	r30, 0x01	; 1
    2100:	e0 1b       	sub	r30, r16
    2102:	f1 0b       	sbc	r31, r17
    2104:	8d 2f       	mov	r24, r29
    2106:	90 e0       	ldi	r25, 0x00	; 0
    2108:	8e 17       	cp	r24, r30
    210a:	9f 07       	cpc	r25, r31
    210c:	58 f3       	brcs	.-42     	; 0x20e4 <blinkChars+0x3e>
    210e:	0b c0       	rjmp	.+22     	; 0x2126 <blinkChars+0x80>
    2110:	80 91 6b 04 	lds	r24, 0x046B	; 0x80046b <sys+0xd>
    2114:	90 91 6c 04 	lds	r25, 0x046C	; 0x80046c <sys+0xe>
    2118:	81 32       	cpi	r24, 0x21	; 33
    211a:	93 40       	sbci	r25, 0x03	; 3
    211c:	20 f0       	brcs	.+8      	; 0x2126 <blinkChars+0x80>
    211e:	10 92 6c 04 	sts	0x046C, r1	; 0x80046c <sys+0xe>
    2122:	10 92 6b 04 	sts	0x046B, r1	; 0x80046b <sys+0xd>
    2126:	df 91       	pop	r29
    2128:	cf 91       	pop	r28
    212a:	1f 91       	pop	r17
    212c:	0f 91       	pop	r16
    212e:	08 95       	ret

00002130 <ledarray_blank>:
    2130:	80 e0       	ldi	r24, 0x00	; 0
    2132:	90 e0       	ldi	r25, 0x00	; 0
    2134:	fc 01       	movw	r30, r24
    2136:	ef 5e       	subi	r30, 0xEF	; 239
    2138:	fb 4f       	sbci	r31, 0xFB	; 251
    213a:	10 82       	st	Z, r1
    213c:	01 96       	adiw	r24, 0x01	; 1
    213e:	80 34       	cpi	r24, 0x40	; 64
    2140:	91 05       	cpc	r25, r1
    2142:	c1 f7       	brne	.-16     	; 0x2134 <ledarray_blank+0x4>
    2144:	08 95       	ret

00002146 <scroll_display>:
    2146:	4f 92       	push	r4
    2148:	5f 92       	push	r5
    214a:	6f 92       	push	r6
    214c:	7f 92       	push	r7
    214e:	8f 92       	push	r8
    2150:	9f 92       	push	r9
    2152:	af 92       	push	r10
    2154:	bf 92       	push	r11
    2156:	cf 92       	push	r12
    2158:	df 92       	push	r13
    215a:	ef 92       	push	r14
    215c:	ff 92       	push	r15
    215e:	0f 93       	push	r16
    2160:	1f 93       	push	r17
    2162:	cf 93       	push	r28
    2164:	df 93       	push	r29
    2166:	ec 01       	movw	r28, r24
    2168:	56 2e       	mov	r5, r22
    216a:	0e 94 98 10 	call	0x2130	; 0x2130 <ledarray_blank>
    216e:	51 10       	cpse	r5, r1
    2170:	04 c0       	rjmp	.+8      	; 0x217a <scroll_display+0x34>
    2172:	0f 2e       	mov	r0, r31
    2174:	fa e5       	ldi	r31, 0x5A	; 90
    2176:	5f 2e       	mov	r5, r31
    2178:	f0 2d       	mov	r31, r0
    217a:	88 81       	ld	r24, Y
    217c:	88 23       	and	r24, r24
    217e:	09 f4       	brne	.+2      	; 0x2182 <scroll_display+0x3c>
    2180:	ab c0       	rjmp	.+342    	; 0x22d8 <scroll_display+0x192>
    2182:	6e 01       	movw	r12, r28
    2184:	8f ef       	ldi	r24, 0xFF	; 255
    2186:	c8 1a       	sub	r12, r24
    2188:	d8 0a       	sbc	r13, r24
    218a:	7e 01       	movw	r14, r28
    218c:	68 94       	set
    218e:	77 24       	eor	r7, r7
    2190:	75 f8       	bld	r7, 5
    2192:	80 e0       	ldi	r24, 0x00	; 0
    2194:	c0 e0       	ldi	r28, 0x00	; 0
    2196:	d0 e0       	ldi	r29, 0x00	; 0
    2198:	61 2c       	mov	r6, r1
    219a:	0f 2e       	mov	r0, r31
    219c:	fe e5       	ldi	r31, 0x5E	; 94
    219e:	8f 2e       	mov	r8, r31
    21a0:	f4 e0       	ldi	r31, 0x04	; 4
    21a2:	9f 2e       	mov	r9, r31
    21a4:	f0 2d       	mov	r31, r0
    21a6:	44 24       	eor	r4, r4
    21a8:	43 94       	inc	r4
    21aa:	05 2d       	mov	r16, r5
    21ac:	10 e0       	ldi	r17, 0x00	; 0
    21ae:	f4 01       	movw	r30, r8
    21b0:	12 82       	std	Z+2, r1	; 0x02
    21b2:	90 91 6f 04 	lds	r25, 0x046F	; 0x80046f <button>
    21b6:	91 ff       	sbrs	r25, 1
    21b8:	03 c0       	rjmp	.+6      	; 0x21c0 <scroll_display+0x7a>
    21ba:	10 92 6f 04 	sts	0x046F, r1	; 0x80046f <button>
    21be:	64 2c       	mov	r6, r4
    21c0:	88 23       	and	r24, r24
    21c2:	09 f4       	brne	.+2      	; 0x21c6 <scroll_display+0x80>
    21c4:	73 c0       	rjmp	.+230    	; 0x22ac <scroll_display+0x166>
    21c6:	c0 32       	cpi	r28, 0x20	; 32
    21c8:	0c f4       	brge	.+2      	; 0x21cc <scroll_display+0x86>
    21ca:	6b c0       	rjmp	.+214    	; 0x22a2 <scroll_display+0x15c>
    21cc:	c8 01       	movw	r24, r16
    21ce:	0e 94 6f 0a 	call	0x14de	; 0x14de <delay_ms>
    21d2:	0e 94 33 0e 	call	0x1c66	; 0x1c66 <ledarray_left_shift>
    21d6:	1c 16       	cp	r1, r28
    21d8:	14 f4       	brge	.+4      	; 0x21de <scroll_display+0x98>
    21da:	d1 50       	subi	r29, 0x01	; 1
    21dc:	c1 50       	subi	r28, 0x01	; 1
    21de:	6d 2f       	mov	r22, r29
    21e0:	87 2d       	mov	r24, r7
    21e2:	0e 94 e8 0e 	call	0x1dd0	; 0x1dd0 <putChar>
    21e6:	c0 32       	cpi	r28, 0x20	; 32
    21e8:	8c f7       	brge	.-30     	; 0x21cc <scroll_display+0x86>
    21ea:	5b c0       	rjmp	.+182    	; 0x22a2 <scroll_display+0x15c>
    21ec:	6d 2f       	mov	r22, r29
    21ee:	87 2d       	mov	r24, r7
    21f0:	0e 94 e8 0e 	call	0x1dd0	; 0x1dd0 <putChar>
    21f4:	87 2d       	mov	r24, r7
    21f6:	0e 94 c6 0e 	call	0x1d8c	; 0x1d8c <getFontWidth>
    21fa:	8f 5f       	subi	r24, 0xFF	; 255
    21fc:	c8 2f       	mov	r28, r24
    21fe:	cd 0f       	add	r28, r29
    2200:	f5 01       	movw	r30, r10
    2202:	80 81       	ld	r24, Z
    2204:	81 11       	cpse	r24, r1
    2206:	06 c0       	rjmp	.+12     	; 0x2214 <scroll_display+0xce>
    2208:	c0 32       	cpi	r28, 0x20	; 32
    220a:	6c f1       	brlt	.+90     	; 0x2266 <scroll_display+0x120>
    220c:	f1 e0       	ldi	r31, 0x01	; 1
    220e:	6f 12       	cpse	r6, r31
    2210:	0c c0       	rjmp	.+24     	; 0x222a <scroll_display+0xe4>
    2212:	51 c0       	rjmp	.+162    	; 0x22b6 <scroll_display+0x170>
    2214:	8f ef       	ldi	r24, 0xFF	; 255
    2216:	c8 1a       	sub	r12, r24
    2218:	d8 0a       	sbc	r13, r24
    221a:	9f ef       	ldi	r25, 0xFF	; 255
    221c:	e9 1a       	sub	r14, r25
    221e:	f9 0a       	sbc	r15, r25
    2220:	84 2d       	mov	r24, r4
    2222:	e1 e0       	ldi	r30, 0x01	; 1
    2224:	6e 12       	cpse	r6, r30
    2226:	c3 cf       	rjmp	.-122    	; 0x21ae <scroll_display+0x68>
    2228:	54 c0       	rjmp	.+168    	; 0x22d2 <scroll_display+0x18c>
    222a:	ff 24       	eor	r15, r15
    222c:	f3 94       	inc	r15
    222e:	05 2d       	mov	r16, r5
    2230:	10 e0       	ldi	r17, 0x00	; 0
    2232:	80 91 6f 04 	lds	r24, 0x046F	; 0x80046f <button>
    2236:	81 ff       	sbrs	r24, 1
    2238:	03 c0       	rjmp	.+6      	; 0x2240 <scroll_display+0xfa>
    223a:	10 92 6f 04 	sts	0x046F, r1	; 0x80046f <button>
    223e:	6f 2c       	mov	r6, r15
    2240:	c8 01       	movw	r24, r16
    2242:	0e 94 6f 0a 	call	0x14de	; 0x14de <delay_ms>
    2246:	0e 94 33 0e 	call	0x1c66	; 0x1c66 <ledarray_left_shift>
    224a:	1c 16       	cp	r1, r28
    224c:	14 f4       	brge	.+4      	; 0x2252 <scroll_display+0x10c>
    224e:	d1 50       	subi	r29, 0x01	; 1
    2250:	c1 50       	subi	r28, 0x01	; 1
    2252:	6d 2f       	mov	r22, r29
    2254:	87 2d       	mov	r24, r7
    2256:	0e 94 e8 0e 	call	0x1dd0	; 0x1dd0 <putChar>
    225a:	c0 32       	cpi	r28, 0x20	; 32
    225c:	24 f0       	brlt	.+8      	; 0x2266 <scroll_display+0x120>
    225e:	f1 e0       	ldi	r31, 0x01	; 1
    2260:	6f 12       	cpse	r6, r31
    2262:	e7 cf       	rjmp	.-50     	; 0x2232 <scroll_display+0xec>
    2264:	28 c0       	rjmp	.+80     	; 0x22b6 <scroll_display+0x170>
    2266:	05 2d       	mov	r16, r5
    2268:	10 e0       	ldi	r17, 0x00	; 0
    226a:	c8 01       	movw	r24, r16
    226c:	0e 94 6f 0a 	call	0x14de	; 0x14de <delay_ms>
    2270:	81 e0       	ldi	r24, 0x01	; 1
    2272:	68 12       	cpse	r6, r24
    2274:	27 c0       	rjmp	.+78     	; 0x22c4 <scroll_display+0x17e>
    2276:	07 c0       	rjmp	.+14     	; 0x2286 <scroll_display+0x140>
    2278:	0e 94 33 0e 	call	0x1c66	; 0x1c66 <ledarray_left_shift>
    227c:	c8 01       	movw	r24, r16
    227e:	0e 94 6f 0a 	call	0x14de	; 0x14de <delay_ms>
    2282:	c1 50       	subi	r28, 0x01	; 1
    2284:	c9 f7       	brne	.-14     	; 0x2278 <scroll_display+0x132>
    2286:	10 92 6e 04 	sts	0x046E, r1	; 0x80046e <sys+0x10>
    228a:	10 92 6d 04 	sts	0x046D, r1	; 0x80046d <sys+0xf>
    228e:	80 91 5d 04 	lds	r24, 0x045D	; 0x80045d <flag>
    2292:	8f 7e       	andi	r24, 0xEF	; 239
    2294:	80 93 5d 04 	sts	0x045D, r24	; 0x80045d <flag>
    2298:	81 e0       	ldi	r24, 0x01	; 1
    229a:	61 10       	cpse	r6, r1
    229c:	24 c0       	rjmp	.+72     	; 0x22e6 <scroll_display+0x1a0>
    229e:	80 e0       	ldi	r24, 0x00	; 0
    22a0:	22 c0       	rjmp	.+68     	; 0x22e6 <scroll_display+0x1a0>
    22a2:	f7 01       	movw	r30, r14
    22a4:	70 80       	ld	r7, Z
    22a6:	56 01       	movw	r10, r12
    22a8:	dc 2f       	mov	r29, r28
    22aa:	a0 cf       	rjmp	.-192    	; 0x21ec <scroll_display+0xa6>
    22ac:	f7 01       	movw	r30, r14
    22ae:	70 80       	ld	r7, Z
    22b0:	56 01       	movw	r10, r12
    22b2:	df e1       	ldi	r29, 0x1F	; 31
    22b4:	9b cf       	rjmp	.-202    	; 0x21ec <scroll_display+0xa6>
    22b6:	85 2d       	mov	r24, r5
    22b8:	90 e0       	ldi	r25, 0x00	; 0
    22ba:	0e 94 6f 0a 	call	0x14de	; 0x14de <delay_ms>
    22be:	66 24       	eor	r6, r6
    22c0:	63 94       	inc	r6
    22c2:	e1 cf       	rjmp	.-62     	; 0x2286 <scroll_display+0x140>
    22c4:	0e 94 33 0e 	call	0x1c66	; 0x1c66 <ledarray_left_shift>
    22c8:	c8 01       	movw	r24, r16
    22ca:	0e 94 6f 0a 	call	0x14de	; 0x14de <delay_ms>
    22ce:	cf e1       	ldi	r28, 0x1F	; 31
    22d0:	d3 cf       	rjmp	.-90     	; 0x2278 <scroll_display+0x132>
    22d2:	c0 32       	cpi	r28, 0x20	; 32
    22d4:	44 f2       	brlt	.-112    	; 0x2266 <scroll_display+0x120>
    22d6:	ef cf       	rjmp	.-34     	; 0x22b6 <scroll_display+0x170>
    22d8:	05 2d       	mov	r16, r5
    22da:	10 e0       	ldi	r17, 0x00	; 0
    22dc:	c8 01       	movw	r24, r16
    22de:	0e 94 6f 0a 	call	0x14de	; 0x14de <delay_ms>
    22e2:	61 2c       	mov	r6, r1
    22e4:	ef cf       	rjmp	.-34     	; 0x22c4 <scroll_display+0x17e>
    22e6:	df 91       	pop	r29
    22e8:	cf 91       	pop	r28
    22ea:	1f 91       	pop	r17
    22ec:	0f 91       	pop	r16
    22ee:	ff 90       	pop	r15
    22f0:	ef 90       	pop	r14
    22f2:	df 90       	pop	r13
    22f4:	cf 90       	pop	r12
    22f6:	bf 90       	pop	r11
    22f8:	af 90       	pop	r10
    22fa:	9f 90       	pop	r9
    22fc:	8f 90       	pop	r8
    22fe:	7f 90       	pop	r7
    2300:	6f 90       	pop	r6
    2302:	5f 90       	pop	r5
    2304:	4f 90       	pop	r4
    2306:	08 95       	ret

00002308 <reboot>:
    2308:	64 e1       	ldi	r22, 0x14	; 20
    230a:	82 e4       	ldi	r24, 0x42	; 66
    230c:	91 e0       	ldi	r25, 0x01	; 1
    230e:	0e 94 a3 10 	call	0x2146	; 0x2146 <scroll_display>
    2312:	98 e0       	ldi	r25, 0x08	; 8
    2314:	88 e1       	ldi	r24, 0x18	; 24
    2316:	0f b6       	in	r0, 0x3f	; 63
    2318:	f8 94       	cli
    231a:	a8 95       	wdr
    231c:	81 bd       	out	0x21, r24	; 33
    231e:	0f be       	out	0x3f, r0	; 63
    2320:	91 bd       	out	0x21, r25	; 33
    2322:	ff cf       	rjmp	.-2      	; 0x2322 <reboot+0x1a>

00002324 <menueBrightness>:
    2324:	0f 93       	push	r16
    2326:	1f 93       	push	r17
    2328:	cf 93       	push	r28
    232a:	df 93       	push	r29
    232c:	0e 94 98 10 	call	0x2130	; 0x2130 <ledarray_blank>
    2330:	87 e0       	ldi	r24, 0x07	; 7
    2332:	90 e0       	ldi	r25, 0x00	; 0
    2334:	0e 94 7b 29 	call	0x52f6	; 0x52f6 <eeprom_read_byte>
    2338:	08 2f       	mov	r16, r24
    233a:	d0 e6       	ldi	r29, 0x60	; 96
    233c:	d8 0f       	add	r29, r24
    233e:	8c b3       	in	r24, 0x1c	; 28
    2340:	18 2f       	mov	r17, r24
    2342:	12 70       	andi	r17, 0x02	; 2
    2344:	81 fd       	sbrc	r24, 1
    2346:	fb cf       	rjmp	.-10     	; 0x233e <menueBrightness+0x1a>
    2348:	cd 2f       	mov	r28, r29
    234a:	80 91 6f 04 	lds	r24, 0x046F	; 0x80046f <button>
    234e:	83 ff       	sbrs	r24, 3
    2350:	08 c0       	rjmp	.+16     	; 0x2362 <menueBrightness+0x3e>
    2352:	10 92 6f 04 	sts	0x046F, r1	; 0x80046f <button>
    2356:	0e 94 98 10 	call	0x2130	; 0x2130 <ledarray_blank>
    235a:	cf 5f       	subi	r28, 0xFF	; 255
    235c:	c0 31       	cpi	r28, 0x10	; 16
    235e:	08 f0       	brcs	.+2      	; 0x2362 <menueBrightness+0x3e>
    2360:	c0 e0       	ldi	r28, 0x00	; 0
    2362:	80 91 6f 04 	lds	r24, 0x046F	; 0x80046f <button>
    2366:	82 ff       	sbrs	r24, 2
    2368:	07 c0       	rjmp	.+14     	; 0x2378 <menueBrightness+0x54>
    236a:	10 92 6f 04 	sts	0x046F, r1	; 0x80046f <button>
    236e:	0e 94 98 10 	call	0x2130	; 0x2130 <ledarray_blank>
    2372:	c1 50       	subi	r28, 0x01	; 1
    2374:	0a f4       	brpl	.+2      	; 0x2378 <menueBrightness+0x54>
    2376:	cf e0       	ldi	r28, 0x0F	; 15
    2378:	80 91 6f 04 	lds	r24, 0x046F	; 0x80046f <button>
    237c:	84 ff       	sbrs	r24, 4
    237e:	21 c0       	rjmp	.+66     	; 0x23c2 <menueBrightness+0x9e>
    2380:	10 92 6f 04 	sts	0x046F, r1	; 0x80046f <button>
    2384:	0e 94 98 10 	call	0x2130	; 0x2130 <ledarray_blank>
    2388:	c0 56       	subi	r28, 0x60	; 96
    238a:	8c 2f       	mov	r24, r28
    238c:	0e 94 bb 0a 	call	0x1576	; 0x1576 <ht1632cSendCmd>
    2390:	c0 93 7a 04 	sts	0x047A, r28	; 0x80047a <ram+0x5>
    2394:	6c 2f       	mov	r22, r28
    2396:	87 e0       	ldi	r24, 0x07	; 7
    2398:	90 e0       	ldi	r25, 0x00	; 0
    239a:	0e 94 89 29 	call	0x5312	; 0x5312 <eeprom_update_byte>
    239e:	6a e0       	ldi	r22, 0x0A	; 10
    23a0:	8f e4       	ldi	r24, 0x4F	; 79
    23a2:	91 e0       	ldi	r25, 0x01	; 1
    23a4:	0e 94 a3 10 	call	0x2146	; 0x2146 <scroll_display>
    23a8:	ee e5       	ldi	r30, 0x5E	; 94
    23aa:	f4 e0       	ldi	r31, 0x04	; 4
    23ac:	12 82       	std	Z+2, r1	; 0x02
    23ae:	10 82       	st	Z, r1
    23b0:	11 82       	std	Z+1, r1	; 0x01
    23b2:	10 92 6f 04 	sts	0x046F, r1	; 0x80046f <button>
    23b6:	80 91 5d 04 	lds	r24, 0x045D	; 0x80045d <flag>
    23ba:	8f 7e       	andi	r24, 0xEF	; 239
    23bc:	80 93 5d 04 	sts	0x045D, r24	; 0x80045d <flag>
    23c0:	38 c0       	rjmp	.+112    	; 0x2432 <menueBrightness+0x10e>
    23c2:	80 91 6f 04 	lds	r24, 0x046F	; 0x80046f <button>
    23c6:	81 fd       	sbrc	r24, 1
    23c8:	04 c0       	rjmp	.+8      	; 0x23d2 <menueBrightness+0xae>
    23ca:	80 91 5d 04 	lds	r24, 0x045D	; 0x80045d <flag>
    23ce:	84 ff       	sbrs	r24, 4
    23d0:	0e c0       	rjmp	.+28     	; 0x23ee <menueBrightness+0xca>
    23d2:	10 92 6f 04 	sts	0x046F, r1	; 0x80046f <button>
    23d6:	80 91 5d 04 	lds	r24, 0x045D	; 0x80045d <flag>
    23da:	8f 7e       	andi	r24, 0xEF	; 239
    23dc:	80 93 5d 04 	sts	0x045D, r24	; 0x80045d <flag>
    23e0:	0e 94 98 10 	call	0x2130	; 0x2130 <ledarray_blank>
    23e4:	80 2f       	mov	r24, r16
    23e6:	0e 94 bb 0a 	call	0x1576	; 0x1576 <ht1632cSendCmd>
    23ea:	11 e0       	ldi	r17, 0x01	; 1
    23ec:	22 c0       	rjmp	.+68     	; 0x2432 <menueBrightness+0x10e>
    23ee:	ca 30       	cpi	r28, 0x0A	; 10
    23f0:	30 f4       	brcc	.+12     	; 0x23fe <menueBrightness+0xda>
    23f2:	61 e0       	ldi	r22, 0x01	; 1
    23f4:	80 e3       	ldi	r24, 0x30	; 48
    23f6:	8c 0f       	add	r24, r28
    23f8:	0e 94 e8 0e 	call	0x1dd0	; 0x1dd0 <putChar>
    23fc:	09 c0       	rjmp	.+18     	; 0x2410 <menueBrightness+0xec>
    23fe:	61 e0       	ldi	r22, 0x01	; 1
    2400:	81 e3       	ldi	r24, 0x31	; 49
    2402:	0e 94 e8 0e 	call	0x1dd0	; 0x1dd0 <putChar>
    2406:	67 e0       	ldi	r22, 0x07	; 7
    2408:	86 e2       	ldi	r24, 0x26	; 38
    240a:	8c 0f       	add	r24, r28
    240c:	0e 94 e8 0e 	call	0x1dd0	; 0x1dd0 <putChar>
    2410:	80 ea       	ldi	r24, 0xA0	; 160
    2412:	8c 0f       	add	r24, r28
    2414:	0e 94 bb 0a 	call	0x1576	; 0x1576 <ht1632cSendCmd>
    2418:	cd 13       	cpse	r28, r29
    241a:	06 c0       	rjmp	.+12     	; 0x2428 <menueBrightness+0x104>
    241c:	6b e1       	ldi	r22, 0x1B	; 27
    241e:	87 ea       	ldi	r24, 0xA7	; 167
    2420:	0e 94 e8 0e 	call	0x1dd0	; 0x1dd0 <putChar>
    2424:	cd 2f       	mov	r28, r29
    2426:	91 cf       	rjmp	.-222    	; 0x234a <menueBrightness+0x26>
    2428:	6b e1       	ldi	r22, 0x1B	; 27
    242a:	85 e2       	ldi	r24, 0x25	; 37
    242c:	0e 94 e8 0e 	call	0x1dd0	; 0x1dd0 <putChar>
    2430:	8c cf       	rjmp	.-232    	; 0x234a <menueBrightness+0x26>
    2432:	81 2f       	mov	r24, r17
    2434:	df 91       	pop	r29
    2436:	cf 91       	pop	r28
    2438:	1f 91       	pop	r17
    243a:	0f 91       	pop	r16
    243c:	08 95       	ret

0000243e <info>:
    243e:	cf 93       	push	r28
    2440:	df 93       	push	r29
    2442:	cd b7       	in	r28, 0x3d	; 61
    2444:	de b7       	in	r29, 0x3e	; 62
    2446:	64 97       	sbiw	r28, 0x14	; 20
    2448:	0f b6       	in	r0, 0x3f	; 63
    244a:	f8 94       	cli
    244c:	de bf       	out	0x3e, r29	; 62
    244e:	0f be       	out	0x3f, r0	; 63
    2450:	cd bf       	out	0x3d, r28	; 61
    2452:	1a 82       	std	Y+2, r1	; 0x02
    2454:	19 82       	std	Y+1, r1	; 0x01
    2456:	fe 01       	movw	r30, r28
    2458:	33 96       	adiw	r30, 0x03	; 3
    245a:	82 e1       	ldi	r24, 0x12	; 18
    245c:	df 01       	movw	r26, r30
    245e:	1d 92       	st	X+, r1
    2460:	8a 95       	dec	r24
    2462:	e9 f7       	brne	.-6      	; 0x245e <info+0x20>
    2464:	80 91 6f 04 	lds	r24, 0x046F	; 0x80046f <button>
    2468:	84 fd       	sbrc	r24, 4
    246a:	1b c0       	rjmp	.+54     	; 0x24a2 <info+0x64>
    246c:	87 e0       	ldi	r24, 0x07	; 7
    246e:	e7 e6       	ldi	r30, 0x67	; 103
    2470:	f1 e0       	ldi	r31, 0x01	; 1
    2472:	de 01       	movw	r26, r28
    2474:	11 96       	adiw	r26, 0x01	; 1
    2476:	01 90       	ld	r0, Z+
    2478:	0d 92       	st	X+, r0
    247a:	8a 95       	dec	r24
    247c:	e1 f7       	brne	.-8      	; 0x2476 <info+0x38>
    247e:	0e 94 a7 06 	call	0xd4e	; 0xd4e <buildVer>
    2482:	bc 01       	movw	r22, r24
    2484:	ce 01       	movw	r24, r28
    2486:	01 96       	adiw	r24, 0x01	; 1
    2488:	0e 94 88 26 	call	0x4d10	; 0x4d10 <strcat>
    248c:	64 e1       	ldi	r22, 0x14	; 20
    248e:	ce 01       	movw	r24, r28
    2490:	01 96       	adiw	r24, 0x01	; 1
    2492:	0e 94 a3 10 	call	0x2146	; 0x2146 <scroll_display>
    2496:	90 91 6f 04 	lds	r25, 0x046F	; 0x80046f <button>
    249a:	94 fd       	sbrc	r25, 4
    249c:	02 c0       	rjmp	.+4      	; 0x24a2 <info+0x64>
    249e:	81 30       	cpi	r24, 0x01	; 1
    24a0:	29 f7       	brne	.-54     	; 0x246c <info+0x2e>
    24a2:	0e 94 98 10 	call	0x2130	; 0x2130 <ledarray_blank>
    24a6:	10 92 6f 04 	sts	0x046F, r1	; 0x80046f <button>
    24aa:	80 e0       	ldi	r24, 0x00	; 0
    24ac:	64 96       	adiw	r28, 0x14	; 20
    24ae:	0f b6       	in	r0, 0x3f	; 63
    24b0:	f8 94       	cli
    24b2:	de bf       	out	0x3e, r29	; 62
    24b4:	0f be       	out	0x3f, r0	; 63
    24b6:	cd bf       	out	0x3d, r28	; 61
    24b8:	df 91       	pop	r29
    24ba:	cf 91       	pop	r28
    24bc:	08 95       	ret

000024be <scrollDate>:
    24be:	ff 92       	push	r15
    24c0:	0f 93       	push	r16
    24c2:	1f 93       	push	r17
    24c4:	cf 93       	push	r28
    24c6:	df 93       	push	r29
    24c8:	cd b7       	in	r28, 0x3d	; 61
    24ca:	de b7       	in	r29, 0x3e	; 62
    24cc:	c2 54       	subi	r28, 0x42	; 66
    24ce:	d1 09       	sbc	r29, r1
    24d0:	0f b6       	in	r0, 0x3f	; 63
    24d2:	f8 94       	cli
    24d4:	de bf       	out	0x3e, r29	; 62
    24d6:	0f be       	out	0x3f, r0	; 63
    24d8:	cd bf       	out	0x3d, r28	; 61
    24da:	f6 2e       	mov	r15, r22
    24dc:	fe 01       	movw	r30, r28
    24de:	33 96       	adiw	r30, 0x03	; 3
    24e0:	2a e3       	ldi	r18, 0x3A	; 58
    24e2:	df 01       	movw	r26, r30
    24e4:	1d 92       	st	X+, r1
    24e6:	2a 95       	dec	r18
    24e8:	e9 f7       	brne	.-6      	; 0x24e4 <scrollDate+0x26>
    24ea:	fc 01       	movw	r30, r24
    24ec:	24 81       	ldd	r18, Z+4	; 0x04
    24ee:	32 2f       	mov	r19, r18
    24f0:	32 95       	swap	r19
    24f2:	3f 70       	andi	r19, 0x0F	; 15
    24f4:	30 5d       	subi	r19, 0xD0	; 208
    24f6:	39 83       	std	Y+1, r19	; 0x01
    24f8:	32 2f       	mov	r19, r18
    24fa:	3f 70       	andi	r19, 0x0F	; 15
    24fc:	30 5d       	subi	r19, 0xD0	; 208
    24fe:	3a 83       	std	Y+2, r19	; 0x02
    2500:	3e e2       	ldi	r19, 0x2E	; 46
    2502:	3b 83       	std	Y+3, r19	; 0x03
    2504:	63 81       	ldd	r22, Z+3	; 0x03
    2506:	46 2f       	mov	r20, r22
    2508:	42 95       	swap	r20
    250a:	4f 70       	andi	r20, 0x0F	; 15
    250c:	40 5d       	subi	r20, 0xD0	; 208
    250e:	4c 83       	std	Y+4, r20	; 0x04
    2510:	46 2f       	mov	r20, r22
    2512:	4f 70       	andi	r20, 0x0F	; 15
    2514:	40 5d       	subi	r20, 0xD0	; 208
    2516:	4d 83       	std	Y+5, r20	; 0x05
    2518:	3e 83       	std	Y+6, r19	; 0x06
    251a:	42 e3       	ldi	r20, 0x32	; 50
    251c:	4f 83       	std	Y+7, r20	; 0x07
    251e:	40 e3       	ldi	r20, 0x30	; 48
    2520:	48 87       	std	Y+8, r20	; 0x08
    2522:	46 81       	ldd	r20, Z+6	; 0x06
    2524:	57 81       	ldd	r21, Z+7	; 0x07
    2526:	fa 01       	movw	r30, r20
    2528:	f2 95       	swap	r31
    252a:	e2 95       	swap	r30
    252c:	ef 70       	andi	r30, 0x0F	; 15
    252e:	ef 27       	eor	r30, r31
    2530:	ff 70       	andi	r31, 0x0F	; 15
    2532:	ef 27       	eor	r30, r31
    2534:	e0 5d       	subi	r30, 0xD0	; 208
    2536:	e9 87       	std	Y+9, r30	; 0x09
    2538:	74 2f       	mov	r23, r20
    253a:	7f 70       	andi	r23, 0x0F	; 15
    253c:	70 5d       	subi	r23, 0xD0	; 208
    253e:	7a 87       	std	Y+10, r23	; 0x0a
    2540:	3b 87       	std	Y+11, r19	; 0x0b
    2542:	30 91 76 00 	lds	r19, 0x0076	; 0x800076 <time+0x8>
    2546:	33 23       	and	r19, r19
    2548:	19 f0       	breq	.+6      	; 0x2550 <scrollDate+0x92>
    254a:	31 30       	cpi	r19, 0x01	; 1
    254c:	79 f0       	breq	.+30     	; 0x256c <scrollDate+0xae>
    254e:	1b c0       	rjmp	.+54     	; 0x2586 <scrollDate+0xc8>
    2550:	de 01       	movw	r26, r28
    2552:	1c 96       	adiw	r26, 0x0c	; 12
    2554:	0d 90       	ld	r0, X+
    2556:	00 20       	and	r0, r0
    2558:	e9 f7       	brne	.-6      	; 0x2554 <scrollDate+0x96>
    255a:	11 97       	sbiw	r26, 0x01	; 1
    255c:	36 e0       	ldi	r19, 0x06	; 6
    255e:	ee e6       	ldi	r30, 0x6E	; 110
    2560:	f1 e0       	ldi	r31, 0x01	; 1
    2562:	01 90       	ld	r0, Z+
    2564:	0d 92       	st	X+, r0
    2566:	3a 95       	dec	r19
    2568:	e1 f7       	brne	.-8      	; 0x2562 <scrollDate+0xa4>
    256a:	0d c0       	rjmp	.+26     	; 0x2586 <scrollDate+0xc8>
    256c:	de 01       	movw	r26, r28
    256e:	1c 96       	adiw	r26, 0x0c	; 12
    2570:	0d 90       	ld	r0, X+
    2572:	00 20       	and	r0, r0
    2574:	e9 f7       	brne	.-6      	; 0x2570 <scrollDate+0xb2>
    2576:	11 97       	sbiw	r26, 0x01	; 1
    2578:	36 e0       	ldi	r19, 0x06	; 6
    257a:	e4 e7       	ldi	r30, 0x74	; 116
    257c:	f1 e0       	ldi	r31, 0x01	; 1
    257e:	01 90       	ld	r0, Z+
    2580:	0d 92       	st	X+, r0
    2582:	3a 95       	dec	r19
    2584:	e1 f7       	brne	.-8      	; 0x257e <scrollDate+0xc0>
    2586:	dc 01       	movw	r26, r24
    2588:	15 96       	adiw	r26, 0x05	; 5
    258a:	9c 91       	ld	r25, X
    258c:	93 30       	cpi	r25, 0x03	; 3
    258e:	49 f1       	breq	.+82     	; 0x25e2 <scrollDate+0x124>
    2590:	28 f4       	brcc	.+10     	; 0x259c <scrollDate+0xde>
    2592:	99 23       	and	r25, r25
    2594:	51 f0       	breq	.+20     	; 0x25aa <scrollDate+0xec>
    2596:	91 30       	cpi	r25, 0x01	; 1
    2598:	b1 f0       	breq	.+44     	; 0x25c6 <scrollDate+0x108>
    259a:	5a c0       	rjmp	.+180    	; 0x2650 <scrollDate+0x192>
    259c:	95 30       	cpi	r25, 0x05	; 5
    259e:	e9 f1       	breq	.+122    	; 0x261a <scrollDate+0x15c>
    25a0:	70 f1       	brcs	.+92     	; 0x25fe <scrollDate+0x140>
    25a2:	96 30       	cpi	r25, 0x06	; 6
    25a4:	09 f4       	brne	.+2      	; 0x25a8 <scrollDate+0xea>
    25a6:	47 c0       	rjmp	.+142    	; 0x2636 <scrollDate+0x178>
    25a8:	53 c0       	rjmp	.+166    	; 0x2650 <scrollDate+0x192>
    25aa:	de 01       	movw	r26, r28
    25ac:	51 96       	adiw	r26, 0x11	; 17
    25ae:	0d 90       	ld	r0, X+
    25b0:	00 20       	and	r0, r0
    25b2:	e9 f7       	brne	.-6      	; 0x25ae <scrollDate+0xf0>
    25b4:	11 97       	sbiw	r26, 0x01	; 1
    25b6:	88 e0       	ldi	r24, 0x08	; 8
    25b8:	ea e7       	ldi	r30, 0x7A	; 122
    25ba:	f1 e0       	ldi	r31, 0x01	; 1
    25bc:	01 90       	ld	r0, Z+
    25be:	0d 92       	st	X+, r0
    25c0:	8a 95       	dec	r24
    25c2:	e1 f7       	brne	.-8      	; 0x25bc <scrollDate+0xfe>
    25c4:	45 c0       	rjmp	.+138    	; 0x2650 <scrollDate+0x192>
    25c6:	de 01       	movw	r26, r28
    25c8:	51 96       	adiw	r26, 0x11	; 17
    25ca:	0d 90       	ld	r0, X+
    25cc:	00 20       	and	r0, r0
    25ce:	e9 f7       	brne	.-6      	; 0x25ca <scrollDate+0x10c>
    25d0:	11 97       	sbiw	r26, 0x01	; 1
    25d2:	87 e0       	ldi	r24, 0x07	; 7
    25d4:	e2 e8       	ldi	r30, 0x82	; 130
    25d6:	f1 e0       	ldi	r31, 0x01	; 1
    25d8:	01 90       	ld	r0, Z+
    25da:	0d 92       	st	X+, r0
    25dc:	8a 95       	dec	r24
    25de:	e1 f7       	brne	.-8      	; 0x25d8 <scrollDate+0x11a>
    25e0:	37 c0       	rjmp	.+110    	; 0x2650 <scrollDate+0x192>
    25e2:	de 01       	movw	r26, r28
    25e4:	51 96       	adiw	r26, 0x11	; 17
    25e6:	0d 90       	ld	r0, X+
    25e8:	00 20       	and	r0, r0
    25ea:	e9 f7       	brne	.-6      	; 0x25e6 <scrollDate+0x128>
    25ec:	11 97       	sbiw	r26, 0x01	; 1
    25ee:	89 e0       	ldi	r24, 0x09	; 9
    25f0:	e9 e8       	ldi	r30, 0x89	; 137
    25f2:	f1 e0       	ldi	r31, 0x01	; 1
    25f4:	01 90       	ld	r0, Z+
    25f6:	0d 92       	st	X+, r0
    25f8:	8a 95       	dec	r24
    25fa:	e1 f7       	brne	.-8      	; 0x25f4 <scrollDate+0x136>
    25fc:	29 c0       	rjmp	.+82     	; 0x2650 <scrollDate+0x192>
    25fe:	de 01       	movw	r26, r28
    2600:	51 96       	adiw	r26, 0x11	; 17
    2602:	0d 90       	ld	r0, X+
    2604:	00 20       	and	r0, r0
    2606:	e9 f7       	brne	.-6      	; 0x2602 <scrollDate+0x144>
    2608:	11 97       	sbiw	r26, 0x01	; 1
    260a:	8b e0       	ldi	r24, 0x0B	; 11
    260c:	e2 e9       	ldi	r30, 0x92	; 146
    260e:	f1 e0       	ldi	r31, 0x01	; 1
    2610:	01 90       	ld	r0, Z+
    2612:	0d 92       	st	X+, r0
    2614:	8a 95       	dec	r24
    2616:	e1 f7       	brne	.-8      	; 0x2610 <scrollDate+0x152>
    2618:	1b c0       	rjmp	.+54     	; 0x2650 <scrollDate+0x192>
    261a:	de 01       	movw	r26, r28
    261c:	51 96       	adiw	r26, 0x11	; 17
    261e:	0d 90       	ld	r0, X+
    2620:	00 20       	and	r0, r0
    2622:	e9 f7       	brne	.-6      	; 0x261e <scrollDate+0x160>
    2624:	11 97       	sbiw	r26, 0x01	; 1
    2626:	88 e0       	ldi	r24, 0x08	; 8
    2628:	ed e9       	ldi	r30, 0x9D	; 157
    262a:	f1 e0       	ldi	r31, 0x01	; 1
    262c:	01 90       	ld	r0, Z+
    262e:	0d 92       	st	X+, r0
    2630:	8a 95       	dec	r24
    2632:	e1 f7       	brne	.-8      	; 0x262c <scrollDate+0x16e>
    2634:	0d c0       	rjmp	.+26     	; 0x2650 <scrollDate+0x192>
    2636:	de 01       	movw	r26, r28
    2638:	51 96       	adiw	r26, 0x11	; 17
    263a:	0d 90       	ld	r0, X+
    263c:	00 20       	and	r0, r0
    263e:	e9 f7       	brne	.-6      	; 0x263a <scrollDate+0x17c>
    2640:	11 97       	sbiw	r26, 0x01	; 1
    2642:	88 e0       	ldi	r24, 0x08	; 8
    2644:	e5 ea       	ldi	r30, 0xA5	; 165
    2646:	f1 e0       	ldi	r31, 0x01	; 1
    2648:	01 90       	ld	r0, Z+
    264a:	0d 92       	st	X+, r0
    264c:	8a 95       	dec	r24
    264e:	e1 f7       	brne	.-8      	; 0x2648 <scrollDate+0x18a>
    2650:	86 e0       	ldi	r24, 0x06	; 6
    2652:	e2 eb       	ldi	r30, 0xB2	; 178
    2654:	f1 e0       	ldi	r31, 0x01	; 1
    2656:	de 01       	movw	r26, r28
    2658:	dd 96       	adiw	r26, 0x3d	; 61
    265a:	01 90       	ld	r0, Z+
    265c:	0d 92       	st	X+, r0
    265e:	8a 95       	dec	r24
    2660:	e1 f7       	brne	.-8      	; 0x265a <scrollDate+0x19c>
    2662:	8e 01       	movw	r16, r28
    2664:	0f 5f       	subi	r16, 0xFF	; 255
    2666:	1f 4f       	sbci	r17, 0xFF	; 255
    2668:	d8 01       	movw	r26, r16
    266a:	0d 90       	ld	r0, X+
    266c:	00 20       	and	r0, r0
    266e:	e9 f7       	brne	.-6      	; 0x266a <scrollDate+0x1ac>
    2670:	11 97       	sbiw	r26, 0x01	; 1
    2672:	85 e0       	ldi	r24, 0x05	; 5
    2674:	ed ea       	ldi	r30, 0xAD	; 173
    2676:	f1 e0       	ldi	r31, 0x01	; 1
    2678:	01 90       	ld	r0, Z+
    267a:	0d 92       	st	X+, r0
    267c:	8a 95       	dec	r24
    267e:	e1 f7       	brne	.-8      	; 0x2678 <scrollDate+0x1ba>
    2680:	70 e0       	ldi	r23, 0x00	; 0
    2682:	82 2f       	mov	r24, r18
    2684:	90 e0       	ldi	r25, 0x00	; 0
    2686:	0e 94 c8 0d 	call	0x1b90	; 0x1b90 <rtcGetWeek>
    268a:	4a e0       	ldi	r20, 0x0A	; 10
    268c:	be 01       	movw	r22, r28
    268e:	63 5c       	subi	r22, 0xC3	; 195
    2690:	7f 4f       	sbci	r23, 0xFF	; 255
    2692:	0e 94 93 26 	call	0x4d26	; 0x4d26 <__itoa_ncheck>
    2696:	bc 01       	movw	r22, r24
    2698:	c8 01       	movw	r24, r16
    269a:	0e 94 88 26 	call	0x4d10	; 0x4d10 <strcat>
    269e:	6f 2d       	mov	r22, r15
    26a0:	c8 01       	movw	r24, r16
    26a2:	0e 94 a3 10 	call	0x2146	; 0x2146 <scroll_display>
    26a6:	0e 94 98 10 	call	0x2130	; 0x2130 <ledarray_blank>
    26aa:	ce 5b       	subi	r28, 0xBE	; 190
    26ac:	df 4f       	sbci	r29, 0xFF	; 255
    26ae:	0f b6       	in	r0, 0x3f	; 63
    26b0:	f8 94       	cli
    26b2:	de bf       	out	0x3e, r29	; 62
    26b4:	0f be       	out	0x3f, r0	; 63
    26b6:	cd bf       	out	0x3d, r28	; 61
    26b8:	df 91       	pop	r29
    26ba:	cf 91       	pop	r28
    26bc:	1f 91       	pop	r17
    26be:	0f 91       	pop	r16
    26c0:	ff 90       	pop	r15
    26c2:	08 95       	ret

000026c4 <scrollTemperature>:
    26c4:	ff 92       	push	r15
    26c6:	0f 93       	push	r16
    26c8:	1f 93       	push	r17
    26ca:	cf 93       	push	r28
    26cc:	df 93       	push	r29
    26ce:	cd b7       	in	r28, 0x3d	; 61
    26d0:	de b7       	in	r29, 0x3e	; 62
    26d2:	a3 97       	sbiw	r28, 0x23	; 35
    26d4:	0f b6       	in	r0, 0x3f	; 63
    26d6:	f8 94       	cli
    26d8:	de bf       	out	0x3e, r29	; 62
    26da:	0f be       	out	0x3f, r0	; 63
    26dc:	cd bf       	out	0x3d, r28	; 61
    26de:	f8 2e       	mov	r15, r24
    26e0:	1a 82       	std	Y+2, r1	; 0x02
    26e2:	19 82       	std	Y+1, r1	; 0x01
    26e4:	fe 01       	movw	r30, r28
    26e6:	33 96       	adiw	r30, 0x03	; 3
    26e8:	81 e2       	ldi	r24, 0x21	; 33
    26ea:	df 01       	movw	r26, r30
    26ec:	1d 92       	st	X+, r1
    26ee:	8a 95       	dec	r24
    26f0:	e9 f7       	brne	.-6      	; 0x26ec <scrollTemperature+0x28>
    26f2:	f8 94       	cli
    26f4:	83 e0       	ldi	r24, 0x03	; 3
    26f6:	94 e0       	ldi	r25, 0x04	; 4
    26f8:	9f 93       	push	r25
    26fa:	8f 93       	push	r24
    26fc:	8d b7       	in	r24, 0x3d	; 61
    26fe:	9e b7       	in	r25, 0x3e	; 62
    2700:	4e 97       	sbiw	r24, 0x1e	; 30
    2702:	0f b6       	in	r0, 0x3f	; 63
    2704:	f8 94       	cli
    2706:	9e bf       	out	0x3e, r25	; 62
    2708:	0f be       	out	0x3f, r0	; 63
    270a:	8d bf       	out	0x3d, r24	; 61
    270c:	ad b7       	in	r26, 0x3d	; 61
    270e:	be b7       	in	r27, 0x3e	; 62
    2710:	11 96       	adiw	r26, 0x01	; 1
    2712:	8e e1       	ldi	r24, 0x1E	; 30
    2714:	e9 ee       	ldi	r30, 0xE9	; 233
    2716:	f3 e0       	ldi	r31, 0x03	; 3
    2718:	01 90       	ld	r0, Z+
    271a:	0d 92       	st	X+, r0
    271c:	8a 95       	dec	r24
    271e:	e1 f7       	brne	.-8      	; 0x2718 <scrollTemperature+0x54>
    2720:	0e 94 ac 03 	call	0x758	; 0x758 <bmpGetTemperaure>
    2724:	78 94       	sei
    2726:	40 91 03 04 	lds	r20, 0x0403	; 0x800403 <cal+0x1a>
    272a:	50 91 04 04 	lds	r21, 0x0404	; 0x800404 <cal+0x1b>
    272e:	60 91 05 04 	lds	r22, 0x0405	; 0x800405 <cal+0x1c>
    2732:	70 91 06 04 	lds	r23, 0x0406	; 0x800406 <cal+0x1d>
    2736:	0f b6       	in	r0, 0x3f	; 63
    2738:	f8 94       	cli
    273a:	de bf       	out	0x3e, r29	; 62
    273c:	0f be       	out	0x3f, r0	; 63
    273e:	cd bf       	out	0x3d, r28	; 61
    2740:	14 16       	cp	r1, r20
    2742:	15 06       	cpc	r1, r21
    2744:	16 06       	cpc	r1, r22
    2746:	17 06       	cpc	r1, r23
    2748:	4c f4       	brge	.+18     	; 0x275c <scrollTemperature+0x98>
    274a:	88 e1       	ldi	r24, 0x18	; 24
    274c:	e8 eb       	ldi	r30, 0xB8	; 184
    274e:	f1 e0       	ldi	r31, 0x01	; 1
    2750:	de 01       	movw	r26, r28
    2752:	11 96       	adiw	r26, 0x01	; 1
    2754:	01 90       	ld	r0, Z+
    2756:	0d 92       	st	X+, r0
    2758:	8a 95       	dec	r24
    275a:	e1 f7       	brne	.-8      	; 0x2754 <scrollTemperature+0x90>
    275c:	77 23       	and	r23, r23
    275e:	c4 f4       	brge	.+48     	; 0x2790 <scrollTemperature+0xcc>
    2760:	88 e1       	ldi	r24, 0x18	; 24
    2762:	e0 ed       	ldi	r30, 0xD0	; 208
    2764:	f1 e0       	ldi	r31, 0x01	; 1
    2766:	de 01       	movw	r26, r28
    2768:	11 96       	adiw	r26, 0x01	; 1
    276a:	01 90       	ld	r0, Z+
    276c:	0d 92       	st	X+, r0
    276e:	8a 95       	dec	r24
    2770:	e1 f7       	brne	.-8      	; 0x276a <scrollTemperature+0xa6>
    2772:	70 95       	com	r23
    2774:	60 95       	com	r22
    2776:	50 95       	com	r21
    2778:	41 95       	neg	r20
    277a:	5f 4f       	sbci	r21, 0xFF	; 255
    277c:	6f 4f       	sbci	r22, 0xFF	; 255
    277e:	7f 4f       	sbci	r23, 0xFF	; 255
    2780:	40 93 03 04 	sts	0x0403, r20	; 0x800403 <cal+0x1a>
    2784:	50 93 04 04 	sts	0x0404, r21	; 0x800404 <cal+0x1b>
    2788:	60 93 05 04 	sts	0x0405, r22	; 0x800405 <cal+0x1c>
    278c:	70 93 06 04 	sts	0x0406, r23	; 0x800406 <cal+0x1d>
    2790:	60 91 03 04 	lds	r22, 0x0403	; 0x800403 <cal+0x1a>
    2794:	70 91 04 04 	lds	r23, 0x0404	; 0x800404 <cal+0x1b>
    2798:	80 91 05 04 	lds	r24, 0x0405	; 0x800405 <cal+0x1c>
    279c:	90 91 06 04 	lds	r25, 0x0406	; 0x800406 <cal+0x1d>
    27a0:	2a e0       	ldi	r18, 0x0A	; 10
    27a2:	30 e0       	ldi	r19, 0x00	; 0
    27a4:	40 e0       	ldi	r20, 0x00	; 0
    27a6:	50 e0       	ldi	r21, 0x00	; 0
    27a8:	0e 94 1d 26 	call	0x4c3a	; 0x4c3a <__divmodsi4>
    27ac:	9f 93       	push	r25
    27ae:	8f 93       	push	r24
    27b0:	7f 93       	push	r23
    27b2:	6f 93       	push	r22
    27b4:	5f 93       	push	r21
    27b6:	4f 93       	push	r20
    27b8:	3f 93       	push	r19
    27ba:	2f 93       	push	r18
    27bc:	88 ee       	ldi	r24, 0xE8	; 232
    27be:	91 e0       	ldi	r25, 0x01	; 1
    27c0:	9f 93       	push	r25
    27c2:	8f 93       	push	r24
    27c4:	8e 01       	movw	r16, r28
    27c6:	0f 5f       	subi	r16, 0xFF	; 255
    27c8:	1f 4f       	sbci	r17, 0xFF	; 255
    27ca:	1f 93       	push	r17
    27cc:	0f 93       	push	r16
    27ce:	0e 94 b8 26 	call	0x4d70	; 0x4d70 <sprintf>
    27d2:	6f 2d       	mov	r22, r15
    27d4:	c8 01       	movw	r24, r16
    27d6:	0e 94 a3 10 	call	0x2146	; 0x2146 <scroll_display>
    27da:	0e 94 98 10 	call	0x2130	; 0x2130 <ledarray_blank>
    27de:	0f b6       	in	r0, 0x3f	; 63
    27e0:	f8 94       	cli
    27e2:	de bf       	out	0x3e, r29	; 62
    27e4:	0f be       	out	0x3f, r0	; 63
    27e6:	cd bf       	out	0x3d, r28	; 61
    27e8:	a3 96       	adiw	r28, 0x23	; 35
    27ea:	0f b6       	in	r0, 0x3f	; 63
    27ec:	f8 94       	cli
    27ee:	de bf       	out	0x3e, r29	; 62
    27f0:	0f be       	out	0x3f, r0	; 63
    27f2:	cd bf       	out	0x3d, r28	; 61
    27f4:	df 91       	pop	r29
    27f6:	cf 91       	pop	r28
    27f8:	1f 91       	pop	r17
    27fa:	0f 91       	pop	r16
    27fc:	ff 90       	pop	r15
    27fe:	08 95       	ret

00002800 <scrollPressure>:
    2800:	bf 92       	push	r11
    2802:	cf 92       	push	r12
    2804:	df 92       	push	r13
    2806:	ef 92       	push	r14
    2808:	ff 92       	push	r15
    280a:	0f 93       	push	r16
    280c:	1f 93       	push	r17
    280e:	cf 93       	push	r28
    2810:	df 93       	push	r29
    2812:	cd b7       	in	r28, 0x3d	; 61
    2814:	de b7       	in	r29, 0x3e	; 62
    2816:	a3 97       	sbiw	r28, 0x23	; 35
    2818:	0f b6       	in	r0, 0x3f	; 63
    281a:	f8 94       	cli
    281c:	de bf       	out	0x3e, r29	; 62
    281e:	0f be       	out	0x3f, r0	; 63
    2820:	cd bf       	out	0x3d, r28	; 61
    2822:	b8 2e       	mov	r11, r24
    2824:	1a 82       	std	Y+2, r1	; 0x02
    2826:	19 82       	std	Y+1, r1	; 0x01
    2828:	fe 01       	movw	r30, r28
    282a:	33 96       	adiw	r30, 0x03	; 3
    282c:	81 e2       	ldi	r24, 0x21	; 33
    282e:	df 01       	movw	r26, r30
    2830:	1d 92       	st	X+, r1
    2832:	8a 95       	dec	r24
    2834:	e9 f7       	brne	.-6      	; 0x2830 <scrollPressure+0x30>
    2836:	f8 94       	cli
    2838:	63 e0       	ldi	r22, 0x03	; 3
    283a:	89 ee       	ldi	r24, 0xE9	; 233
    283c:	93 e0       	ldi	r25, 0x03	; 3
    283e:	0e 94 89 04 	call	0x912	; 0x912 <bmp180GetPressure>
    2842:	78 94       	sei
    2844:	09 ee       	ldi	r16, 0xE9	; 233
    2846:	13 e0       	ldi	r17, 0x03	; 3
    2848:	f8 01       	movw	r30, r16
    284a:	66 89       	ldd	r22, Z+22	; 0x16
    284c:	77 89       	ldd	r23, Z+23	; 0x17
    284e:	80 8d       	ldd	r24, Z+24	; 0x18
    2850:	91 8d       	ldd	r25, Z+25	; 0x19
    2852:	0e 94 de 24 	call	0x49bc	; 0x49bc <__floatsisf>
    2856:	2a e0       	ldi	r18, 0x0A	; 10
    2858:	37 ed       	ldi	r19, 0xD7	; 215
    285a:	43 e2       	ldi	r20, 0x23	; 35
    285c:	5c e3       	ldi	r21, 0x3C	; 60
    285e:	0e 94 42 25 	call	0x4a84	; 0x4a84 <__mulsf3>
    2862:	0e 94 a6 24 	call	0x494c	; 0x494c <__fixsfsi>
    2866:	6b 01       	movw	r12, r22
    2868:	7c 01       	movw	r14, r24
    286a:	d8 01       	movw	r26, r16
    286c:	56 96       	adiw	r26, 0x16	; 22
    286e:	6d 93       	st	X+, r22
    2870:	7d 93       	st	X+, r23
    2872:	8d 93       	st	X+, r24
    2874:	9c 93       	st	X, r25
    2876:	59 97       	sbiw	r26, 0x19	; 25
    2878:	87 e1       	ldi	r24, 0x17	; 23
    287a:	e8 e0       	ldi	r30, 0x08	; 8
    287c:	f2 e0       	ldi	r31, 0x02	; 2
    287e:	8e 01       	movw	r16, r28
    2880:	0f 5f       	subi	r16, 0xFF	; 255
    2882:	1f 4f       	sbci	r17, 0xFF	; 255
    2884:	d8 01       	movw	r26, r16
    2886:	01 90       	ld	r0, Z+
    2888:	0d 92       	st	X+, r0
    288a:	8a 95       	dec	r24
    288c:	e1 f7       	brne	.-8      	; 0x2886 <scrollPressure+0x86>
    288e:	f8 01       	movw	r30, r16
    2890:	01 90       	ld	r0, Z+
    2892:	00 20       	and	r0, r0
    2894:	e9 f7       	brne	.-6      	; 0x2890 <scrollPressure+0x90>
    2896:	bf 01       	movw	r22, r30
    2898:	61 50       	subi	r22, 0x01	; 1
    289a:	71 09       	sbc	r23, r1
    289c:	4a e0       	ldi	r20, 0x0A	; 10
    289e:	c6 01       	movw	r24, r12
    28a0:	0e 94 93 26 	call	0x4d26	; 0x4d26 <__itoa_ncheck>
    28a4:	d8 01       	movw	r26, r16
    28a6:	0d 90       	ld	r0, X+
    28a8:	00 20       	and	r0, r0
    28aa:	e9 f7       	brne	.-6      	; 0x28a6 <scrollPressure+0xa6>
    28ac:	11 97       	sbiw	r26, 0x01	; 1
    28ae:	85 e0       	ldi	r24, 0x05	; 5
    28b0:	ef e1       	ldi	r30, 0x1F	; 31
    28b2:	f2 e0       	ldi	r31, 0x02	; 2
    28b4:	01 90       	ld	r0, Z+
    28b6:	0d 92       	st	X+, r0
    28b8:	8a 95       	dec	r24
    28ba:	e1 f7       	brne	.-8      	; 0x28b4 <scrollPressure+0xb4>
    28bc:	6b 2d       	mov	r22, r11
    28be:	c8 01       	movw	r24, r16
    28c0:	0e 94 a3 10 	call	0x2146	; 0x2146 <scroll_display>
    28c4:	0e 94 98 10 	call	0x2130	; 0x2130 <ledarray_blank>
    28c8:	a3 96       	adiw	r28, 0x23	; 35
    28ca:	0f b6       	in	r0, 0x3f	; 63
    28cc:	f8 94       	cli
    28ce:	de bf       	out	0x3e, r29	; 62
    28d0:	0f be       	out	0x3f, r0	; 63
    28d2:	cd bf       	out	0x3d, r28	; 61
    28d4:	df 91       	pop	r29
    28d6:	cf 91       	pop	r28
    28d8:	1f 91       	pop	r17
    28da:	0f 91       	pop	r16
    28dc:	ff 90       	pop	r15
    28de:	ef 90       	pop	r14
    28e0:	df 90       	pop	r13
    28e2:	cf 90       	pop	r12
    28e4:	bf 90       	pop	r11
    28e6:	08 95       	ret

000028e8 <uint8ToDisp>:
    28e8:	1f 93       	push	r17
    28ea:	cf 93       	push	r28
    28ec:	df 93       	push	r29
    28ee:	d8 2f       	mov	r29, r24
    28f0:	16 2f       	mov	r17, r22
    28f2:	cd ec       	ldi	r28, 0xCD	; 205
    28f4:	8c 9f       	mul	r24, r28
    28f6:	c1 2d       	mov	r28, r1
    28f8:	11 24       	eor	r1, r1
    28fa:	c6 95       	lsr	r28
    28fc:	c6 95       	lsr	r28
    28fe:	c6 95       	lsr	r28
    2900:	80 e3       	ldi	r24, 0x30	; 48
    2902:	8c 0f       	add	r24, r28
    2904:	0e 94 e8 0e 	call	0x1dd0	; 0x1dd0 <putChar>
    2908:	66 e0       	ldi	r22, 0x06	; 6
    290a:	61 0f       	add	r22, r17
    290c:	cc 0f       	add	r28, r28
    290e:	8c 2f       	mov	r24, r28
    2910:	88 0f       	add	r24, r24
    2912:	88 0f       	add	r24, r24
    2914:	c8 0f       	add	r28, r24
    2916:	8d 2f       	mov	r24, r29
    2918:	8c 1b       	sub	r24, r28
    291a:	80 5d       	subi	r24, 0xD0	; 208
    291c:	0e 94 e8 0e 	call	0x1dd0	; 0x1dd0 <putChar>
    2920:	df 91       	pop	r29
    2922:	cf 91       	pop	r28
    2924:	1f 91       	pop	r17
    2926:	08 95       	ret

00002928 <blink2Digit>:
    2928:	cf 93       	push	r28
    292a:	c6 2f       	mov	r28, r22
    292c:	20 91 6b 04 	lds	r18, 0x046B	; 0x80046b <sys+0xd>
    2930:	30 91 6c 04 	lds	r19, 0x046C	; 0x80046c <sys+0xe>
    2934:	20 39       	cpi	r18, 0x90	; 144
    2936:	31 40       	sbci	r19, 0x01	; 1
    2938:	18 f4       	brcc	.+6      	; 0x2940 <blink2Digit+0x18>
    293a:	0e 94 74 14 	call	0x28e8	; 0x28e8 <uint8ToDisp>
    293e:	22 c0       	rjmp	.+68     	; 0x2984 <blink2Digit+0x5c>
    2940:	80 91 6b 04 	lds	r24, 0x046B	; 0x80046b <sys+0xd>
    2944:	90 91 6c 04 	lds	r25, 0x046C	; 0x80046c <sys+0xe>
    2948:	81 39       	cpi	r24, 0x91	; 145
    294a:	91 40       	sbci	r25, 0x01	; 1
    294c:	80 f0       	brcs	.+32     	; 0x296e <blink2Digit+0x46>
    294e:	80 91 6b 04 	lds	r24, 0x046B	; 0x80046b <sys+0xd>
    2952:	90 91 6c 04 	lds	r25, 0x046C	; 0x80046c <sys+0xe>
    2956:	80 32       	cpi	r24, 0x20	; 32
    2958:	93 40       	sbci	r25, 0x03	; 3
    295a:	48 f4       	brcc	.+18     	; 0x296e <blink2Digit+0x46>
    295c:	80 e6       	ldi	r24, 0x60	; 96
    295e:	0e 94 e8 0e 	call	0x1dd0	; 0x1dd0 <putChar>
    2962:	66 e0       	ldi	r22, 0x06	; 6
    2964:	6c 0f       	add	r22, r28
    2966:	80 e6       	ldi	r24, 0x60	; 96
    2968:	0e 94 e8 0e 	call	0x1dd0	; 0x1dd0 <putChar>
    296c:	0b c0       	rjmp	.+22     	; 0x2984 <blink2Digit+0x5c>
    296e:	80 91 6b 04 	lds	r24, 0x046B	; 0x80046b <sys+0xd>
    2972:	90 91 6c 04 	lds	r25, 0x046C	; 0x80046c <sys+0xe>
    2976:	81 32       	cpi	r24, 0x21	; 33
    2978:	93 40       	sbci	r25, 0x03	; 3
    297a:	20 f0       	brcs	.+8      	; 0x2984 <blink2Digit+0x5c>
    297c:	10 92 6c 04 	sts	0x046C, r1	; 0x80046c <sys+0xe>
    2980:	10 92 6b 04 	sts	0x046B, r1	; 0x80046b <sys+0xd>
    2984:	cf 91       	pop	r28
    2986:	08 95       	ret

00002988 <menueDate>:
    2988:	8f 92       	push	r8
    298a:	9f 92       	push	r9
    298c:	af 92       	push	r10
    298e:	bf 92       	push	r11
    2990:	cf 92       	push	r12
    2992:	df 92       	push	r13
    2994:	ef 92       	push	r14
    2996:	ff 92       	push	r15
    2998:	0f 93       	push	r16
    299a:	1f 93       	push	r17
    299c:	cf 93       	push	r28
    299e:	df 93       	push	r29
    29a0:	00 d0       	rcall	.+0      	; 0x29a2 <menueDate+0x1a>
    29a2:	00 d0       	rcall	.+0      	; 0x29a4 <menueDate+0x1c>
    29a4:	00 d0       	rcall	.+0      	; 0x29a6 <menueDate+0x1e>
    29a6:	cd b7       	in	r28, 0x3d	; 61
    29a8:	de b7       	in	r29, 0x3e	; 62
    29aa:	ee e6       	ldi	r30, 0x6E	; 110
    29ac:	f0 e0       	ldi	r31, 0x00	; 0
    29ae:	80 81       	ld	r24, Z
    29b0:	89 83       	std	Y+1, r24	; 0x01
    29b2:	8f e1       	ldi	r24, 0x1F	; 31
    29b4:	8a 83       	std	Y+2, r24	; 0x02
    29b6:	81 81       	ldd	r24, Z+1	; 0x01
    29b8:	8b 83       	std	Y+3, r24	; 0x03
    29ba:	8c e0       	ldi	r24, 0x0C	; 12
    29bc:	8c 83       	std	Y+4, r24	; 0x04
    29be:	82 81       	ldd	r24, Z+2	; 0x02
    29c0:	93 81       	ldd	r25, Z+3	; 0x03
    29c2:	80 5d       	subi	r24, 0xD0	; 208
    29c4:	8d 83       	std	Y+5, r24	; 0x05
    29c6:	83 e6       	ldi	r24, 0x63	; 99
    29c8:	8e 83       	std	Y+6, r24	; 0x06
    29ca:	10 92 6f 04 	sts	0x046F, r1	; 0x80046f <button>
    29ce:	0f 2e       	mov	r0, r31
    29d0:	ff eb       	ldi	r31, 0xBF	; 191
    29d2:	cf 2e       	mov	r12, r31
    29d4:	f3 e0       	ldi	r31, 0x03	; 3
    29d6:	df 2e       	mov	r13, r31
    29d8:	f0 2d       	mov	r31, r0
    29da:	8e 01       	movw	r16, r28
    29dc:	0f 5f       	subi	r16, 0xFF	; 255
    29de:	1f 4f       	sbci	r17, 0xFF	; 255
    29e0:	5e 01       	movw	r10, r28
    29e2:	87 e0       	ldi	r24, 0x07	; 7
    29e4:	a8 0e       	add	r10, r24
    29e6:	b1 1c       	adc	r11, r1
    29e8:	91 2c       	mov	r9, r1
    29ea:	88 24       	eor	r8, r8
    29ec:	83 94       	inc	r8
    29ee:	60 e0       	ldi	r22, 0x00	; 0
    29f0:	d6 01       	movw	r26, r12
    29f2:	8d 91       	ld	r24, X+
    29f4:	9d 91       	ld	r25, X+
    29f6:	6d 01       	movw	r12, r26
    29f8:	0e 94 e5 0f 	call	0x1fca	; 0x1fca <putStr>
    29fc:	91 10       	cpse	r9, r1
    29fe:	3f c0       	rjmp	.+126    	; 0x2a7e <menueDate+0xf6>
    2a00:	78 01       	movw	r14, r16
    2a02:	80 91 6f 04 	lds	r24, 0x046F	; 0x80046f <button>
    2a06:	83 ff       	sbrs	r24, 3
    2a08:	0f c0       	rjmp	.+30     	; 0x2a28 <menueDate+0xa0>
    2a0a:	10 92 6f 04 	sts	0x046F, r1	; 0x80046f <button>
    2a0e:	f8 01       	movw	r30, r16
    2a10:	80 81       	ld	r24, Z
    2a12:	8f 5f       	subi	r24, 0xFF	; 255
    2a14:	91 81       	ldd	r25, Z+1	; 0x01
    2a16:	98 17       	cp	r25, r24
    2a18:	08 f4       	brcc	.+2      	; 0x2a1c <menueDate+0x94>
    2a1a:	80 e0       	ldi	r24, 0x00	; 0
    2a1c:	d7 01       	movw	r26, r14
    2a1e:	8c 93       	st	X, r24
    2a20:	65 e1       	ldi	r22, 0x15	; 21
    2a22:	0e 94 74 14 	call	0x28e8	; 0x28e8 <uint8ToDisp>
    2a26:	54 c1       	rjmp	.+680    	; 0x2cd0 <menueDate+0x348>
    2a28:	80 91 6f 04 	lds	r24, 0x046F	; 0x80046f <button>
    2a2c:	82 ff       	sbrs	r24, 2
    2a2e:	0e c0       	rjmp	.+28     	; 0x2a4c <menueDate+0xc4>
    2a30:	10 92 6f 04 	sts	0x046F, r1	; 0x80046f <button>
    2a34:	f8 01       	movw	r30, r16
    2a36:	91 81       	ldd	r25, Z+1	; 0x01
    2a38:	80 81       	ld	r24, Z
    2a3a:	81 50       	subi	r24, 0x01	; 1
    2a3c:	0a f4       	brpl	.+2      	; 0x2a40 <menueDate+0xb8>
    2a3e:	89 2f       	mov	r24, r25
    2a40:	d7 01       	movw	r26, r14
    2a42:	8c 93       	st	X, r24
    2a44:	65 e1       	ldi	r22, 0x15	; 21
    2a46:	0e 94 74 14 	call	0x28e8	; 0x28e8 <uint8ToDisp>
    2a4a:	42 c1       	rjmp	.+644    	; 0x2cd0 <menueDate+0x348>
    2a4c:	80 91 6f 04 	lds	r24, 0x046F	; 0x80046f <button>
    2a50:	84 ff       	sbrs	r24, 4
    2a52:	03 c0       	rjmp	.+6      	; 0x2a5a <menueDate+0xd2>
    2a54:	10 92 6f 04 	sts	0x046F, r1	; 0x80046f <button>
    2a58:	12 c0       	rjmp	.+36     	; 0x2a7e <menueDate+0xf6>
    2a5a:	80 91 6f 04 	lds	r24, 0x046F	; 0x80046f <button>
    2a5e:	81 fd       	sbrc	r24, 1
    2a60:	04 c0       	rjmp	.+8      	; 0x2a6a <menueDate+0xe2>
    2a62:	80 91 5d 04 	lds	r24, 0x045D	; 0x80045d <flag>
    2a66:	84 ff       	sbrs	r24, 4
    2a68:	33 c1       	rjmp	.+614    	; 0x2cd0 <menueDate+0x348>
    2a6a:	10 92 6f 04 	sts	0x046F, r1	; 0x80046f <button>
    2a6e:	80 91 5d 04 	lds	r24, 0x045D	; 0x80045d <flag>
    2a72:	8f 7e       	andi	r24, 0xEF	; 239
    2a74:	80 93 5d 04 	sts	0x045D, r24	; 0x80045d <flag>
    2a78:	0e 94 98 10 	call	0x2130	; 0x2130 <ledarray_blank>
    2a7c:	98 2c       	mov	r9, r8
    2a7e:	0e 94 98 10 	call	0x2130	; 0x2130 <ledarray_blank>
    2a82:	0e 5f       	subi	r16, 0xFE	; 254
    2a84:	1f 4f       	sbci	r17, 0xFF	; 255
    2a86:	a0 16       	cp	r10, r16
    2a88:	b1 06       	cpc	r11, r17
    2a8a:	09 f0       	breq	.+2      	; 0x2a8e <menueDate+0x106>
    2a8c:	b0 cf       	rjmp	.-160    	; 0x29ee <menueDate+0x66>
    2a8e:	e0 91 76 00 	lds	r30, 0x0076	; 0x800076 <time+0x8>
    2a92:	f0 e0       	ldi	r31, 0x00	; 0
    2a94:	ee 0f       	add	r30, r30
    2a96:	ff 1f       	adc	r31, r31
    2a98:	e5 54       	subi	r30, 0x45	; 69
    2a9a:	fc 4f       	sbci	r31, 0xFC	; 252
    2a9c:	60 e0       	ldi	r22, 0x00	; 0
    2a9e:	80 81       	ld	r24, Z
    2aa0:	91 81       	ldd	r25, Z+1	; 0x01
    2aa2:	0e 94 e5 0f 	call	0x1fca	; 0x1fca <putStr>
    2aa6:	91 10       	cpse	r9, r1
    2aa8:	2d c1       	rjmp	.+602    	; 0x2d04 <menueDate+0x37c>
    2aaa:	0e e6       	ldi	r16, 0x6E	; 110
    2aac:	10 e0       	ldi	r17, 0x00	; 0
    2aae:	ff 24       	eor	r15, r15
    2ab0:	f3 94       	inc	r15
    2ab2:	80 91 6f 04 	lds	r24, 0x046F	; 0x80046f <button>
    2ab6:	83 ff       	sbrs	r24, 3
    2ab8:	19 c0       	rjmp	.+50     	; 0x2aec <menueDate+0x164>
    2aba:	10 92 6f 04 	sts	0x046F, r1	; 0x80046f <button>
    2abe:	0e 94 98 10 	call	0x2130	; 0x2130 <ledarray_blank>
    2ac2:	f8 01       	movw	r30, r16
    2ac4:	80 85       	ldd	r24, Z+8	; 0x08
    2ac6:	91 e0       	ldi	r25, 0x01	; 1
    2ac8:	98 0f       	add	r25, r24
    2aca:	90 87       	std	Z+8, r25	; 0x08
    2acc:	81 11       	cpse	r24, r1
    2ace:	f0 86       	std	Z+8, r15	; 0x08
    2ad0:	d8 01       	movw	r26, r16
    2ad2:	18 96       	adiw	r26, 0x08	; 8
    2ad4:	ec 91       	ld	r30, X
    2ad6:	f0 e0       	ldi	r31, 0x00	; 0
    2ad8:	ee 0f       	add	r30, r30
    2ada:	ff 1f       	adc	r31, r31
    2adc:	e5 54       	subi	r30, 0x45	; 69
    2ade:	fc 4f       	sbci	r31, 0xFC	; 252
    2ae0:	60 e0       	ldi	r22, 0x00	; 0
    2ae2:	80 81       	ld	r24, Z
    2ae4:	91 81       	ldd	r25, Z+1	; 0x01
    2ae6:	0e 94 e5 0f 	call	0x1fca	; 0x1fca <putStr>
    2aea:	1d c0       	rjmp	.+58     	; 0x2b26 <menueDate+0x19e>
    2aec:	80 91 6f 04 	lds	r24, 0x046F	; 0x80046f <button>
    2af0:	82 ff       	sbrs	r24, 2
    2af2:	19 c0       	rjmp	.+50     	; 0x2b26 <menueDate+0x19e>
    2af4:	10 92 6f 04 	sts	0x046F, r1	; 0x80046f <button>
    2af8:	0e 94 98 10 	call	0x2130	; 0x2130 <ledarray_blank>
    2afc:	f8 01       	movw	r30, r16
    2afe:	80 85       	ldd	r24, Z+8	; 0x08
    2b00:	9f ef       	ldi	r25, 0xFF	; 255
    2b02:	98 0f       	add	r25, r24
    2b04:	90 87       	std	Z+8, r25	; 0x08
    2b06:	81 11       	cpse	r24, r1
    2b08:	01 c0       	rjmp	.+2      	; 0x2b0c <menueDate+0x184>
    2b0a:	10 86       	std	Z+8, r1	; 0x08
    2b0c:	d8 01       	movw	r26, r16
    2b0e:	18 96       	adiw	r26, 0x08	; 8
    2b10:	ec 91       	ld	r30, X
    2b12:	f0 e0       	ldi	r31, 0x00	; 0
    2b14:	ee 0f       	add	r30, r30
    2b16:	ff 1f       	adc	r31, r31
    2b18:	e5 54       	subi	r30, 0x45	; 69
    2b1a:	fc 4f       	sbci	r31, 0xFC	; 252
    2b1c:	60 e0       	ldi	r22, 0x00	; 0
    2b1e:	80 81       	ld	r24, Z
    2b20:	91 81       	ldd	r25, Z+1	; 0x01
    2b22:	0e 94 e5 0f 	call	0x1fca	; 0x1fca <putStr>
    2b26:	80 91 6f 04 	lds	r24, 0x046F	; 0x80046f <button>
    2b2a:	81 fd       	sbrc	r24, 1
    2b2c:	04 c0       	rjmp	.+8      	; 0x2b36 <menueDate+0x1ae>
    2b2e:	80 91 5d 04 	lds	r24, 0x045D	; 0x80045d <flag>
    2b32:	84 ff       	sbrs	r24, 4
    2b34:	0a c0       	rjmp	.+20     	; 0x2b4a <menueDate+0x1c2>
    2b36:	10 92 6f 04 	sts	0x046F, r1	; 0x80046f <button>
    2b3a:	80 91 5d 04 	lds	r24, 0x045D	; 0x80045d <flag>
    2b3e:	8f 7e       	andi	r24, 0xEF	; 239
    2b40:	80 93 5d 04 	sts	0x045D, r24	; 0x80045d <flag>
    2b44:	0e 94 98 10 	call	0x2130	; 0x2130 <ledarray_blank>
    2b48:	dd c0       	rjmp	.+442    	; 0x2d04 <menueDate+0x37c>
    2b4a:	80 91 6f 04 	lds	r24, 0x046F	; 0x80046f <button>
    2b4e:	84 ff       	sbrs	r24, 4
    2b50:	21 c0       	rjmp	.+66     	; 0x2b94 <menueDate+0x20c>
    2b52:	10 92 6f 04 	sts	0x046F, r1	; 0x80046f <button>
    2b56:	64 e1       	ldi	r22, 0x14	; 20
    2b58:	84 e2       	ldi	r24, 0x24	; 36
    2b5a:	92 e0       	ldi	r25, 0x02	; 2
    2b5c:	0e 94 a3 10 	call	0x2146	; 0x2146 <scroll_display>
    2b60:	0e 94 98 10 	call	0x2130	; 0x2130 <ledarray_blank>
    2b64:	60 e0       	ldi	r22, 0x00	; 0
    2b66:	88 e3       	ldi	r24, 0x38	; 56
    2b68:	92 e0       	ldi	r25, 0x02	; 2
    2b6a:	0e 94 e5 0f 	call	0x1fca	; 0x1fca <putStr>
    2b6e:	e0 91 75 00 	lds	r30, 0x0075	; 0x800075 <time+0x7>
    2b72:	f0 e0       	ldi	r31, 0x00	; 0
    2b74:	ee 0f       	add	r30, r30
    2b76:	ff 1f       	adc	r31, r31
    2b78:	e3 55       	subi	r30, 0x53	; 83
    2b7a:	fc 4f       	sbci	r31, 0xFC	; 252
    2b7c:	65 e1       	ldi	r22, 0x15	; 21
    2b7e:	80 81       	ld	r24, Z
    2b80:	91 81       	ldd	r25, Z+1	; 0x01
    2b82:	0e 94 e5 0f 	call	0x1fca	; 0x1fca <putStr>
    2b86:	0e e6       	ldi	r16, 0x6E	; 110
    2b88:	10 e0       	ldi	r17, 0x00	; 0
    2b8a:	0f 2e       	mov	r0, r31
    2b8c:	f6 e0       	ldi	r31, 0x06	; 6
    2b8e:	ff 2e       	mov	r15, r31
    2b90:	f0 2d       	mov	r31, r0
    2b92:	0e c0       	rjmp	.+28     	; 0x2bb0 <menueDate+0x228>
    2b94:	d8 01       	movw	r26, r16
    2b96:	18 96       	adiw	r26, 0x08	; 8
    2b98:	ec 91       	ld	r30, X
    2b9a:	f0 e0       	ldi	r31, 0x00	; 0
    2b9c:	ee 0f       	add	r30, r30
    2b9e:	ff 1f       	adc	r31, r31
    2ba0:	e5 54       	subi	r30, 0x45	; 69
    2ba2:	fc 4f       	sbci	r31, 0xFC	; 252
    2ba4:	60 e0       	ldi	r22, 0x00	; 0
    2ba6:	80 81       	ld	r24, Z
    2ba8:	91 81       	ldd	r25, Z+1	; 0x01
    2baa:	0e 94 53 10 	call	0x20a6	; 0x20a6 <blinkChars>
    2bae:	81 cf       	rjmp	.-254    	; 0x2ab2 <menueDate+0x12a>
    2bb0:	80 91 6f 04 	lds	r24, 0x046F	; 0x80046f <button>
    2bb4:	83 ff       	sbrs	r24, 3
    2bb6:	1f c0       	rjmp	.+62     	; 0x2bf6 <menueDate+0x26e>
    2bb8:	10 92 6f 04 	sts	0x046F, r1	; 0x80046f <button>
    2bbc:	0e 94 98 10 	call	0x2130	; 0x2130 <ledarray_blank>
    2bc0:	f8 01       	movw	r30, r16
    2bc2:	87 81       	ldd	r24, Z+7	; 0x07
    2bc4:	8f 5f       	subi	r24, 0xFF	; 255
    2bc6:	87 30       	cpi	r24, 0x07	; 7
    2bc8:	08 f0       	brcs	.+2      	; 0x2bcc <menueDate+0x244>
    2bca:	80 e0       	ldi	r24, 0x00	; 0
    2bcc:	d8 01       	movw	r26, r16
    2bce:	17 96       	adiw	r26, 0x07	; 7
    2bd0:	8c 93       	st	X, r24
    2bd2:	60 e0       	ldi	r22, 0x00	; 0
    2bd4:	88 e3       	ldi	r24, 0x38	; 56
    2bd6:	92 e0       	ldi	r25, 0x02	; 2
    2bd8:	0e 94 e5 0f 	call	0x1fca	; 0x1fca <putStr>
    2bdc:	d8 01       	movw	r26, r16
    2bde:	17 96       	adiw	r26, 0x07	; 7
    2be0:	ec 91       	ld	r30, X
    2be2:	f0 e0       	ldi	r31, 0x00	; 0
    2be4:	ee 0f       	add	r30, r30
    2be6:	ff 1f       	adc	r31, r31
    2be8:	e3 55       	subi	r30, 0x53	; 83
    2bea:	fc 4f       	sbci	r31, 0xFC	; 252
    2bec:	65 e1       	ldi	r22, 0x15	; 21
    2bee:	80 81       	ld	r24, Z
    2bf0:	91 81       	ldd	r25, Z+1	; 0x01
    2bf2:	0e 94 e5 0f 	call	0x1fca	; 0x1fca <putStr>
    2bf6:	80 91 6f 04 	lds	r24, 0x046F	; 0x80046f <button>
    2bfa:	82 ff       	sbrs	r24, 2
    2bfc:	1e c0       	rjmp	.+60     	; 0x2c3a <menueDate+0x2b2>
    2bfe:	10 92 6f 04 	sts	0x046F, r1	; 0x80046f <button>
    2c02:	0e 94 98 10 	call	0x2130	; 0x2130 <ledarray_blank>
    2c06:	f8 01       	movw	r30, r16
    2c08:	87 81       	ldd	r24, Z+7	; 0x07
    2c0a:	81 50       	subi	r24, 0x01	; 1
    2c0c:	0a f4       	brpl	.+2      	; 0x2c10 <menueDate+0x288>
    2c0e:	8f 2d       	mov	r24, r15
    2c10:	d8 01       	movw	r26, r16
    2c12:	17 96       	adiw	r26, 0x07	; 7
    2c14:	8c 93       	st	X, r24
    2c16:	60 e0       	ldi	r22, 0x00	; 0
    2c18:	88 e3       	ldi	r24, 0x38	; 56
    2c1a:	92 e0       	ldi	r25, 0x02	; 2
    2c1c:	0e 94 e5 0f 	call	0x1fca	; 0x1fca <putStr>
    2c20:	d8 01       	movw	r26, r16
    2c22:	17 96       	adiw	r26, 0x07	; 7
    2c24:	ec 91       	ld	r30, X
    2c26:	f0 e0       	ldi	r31, 0x00	; 0
    2c28:	ee 0f       	add	r30, r30
    2c2a:	ff 1f       	adc	r31, r31
    2c2c:	e3 55       	subi	r30, 0x53	; 83
    2c2e:	fc 4f       	sbci	r31, 0xFC	; 252
    2c30:	65 e1       	ldi	r22, 0x15	; 21
    2c32:	80 81       	ld	r24, Z
    2c34:	91 81       	ldd	r25, Z+1	; 0x01
    2c36:	0e 94 e5 0f 	call	0x1fca	; 0x1fca <putStr>
    2c3a:	80 91 6f 04 	lds	r24, 0x046F	; 0x80046f <button>
    2c3e:	84 ff       	sbrs	r24, 4
    2c40:	1f c0       	rjmp	.+62     	; 0x2c80 <menueDate+0x2f8>
    2c42:	10 92 6f 04 	sts	0x046F, r1	; 0x80046f <button>
    2c46:	10 92 60 04 	sts	0x0460, r1	; 0x800460 <sys+0x2>
    2c4a:	0e 94 98 10 	call	0x2130	; 0x2130 <ledarray_blank>
    2c4e:	0e e6       	ldi	r16, 0x6E	; 110
    2c50:	10 e0       	ldi	r17, 0x00	; 0
    2c52:	f8 01       	movw	r30, r16
    2c54:	67 81       	ldd	r22, Z+7	; 0x07
    2c56:	2d 81       	ldd	r18, Y+5	; 0x05
    2c58:	30 e0       	ldi	r19, 0x00	; 0
    2c5a:	20 53       	subi	r18, 0x30	; 48
    2c5c:	38 4f       	sbci	r19, 0xF8	; 248
    2c5e:	4b 81       	ldd	r20, Y+3	; 0x03
    2c60:	89 81       	ldd	r24, Y+1	; 0x01
    2c62:	0e 94 c1 0b 	call	0x1782	; 0x1782 <rtcSetDate>
    2c66:	d8 01       	movw	r26, r16
    2c68:	18 96       	adiw	r26, 0x08	; 8
    2c6a:	6c 91       	ld	r22, X
    2c6c:	84 e0       	ldi	r24, 0x04	; 4
    2c6e:	90 e0       	ldi	r25, 0x00	; 0
    2c70:	0e 94 89 29 	call	0x5312	; 0x5312 <eeprom_update_byte>
    2c74:	6a e0       	ldi	r22, 0x0A	; 10
    2c76:	8d e3       	ldi	r24, 0x3D	; 61
    2c78:	92 e0       	ldi	r25, 0x02	; 2
    2c7a:	0e 94 a3 10 	call	0x2146	; 0x2146 <scroll_display>
    2c7e:	54 c0       	rjmp	.+168    	; 0x2d28 <menueDate+0x3a0>
    2c80:	80 91 6f 04 	lds	r24, 0x046F	; 0x80046f <button>
    2c84:	81 fd       	sbrc	r24, 1
    2c86:	04 c0       	rjmp	.+8      	; 0x2c90 <menueDate+0x308>
    2c88:	80 91 5d 04 	lds	r24, 0x045D	; 0x80045d <flag>
    2c8c:	84 ff       	sbrs	r24, 4
    2c8e:	0a c0       	rjmp	.+20     	; 0x2ca4 <menueDate+0x31c>
    2c90:	10 92 6f 04 	sts	0x046F, r1	; 0x80046f <button>
    2c94:	80 91 5d 04 	lds	r24, 0x045D	; 0x80045d <flag>
    2c98:	8f 7e       	andi	r24, 0xEF	; 239
    2c9a:	80 93 5d 04 	sts	0x045D, r24	; 0x80045d <flag>
    2c9e:	0e 94 98 10 	call	0x2130	; 0x2130 <ledarray_blank>
    2ca2:	1c c0       	rjmp	.+56     	; 0x2cdc <menueDate+0x354>
    2ca4:	d8 01       	movw	r26, r16
    2ca6:	17 96       	adiw	r26, 0x07	; 7
    2ca8:	ec 91       	ld	r30, X
    2caa:	f0 e0       	ldi	r31, 0x00	; 0
    2cac:	ee 0f       	add	r30, r30
    2cae:	ff 1f       	adc	r31, r31
    2cb0:	e3 55       	subi	r30, 0x53	; 83
    2cb2:	fc 4f       	sbci	r31, 0xFC	; 252
    2cb4:	65 e1       	ldi	r22, 0x15	; 21
    2cb6:	80 81       	ld	r24, Z
    2cb8:	91 81       	ldd	r25, Z+1	; 0x01
    2cba:	0e 94 53 10 	call	0x20a6	; 0x20a6 <blinkChars>
    2cbe:	80 91 6f 04 	lds	r24, 0x046F	; 0x80046f <button>
    2cc2:	81 ff       	sbrs	r24, 1
    2cc4:	75 cf       	rjmp	.-278    	; 0x2bb0 <menueDate+0x228>
    2cc6:	10 92 6f 04 	sts	0x046F, r1	; 0x80046f <button>
    2cca:	0e 94 98 10 	call	0x2130	; 0x2130 <ledarray_blank>
    2cce:	06 c0       	rjmp	.+12     	; 0x2cdc <menueDate+0x354>
    2cd0:	65 e1       	ldi	r22, 0x15	; 21
    2cd2:	f8 01       	movw	r30, r16
    2cd4:	80 81       	ld	r24, Z
    2cd6:	0e 94 94 14 	call	0x2928	; 0x2928 <blink2Digit>
    2cda:	93 ce       	rjmp	.-730    	; 0x2a02 <menueDate+0x7a>
    2cdc:	0e e6       	ldi	r16, 0x6E	; 110
    2cde:	10 e0       	ldi	r17, 0x00	; 0
    2ce0:	d8 01       	movw	r26, r16
    2ce2:	17 96       	adiw	r26, 0x07	; 7
    2ce4:	6c 91       	ld	r22, X
    2ce6:	2d 81       	ldd	r18, Y+5	; 0x05
    2ce8:	30 e0       	ldi	r19, 0x00	; 0
    2cea:	20 53       	subi	r18, 0x30	; 48
    2cec:	38 4f       	sbci	r19, 0xF8	; 248
    2cee:	4b 81       	ldd	r20, Y+3	; 0x03
    2cf0:	89 81       	ldd	r24, Y+1	; 0x01
    2cf2:	0e 94 c1 0b 	call	0x1782	; 0x1782 <rtcSetDate>
    2cf6:	f8 01       	movw	r30, r16
    2cf8:	60 85       	ldd	r22, Z+8	; 0x08
    2cfa:	84 e0       	ldi	r24, 0x04	; 4
    2cfc:	90 e0       	ldi	r25, 0x00	; 0
    2cfe:	0e 94 89 29 	call	0x5312	; 0x5312 <eeprom_update_byte>
    2d02:	12 c0       	rjmp	.+36     	; 0x2d28 <menueDate+0x3a0>
    2d04:	60 e0       	ldi	r22, 0x00	; 0
    2d06:	88 e3       	ldi	r24, 0x38	; 56
    2d08:	92 e0       	ldi	r25, 0x02	; 2
    2d0a:	0e 94 e5 0f 	call	0x1fca	; 0x1fca <putStr>
    2d0e:	e0 91 75 00 	lds	r30, 0x0075	; 0x800075 <time+0x7>
    2d12:	f0 e0       	ldi	r31, 0x00	; 0
    2d14:	ee 0f       	add	r30, r30
    2d16:	ff 1f       	adc	r31, r31
    2d18:	e3 55       	subi	r30, 0x53	; 83
    2d1a:	fc 4f       	sbci	r31, 0xFC	; 252
    2d1c:	65 e1       	ldi	r22, 0x15	; 21
    2d1e:	80 81       	ld	r24, Z
    2d20:	91 81       	ldd	r25, Z+1	; 0x01
    2d22:	0e 94 e5 0f 	call	0x1fca	; 0x1fca <putStr>
    2d26:	da cf       	rjmp	.-76     	; 0x2cdc <menueDate+0x354>
    2d28:	10 92 6f 04 	sts	0x046F, r1	; 0x80046f <button>
    2d2c:	80 e0       	ldi	r24, 0x00	; 0
    2d2e:	26 96       	adiw	r28, 0x06	; 6
    2d30:	0f b6       	in	r0, 0x3f	; 63
    2d32:	f8 94       	cli
    2d34:	de bf       	out	0x3e, r29	; 62
    2d36:	0f be       	out	0x3f, r0	; 63
    2d38:	cd bf       	out	0x3d, r28	; 61
    2d3a:	df 91       	pop	r29
    2d3c:	cf 91       	pop	r28
    2d3e:	1f 91       	pop	r17
    2d40:	0f 91       	pop	r16
    2d42:	ff 90       	pop	r15
    2d44:	ef 90       	pop	r14
    2d46:	df 90       	pop	r13
    2d48:	cf 90       	pop	r12
    2d4a:	bf 90       	pop	r11
    2d4c:	af 90       	pop	r10
    2d4e:	9f 90       	pop	r9
    2d50:	8f 90       	pop	r8
    2d52:	08 95       	ret

00002d54 <setPwm>:
    2d54:	cf 93       	push	r28
    2d56:	c8 2f       	mov	r28, r24
    2d58:	f8 94       	cli
    2d5a:	83 e0       	ldi	r24, 0x03	; 3
    2d5c:	0e 94 bb 0a 	call	0x1576	; 0x1576 <ht1632cSendCmd>
    2d60:	88 e0       	ldi	r24, 0x08	; 8
    2d62:	0e 94 bb 0a 	call	0x1576	; 0x1576 <ht1632cSendCmd>
    2d66:	8c 2f       	mov	r24, r28
    2d68:	0e 94 bb 0a 	call	0x1576	; 0x1576 <ht1632cSendCmd>
    2d6c:	78 94       	sei
    2d6e:	cf 91       	pop	r28
    2d70:	08 95       	ret

00002d72 <compareTime>:
    2d72:	7f 92       	push	r7
    2d74:	8f 92       	push	r8
    2d76:	9f 92       	push	r9
    2d78:	af 92       	push	r10
    2d7a:	bf 92       	push	r11
    2d7c:	cf 92       	push	r12
    2d7e:	df 92       	push	r13
    2d80:	ef 92       	push	r14
    2d82:	ff 92       	push	r15
    2d84:	0f 93       	push	r16
    2d86:	1f 93       	push	r17
    2d88:	cf 93       	push	r28
    2d8a:	df 93       	push	r29
    2d8c:	81 e5       	ldi	r24, 0x51	; 81
    2d8e:	94 e0       	ldi	r25, 0x04	; 4
    2d90:	0e 94 27 0c 	call	0x184e	; 0x184e <rtcGetData>
    2d94:	90 91 6a 04 	lds	r25, 0x046A	; 0x80046a <sys+0xc>
    2d98:	80 91 53 04 	lds	r24, 0x0453	; 0x800453 <rx8564+0x2>
    2d9c:	98 17       	cp	r25, r24
    2d9e:	59 f0       	breq	.+22     	; 0x2db6 <compareTime+0x44>
    2da0:	ee e5       	ldi	r30, 0x5E	; 94
    2da2:	f4 e0       	ldi	r31, 0x04	; 4
    2da4:	93 85       	ldd	r25, Z+11	; 0x0b
    2da6:	21 e0       	ldi	r18, 0x01	; 1
    2da8:	29 0f       	add	r18, r25
    2daa:	23 87       	std	Z+11, r18	; 0x0b
    2dac:	95 30       	cpi	r25, 0x05	; 5
    2dae:	18 f0       	brcs	.+6      	; 0x2db6 <compareTime+0x44>
    2db0:	84 87       	std	Z+12, r24	; 0x0c
    2db2:	91 e0       	ldi	r25, 0x01	; 1
    2db4:	95 83       	std	Z+5, r25	; 0x05
    2db6:	0e 94 63 0b 	call	0x16c6	; 0x16c6 <rtcBcdToDec>
    2dba:	c8 2f       	mov	r28, r24
    2dbc:	80 91 52 04 	lds	r24, 0x0452	; 0x800452 <rx8564+0x1>
    2dc0:	0e 94 63 0b 	call	0x16c6	; 0x16c6 <rtcBcdToDec>
    2dc4:	90 91 e4 03 	lds	r25, 0x03E4	; 0x8003e4 <alarmReleaseMinOld.3322>
    2dc8:	89 17       	cp	r24, r25
    2dca:	09 f4       	brne	.+2      	; 0x2dce <compareTime+0x5c>
    2dcc:	5a c0       	rjmp	.+180    	; 0x2e82 <compareTime+0x110>
    2dce:	80 93 e4 03 	sts	0x03E4, r24	; 0x8003e4 <alarmReleaseMinOld.3322>
    2dd2:	90 91 e3 03 	lds	r25, 0x03E3	; 0x8003e3 <alarmReleaseMinCnt.3323>
    2dd6:	9f 5f       	subi	r25, 0xFF	; 255
    2dd8:	9b 30       	cpi	r25, 0x0B	; 11
    2dda:	18 f4       	brcc	.+6      	; 0x2de2 <compareTime+0x70>
    2ddc:	90 93 e3 03 	sts	0x03E3, r25	; 0x8003e3 <alarmReleaseMinCnt.3323>
    2de0:	50 c0       	rjmp	.+160    	; 0x2e82 <compareTime+0x110>
    2de2:	10 92 e3 03 	sts	0x03E3, r1	; 0x8003e3 <alarmReleaseMinCnt.3323>
    2de6:	10 92 e2 03 	sts	0x03E2, r1	; 0x8003e2 <lastAlarm.3324+0x1>
    2dea:	10 92 e1 03 	sts	0x03E1, r1	; 0x8003e1 <lastAlarm.3324>
    2dee:	49 c0       	rjmp	.+146    	; 0x2e82 <compareTime+0x110>
    2df0:	91 91       	ld	r25, Z+
    2df2:	c9 13       	cpse	r28, r25
    2df4:	34 c0       	rjmp	.+104    	; 0x2e5e <compareTime+0xec>
    2df6:	97 81       	ldd	r25, Z+7	; 0x07
    2df8:	89 13       	cpse	r24, r25
    2dfa:	31 c0       	rjmp	.+98     	; 0x2e5e <compareTime+0xec>
    2dfc:	7b 01       	movw	r14, r22
    2dfe:	02 2e       	mov	r0, r18
    2e00:	02 c0       	rjmp	.+4      	; 0x2e06 <compareTime+0x94>
    2e02:	f5 94       	asr	r15
    2e04:	e7 94       	ror	r14
    2e06:	0a 94       	dec	r0
    2e08:	e2 f7       	brpl	.-8      	; 0x2e02 <compareTime+0x90>
    2e0a:	e0 fe       	sbrs	r14, 0
    2e0c:	28 c0       	rjmp	.+80     	; 0x2e5e <compareTime+0xec>
    2e0e:	78 01       	movw	r14, r16
    2e10:	02 2e       	mov	r0, r18
    2e12:	02 c0       	rjmp	.+4      	; 0x2e18 <compareTime+0xa6>
    2e14:	ee 0c       	add	r14, r14
    2e16:	ff 1c       	adc	r15, r15
    2e18:	0a 94       	dec	r0
    2e1a:	e2 f7       	brpl	.-8      	; 0x2e14 <compareTime+0xa2>
    2e1c:	67 01       	movw	r12, r14
    2e1e:	ca 22       	and	r12, r26
    2e20:	db 22       	and	r13, r27
    2e22:	ec 14       	cp	r14, r12
    2e24:	fd 04       	cpc	r15, r13
    2e26:	69 f4       	brne	.+26     	; 0x2e42 <compareTime+0xd0>
    2e28:	b0 93 e2 03 	sts	0x03E2, r27	; 0x8003e2 <lastAlarm.3324+0x1>
    2e2c:	a0 93 e1 03 	sts	0x03E1, r26	; 0x8003e1 <lastAlarm.3324>
    2e30:	d0 93 72 04 	sts	0x0472, r29	; 0x800472 <alert+0x2>
    2e34:	80 91 5d 04 	lds	r24, 0x045D	; 0x80045d <flag>
    2e38:	50 fb       	bst	r21, 0
    2e3a:	82 f9       	bld	r24, 2
    2e3c:	80 93 5d 04 	sts	0x045D, r24	; 0x80045d <flag>
    2e40:	3b c0       	rjmp	.+118    	; 0x2eb8 <compareTime+0x146>
    2e42:	de 2d       	mov	r29, r14
    2e44:	75 01       	movw	r14, r10
    2e46:	64 01       	movw	r12, r8
    2e48:	02 2e       	mov	r0, r18
    2e4a:	04 c0       	rjmp	.+8      	; 0x2e54 <compareTime+0xe2>
    2e4c:	cc 0c       	add	r12, r12
    2e4e:	dd 1c       	adc	r13, r13
    2e50:	ee 1c       	adc	r14, r14
    2e52:	ff 1c       	adc	r15, r15
    2e54:	0a 94       	dec	r0
    2e56:	d2 f7       	brpl	.-12     	; 0x2e4c <compareTime+0xda>
    2e58:	ac 29       	or	r26, r12
    2e5a:	bd 29       	or	r27, r13
    2e5c:	57 2d       	mov	r21, r7
    2e5e:	2f 5f       	subi	r18, 0xFF	; 255
    2e60:	3f 4f       	sbci	r19, 0xFF	; 255
    2e62:	28 30       	cpi	r18, 0x08	; 8
    2e64:	31 05       	cpc	r19, r1
    2e66:	21 f6       	brne	.-120    	; 0x2df0 <compareTime+0x7e>
    2e68:	b0 93 e2 03 	sts	0x03E2, r27	; 0x8003e2 <lastAlarm.3324+0x1>
    2e6c:	a0 93 e1 03 	sts	0x03E1, r26	; 0x8003e1 <lastAlarm.3324>
    2e70:	d0 93 72 04 	sts	0x0472, r29	; 0x800472 <alert+0x2>
    2e74:	80 91 5d 04 	lds	r24, 0x045D	; 0x80045d <flag>
    2e78:	50 fb       	bst	r21, 0
    2e7a:	82 f9       	bld	r24, 2
    2e7c:	80 93 5d 04 	sts	0x045D, r24	; 0x80045d <flag>
    2e80:	1b c0       	rjmp	.+54     	; 0x2eb8 <compareTime+0x146>
    2e82:	e0 e7       	ldi	r30, 0x70	; 112
    2e84:	f4 e0       	ldi	r31, 0x04	; 4
    2e86:	61 81       	ldd	r22, Z+1	; 0x01
    2e88:	70 e0       	ldi	r23, 0x00	; 0
    2e8a:	d2 81       	ldd	r29, Z+2	; 0x02
    2e8c:	a0 91 e1 03 	lds	r26, 0x03E1	; 0x8003e1 <lastAlarm.3324>
    2e90:	b0 91 e2 03 	lds	r27, 0x03E2	; 0x8003e2 <lastAlarm.3324+0x1>
    2e94:	50 91 5d 04 	lds	r21, 0x045D	; 0x80045d <flag>
    2e98:	52 fb       	bst	r21, 2
    2e9a:	55 27       	eor	r21, r21
    2e9c:	50 f9       	bld	r21, 0
    2e9e:	e5 e8       	ldi	r30, 0x85	; 133
    2ea0:	f4 e0       	ldi	r31, 0x04	; 4
    2ea2:	20 e0       	ldi	r18, 0x00	; 0
    2ea4:	30 e0       	ldi	r19, 0x00	; 0
    2ea6:	01 e0       	ldi	r16, 0x01	; 1
    2ea8:	10 e0       	ldi	r17, 0x00	; 0
    2eaa:	81 2c       	mov	r8, r1
    2eac:	91 2c       	mov	r9, r1
    2eae:	54 01       	movw	r10, r8
    2eb0:	83 94       	inc	r8
    2eb2:	77 24       	eor	r7, r7
    2eb4:	73 94       	inc	r7
    2eb6:	9c cf       	rjmp	.-200    	; 0x2df0 <compareTime+0x7e>
    2eb8:	df 91       	pop	r29
    2eba:	cf 91       	pop	r28
    2ebc:	1f 91       	pop	r17
    2ebe:	0f 91       	pop	r16
    2ec0:	ff 90       	pop	r15
    2ec2:	ef 90       	pop	r14
    2ec4:	df 90       	pop	r13
    2ec6:	cf 90       	pop	r12
    2ec8:	bf 90       	pop	r11
    2eca:	af 90       	pop	r10
    2ecc:	9f 90       	pop	r9
    2ece:	8f 90       	pop	r8
    2ed0:	7f 90       	pop	r7
    2ed2:	08 95       	ret

00002ed4 <alarmRoutine>:
    2ed4:	0f 93       	push	r16
    2ed6:	1f 93       	push	r17
    2ed8:	cf 93       	push	r28
    2eda:	df 93       	push	r29
    2edc:	cd b7       	in	r28, 0x3d	; 61
    2ede:	de b7       	in	r29, 0x3e	; 62
    2ee0:	27 97       	sbiw	r28, 0x07	; 7
    2ee2:	0f b6       	in	r0, 0x3f	; 63
    2ee4:	f8 94       	cli
    2ee6:	de bf       	out	0x3e, r29	; 62
    2ee8:	0f be       	out	0x3f, r0	; 63
    2eea:	cd bf       	out	0x3d, r28	; 61
    2eec:	80 91 5d 04 	lds	r24, 0x045D	; 0x80045d <flag>
    2ef0:	82 ff       	sbrs	r24, 2
    2ef2:	a9 c0       	rjmp	.+338    	; 0x3046 <alarmRoutine+0x172>
    2ef4:	1a 82       	std	Y+2, r1	; 0x02
    2ef6:	19 82       	std	Y+1, r1	; 0x01
    2ef8:	fe 01       	movw	r30, r28
    2efa:	33 96       	adiw	r30, 0x03	; 3
    2efc:	85 e0       	ldi	r24, 0x05	; 5
    2efe:	df 01       	movw	r26, r30
    2f00:	1d 92       	st	X+, r1
    2f02:	8a 95       	dec	r24
    2f04:	e9 f7       	brne	.-6      	; 0x2f00 <alarmRoutine+0x2c>
    2f06:	80 91 72 04 	lds	r24, 0x0472	; 0x800472 <alert+0x2>
    2f0a:	88 30       	cpi	r24, 0x08	; 8
    2f0c:	c9 f0       	breq	.+50     	; 0x2f40 <alarmRoutine+0x6c>
    2f0e:	38 f4       	brcc	.+14     	; 0x2f1e <alarmRoutine+0x4a>
    2f10:	82 30       	cpi	r24, 0x02	; 2
    2f12:	91 f0       	breq	.+36     	; 0x2f38 <alarmRoutine+0x64>
    2f14:	84 30       	cpi	r24, 0x04	; 4
    2f16:	91 f0       	breq	.+36     	; 0x2f3c <alarmRoutine+0x68>
    2f18:	81 30       	cpi	r24, 0x01	; 1
    2f1a:	e1 f4       	brne	.+56     	; 0x2f54 <alarmRoutine+0x80>
    2f1c:	0b c0       	rjmp	.+22     	; 0x2f34 <alarmRoutine+0x60>
    2f1e:	80 32       	cpi	r24, 0x20	; 32
    2f20:	99 f0       	breq	.+38     	; 0x2f48 <alarmRoutine+0x74>
    2f22:	18 f4       	brcc	.+6      	; 0x2f2a <alarmRoutine+0x56>
    2f24:	80 31       	cpi	r24, 0x10	; 16
    2f26:	71 f0       	breq	.+28     	; 0x2f44 <alarmRoutine+0x70>
    2f28:	15 c0       	rjmp	.+42     	; 0x2f54 <alarmRoutine+0x80>
    2f2a:	80 34       	cpi	r24, 0x40	; 64
    2f2c:	79 f0       	breq	.+30     	; 0x2f4c <alarmRoutine+0x78>
    2f2e:	80 38       	cpi	r24, 0x80	; 128
    2f30:	79 f0       	breq	.+30     	; 0x2f50 <alarmRoutine+0x7c>
    2f32:	10 c0       	rjmp	.+32     	; 0x2f54 <alarmRoutine+0x80>
    2f34:	81 e0       	ldi	r24, 0x01	; 1
    2f36:	0f c0       	rjmp	.+30     	; 0x2f56 <alarmRoutine+0x82>
    2f38:	82 e0       	ldi	r24, 0x02	; 2
    2f3a:	0d c0       	rjmp	.+26     	; 0x2f56 <alarmRoutine+0x82>
    2f3c:	83 e0       	ldi	r24, 0x03	; 3
    2f3e:	0b c0       	rjmp	.+22     	; 0x2f56 <alarmRoutine+0x82>
    2f40:	84 e0       	ldi	r24, 0x04	; 4
    2f42:	09 c0       	rjmp	.+18     	; 0x2f56 <alarmRoutine+0x82>
    2f44:	85 e0       	ldi	r24, 0x05	; 5
    2f46:	07 c0       	rjmp	.+14     	; 0x2f56 <alarmRoutine+0x82>
    2f48:	86 e0       	ldi	r24, 0x06	; 6
    2f4a:	05 c0       	rjmp	.+10     	; 0x2f56 <alarmRoutine+0x82>
    2f4c:	87 e0       	ldi	r24, 0x07	; 7
    2f4e:	03 c0       	rjmp	.+6      	; 0x2f56 <alarmRoutine+0x82>
    2f50:	88 e0       	ldi	r24, 0x08	; 8
    2f52:	01 c0       	rjmp	.+2      	; 0x2f56 <alarmRoutine+0x82>
    2f54:	80 e0       	ldi	r24, 0x00	; 0
    2f56:	1f 92       	push	r1
    2f58:	8f 93       	push	r24
    2f5a:	8a e4       	ldi	r24, 0x4A	; 74
    2f5c:	92 e0       	ldi	r25, 0x02	; 2
    2f5e:	9f 93       	push	r25
    2f60:	8f 93       	push	r24
    2f62:	8e 01       	movw	r16, r28
    2f64:	0f 5f       	subi	r16, 0xFF	; 255
    2f66:	1f 4f       	sbci	r17, 0xFF	; 255
    2f68:	1f 93       	push	r17
    2f6a:	0f 93       	push	r16
    2f6c:	0e 94 b8 26 	call	0x4d70	; 0x4d70 <sprintf>
    2f70:	0e 94 98 10 	call	0x2130	; 0x2130 <ledarray_blank>
    2f74:	60 e0       	ldi	r22, 0x00	; 0
    2f76:	c8 01       	movw	r24, r16
    2f78:	0e 94 e5 0f 	call	0x1fca	; 0x1fca <putStr>
    2f7c:	89 e0       	ldi	r24, 0x09	; 9
    2f7e:	0e 94 bb 0a 	call	0x1576	; 0x1576 <ht1632cSendCmd>
    2f82:	80 91 62 04 	lds	r24, 0x0462	; 0x800462 <sys+0x4>
    2f86:	0f 90       	pop	r0
    2f88:	0f 90       	pop	r0
    2f8a:	0f 90       	pop	r0
    2f8c:	0f 90       	pop	r0
    2f8e:	0f 90       	pop	r0
    2f90:	0f 90       	pop	r0
    2f92:	88 23       	and	r24, r24
    2f94:	09 f4       	brne	.+2      	; 0x2f98 <alarmRoutine+0xc4>
    2f96:	4b c0       	rjmp	.+150    	; 0x302e <alarmRoutine+0x15a>
    2f98:	20 e0       	ldi	r18, 0x00	; 0
    2f9a:	ee e5       	ldi	r30, 0x5E	; 94
    2f9c:	f4 e0       	ldi	r31, 0x04	; 4
    2f9e:	80 91 5d 04 	lds	r24, 0x045D	; 0x80045d <flag>
    2fa2:	80 fd       	sbrc	r24, 0
    2fa4:	c3 9a       	sbi	0x18, 3	; 24
    2fa6:	bf ef       	ldi	r27, 0xFF	; 255
    2fa8:	33 ed       	ldi	r19, 0xD3	; 211
    2faa:	40 e3       	ldi	r20, 0x30	; 48
    2fac:	b1 50       	subi	r27, 0x01	; 1
    2fae:	30 40       	sbci	r19, 0x00	; 0
    2fb0:	40 40       	sbci	r20, 0x00	; 0
    2fb2:	e1 f7       	brne	.-8      	; 0x2fac <alarmRoutine+0xd8>
    2fb4:	00 c0       	rjmp	.+0      	; 0x2fb6 <alarmRoutine+0xe2>
    2fb6:	00 00       	nop
    2fb8:	c3 98       	cbi	0x18, 3	; 24
    2fba:	8a e0       	ldi	r24, 0x0A	; 10
    2fbc:	94 98       	cbi	0x12, 4	; 18
    2fbe:	90 91 5d 04 	lds	r25, 0x045D	; 0x80045d <flag>
    2fc2:	90 fd       	sbrc	r25, 0
    2fc4:	c3 9a       	sbi	0x18, 3	; 24
    2fc6:	90 91 5d 04 	lds	r25, 0x045D	; 0x80045d <flag>
    2fca:	91 fd       	sbrc	r25, 1
    2fcc:	c4 9a       	sbi	0x18, 4	; 24
    2fce:	9f ef       	ldi	r25, 0xFF	; 255
    2fd0:	a0 e7       	ldi	r26, 0x70	; 112
    2fd2:	b2 e0       	ldi	r27, 0x02	; 2
    2fd4:	91 50       	subi	r25, 0x01	; 1
    2fd6:	a0 40       	sbci	r26, 0x00	; 0
    2fd8:	b0 40       	sbci	r27, 0x00	; 0
    2fda:	e1 f7       	brne	.-8      	; 0x2fd4 <alarmRoutine+0x100>
    2fdc:	00 c0       	rjmp	.+0      	; 0x2fde <alarmRoutine+0x10a>
    2fde:	00 00       	nop
    2fe0:	94 9a       	sbi	0x12, 4	; 18
    2fe2:	c3 98       	cbi	0x18, 3	; 24
    2fe4:	c4 98       	cbi	0x18, 4	; 24
    2fe6:	3f ef       	ldi	r19, 0xFF	; 255
    2fe8:	44 e3       	ldi	r20, 0x34	; 52
    2fea:	9c e0       	ldi	r25, 0x0C	; 12
    2fec:	31 50       	subi	r19, 0x01	; 1
    2fee:	40 40       	sbci	r20, 0x00	; 0
    2ff0:	90 40       	sbci	r25, 0x00	; 0
    2ff2:	e1 f7       	brne	.-8      	; 0x2fec <alarmRoutine+0x118>
    2ff4:	00 c0       	rjmp	.+0      	; 0x2ff6 <alarmRoutine+0x122>
    2ff6:	00 00       	nop
    2ff8:	9a 9b       	sbis	0x13, 2	; 19
    2ffa:	0a c0       	rjmp	.+20     	; 0x3010 <alarmRoutine+0x13c>
    2ffc:	9b 9b       	sbis	0x13, 3	; 19
    2ffe:	08 c0       	rjmp	.+16     	; 0x3010 <alarmRoutine+0x13c>
    3000:	9c 9b       	sbis	0x13, 4	; 19
    3002:	06 c0       	rjmp	.+12     	; 0x3010 <alarmRoutine+0x13c>
    3004:	9d 9b       	sbis	0x13, 5	; 19
    3006:	04 c0       	rjmp	.+8      	; 0x3010 <alarmRoutine+0x13c>
    3008:	9e 9b       	sbis	0x13, 6	; 19
    300a:	02 c0       	rjmp	.+4      	; 0x3010 <alarmRoutine+0x13c>
    300c:	81 50       	subi	r24, 0x01	; 1
    300e:	b1 f6       	brne	.-84     	; 0x2fbc <alarmRoutine+0xe8>
    3010:	9a 9b       	sbis	0x13, 2	; 19
    3012:	0d c0       	rjmp	.+26     	; 0x302e <alarmRoutine+0x15a>
    3014:	9b 9b       	sbis	0x13, 3	; 19
    3016:	0b c0       	rjmp	.+22     	; 0x302e <alarmRoutine+0x15a>
    3018:	9c 9b       	sbis	0x13, 4	; 19
    301a:	09 c0       	rjmp	.+18     	; 0x302e <alarmRoutine+0x15a>
    301c:	9d 9b       	sbis	0x13, 5	; 19
    301e:	07 c0       	rjmp	.+14     	; 0x302e <alarmRoutine+0x15a>
    3020:	9e 9b       	sbis	0x13, 6	; 19
    3022:	05 c0       	rjmp	.+10     	; 0x302e <alarmRoutine+0x15a>
    3024:	2f 5f       	subi	r18, 0xFF	; 255
    3026:	84 81       	ldd	r24, Z+4	; 0x04
    3028:	28 17       	cp	r18, r24
    302a:	08 f4       	brcc	.+2      	; 0x302e <alarmRoutine+0x15a>
    302c:	b8 cf       	rjmp	.-144    	; 0x2f9e <alarmRoutine+0xca>
    302e:	0e 94 98 10 	call	0x2130	; 0x2130 <ledarray_blank>
    3032:	80 91 5d 04 	lds	r24, 0x045D	; 0x80045d <flag>
    3036:	8b 7e       	andi	r24, 0xEB	; 235
    3038:	8f 7d       	andi	r24, 0xDF	; 223
    303a:	80 93 5d 04 	sts	0x045D, r24	; 0x80045d <flag>
    303e:	80 91 7a 04 	lds	r24, 0x047A	; 0x80047a <ram+0x5>
    3042:	0e 94 aa 16 	call	0x2d54	; 0x2d54 <setPwm>
    3046:	27 96       	adiw	r28, 0x07	; 7
    3048:	0f b6       	in	r0, 0x3f	; 63
    304a:	f8 94       	cli
    304c:	de bf       	out	0x3e, r29	; 62
    304e:	0f be       	out	0x3f, r0	; 63
    3050:	cd bf       	out	0x3d, r28	; 61
    3052:	df 91       	pop	r29
    3054:	cf 91       	pop	r28
    3056:	1f 91       	pop	r17
    3058:	0f 91       	pop	r16
    305a:	08 95       	ret

0000305c <compareAutoDimm>:
    305c:	1f 93       	push	r17
    305e:	cf 93       	push	r28
    3060:	df 93       	push	r29
    3062:	c1 e5       	ldi	r28, 0x51	; 81
    3064:	d4 e0       	ldi	r29, 0x04	; 4
    3066:	8a 81       	ldd	r24, Y+2	; 0x02
    3068:	0e 94 63 0b 	call	0x16c6	; 0x16c6 <rtcBcdToDec>
    306c:	18 2f       	mov	r17, r24
    306e:	89 81       	ldd	r24, Y+1	; 0x01
    3070:	0e 94 63 0b 	call	0x16c6	; 0x16c6 <rtcBcdToDec>
    3074:	6c e3       	ldi	r22, 0x3C	; 60
    3076:	90 e0       	ldi	r25, 0x00	; 0
    3078:	61 9f       	mul	r22, r17
    307a:	80 0d       	add	r24, r0
    307c:	91 1d       	adc	r25, r1
    307e:	11 24       	eor	r1, r1
    3080:	e5 e7       	ldi	r30, 0x75	; 117
    3082:	f4 e0       	ldi	r31, 0x04	; 4
    3084:	45 85       	ldd	r20, Z+13	; 0x0d
    3086:	27 85       	ldd	r18, Z+15	; 0x0f
    3088:	30 e0       	ldi	r19, 0x00	; 0
    308a:	64 9f       	mul	r22, r20
    308c:	20 0d       	add	r18, r0
    308e:	31 1d       	adc	r19, r1
    3090:	11 24       	eor	r1, r1
    3092:	74 85       	ldd	r23, Z+12	; 0x0c
    3094:	46 85       	ldd	r20, Z+14	; 0x0e
    3096:	50 e0       	ldi	r21, 0x00	; 0
    3098:	67 9f       	mul	r22, r23
    309a:	40 0d       	add	r20, r0
    309c:	51 1d       	adc	r21, r1
    309e:	11 24       	eor	r1, r1
    30a0:	24 17       	cp	r18, r20
    30a2:	35 07       	cpc	r19, r21
    30a4:	30 f5       	brcc	.+76     	; 0x30f2 <compareAutoDimm+0x96>
    30a6:	84 17       	cp	r24, r20
    30a8:	95 07       	cpc	r25, r21
    30aa:	08 f4       	brcc	.+2      	; 0x30ae <compareAutoDimm+0x52>
    30ac:	49 c0       	rjmp	.+146    	; 0x3140 <compareAutoDimm+0xe4>
    30ae:	28 17       	cp	r18, r24
    30b0:	39 07       	cpc	r19, r25
    30b2:	20 f0       	brcs	.+8      	; 0x30bc <compareAutoDimm+0x60>
    30b4:	82 17       	cp	r24, r18
    30b6:	93 07       	cpc	r25, r19
    30b8:	08 f0       	brcs	.+2      	; 0x30bc <compareAutoDimm+0x60>
    30ba:	47 c0       	rjmp	.+142    	; 0x314a <compareAutoDimm+0xee>
    30bc:	80 91 5d 04 	lds	r24, 0x045D	; 0x80045d <flag>
    30c0:	85 fd       	sbrc	r24, 5
    30c2:	43 c0       	rjmp	.+134    	; 0x314a <compareAutoDimm+0xee>
    30c4:	80 ea       	ldi	r24, 0xA0	; 160
    30c6:	0e 94 aa 16 	call	0x2d54	; 0x2d54 <setPwm>
    30ca:	80 91 5d 04 	lds	r24, 0x045D	; 0x80045d <flag>
    30ce:	80 62       	ori	r24, 0x20	; 32
    30d0:	80 93 5d 04 	sts	0x045D, r24	; 0x80045d <flag>
    30d4:	3a c0       	rjmp	.+116    	; 0x314a <compareAutoDimm+0xee>
    30d6:	80 91 5d 04 	lds	r24, 0x045D	; 0x80045d <flag>
    30da:	85 ff       	sbrs	r24, 5
    30dc:	36 c0       	rjmp	.+108    	; 0x314a <compareAutoDimm+0xee>
    30de:	80 91 7a 04 	lds	r24, 0x047A	; 0x80047a <ram+0x5>
    30e2:	0e 94 aa 16 	call	0x2d54	; 0x2d54 <setPwm>
    30e6:	80 91 5d 04 	lds	r24, 0x045D	; 0x80045d <flag>
    30ea:	8f 7d       	andi	r24, 0xDF	; 223
    30ec:	80 93 5d 04 	sts	0x045D, r24	; 0x80045d <flag>
    30f0:	2c c0       	rjmp	.+88     	; 0x314a <compareAutoDimm+0xee>
    30f2:	42 17       	cp	r20, r18
    30f4:	53 07       	cpc	r21, r19
    30f6:	48 f5       	brcc	.+82     	; 0x314a <compareAutoDimm+0xee>
    30f8:	84 17       	cp	r24, r20
    30fa:	95 07       	cpc	r25, r21
    30fc:	80 f0       	brcs	.+32     	; 0x311e <compareAutoDimm+0xc2>
    30fe:	82 17       	cp	r24, r18
    3100:	93 07       	cpc	r25, r19
    3102:	80 f4       	brcc	.+32     	; 0x3124 <compareAutoDimm+0xc8>
    3104:	80 91 5d 04 	lds	r24, 0x045D	; 0x80045d <flag>
    3108:	85 fd       	sbrc	r24, 5
    310a:	1f c0       	rjmp	.+62     	; 0x314a <compareAutoDimm+0xee>
    310c:	80 ea       	ldi	r24, 0xA0	; 160
    310e:	0e 94 aa 16 	call	0x2d54	; 0x2d54 <setPwm>
    3112:	80 91 5d 04 	lds	r24, 0x045D	; 0x80045d <flag>
    3116:	80 62       	ori	r24, 0x20	; 32
    3118:	80 93 5d 04 	sts	0x045D, r24	; 0x80045d <flag>
    311c:	16 c0       	rjmp	.+44     	; 0x314a <compareAutoDimm+0xee>
    311e:	82 17       	cp	r24, r18
    3120:	93 07       	cpc	r25, r19
    3122:	98 f0       	brcs	.+38     	; 0x314a <compareAutoDimm+0xee>
    3124:	80 91 5d 04 	lds	r24, 0x045D	; 0x80045d <flag>
    3128:	85 ff       	sbrs	r24, 5
    312a:	0f c0       	rjmp	.+30     	; 0x314a <compareAutoDimm+0xee>
    312c:	80 91 7a 04 	lds	r24, 0x047A	; 0x80047a <ram+0x5>
    3130:	0e 94 aa 16 	call	0x2d54	; 0x2d54 <setPwm>
    3134:	80 91 5d 04 	lds	r24, 0x045D	; 0x80045d <flag>
    3138:	8f 7d       	andi	r24, 0xDF	; 223
    313a:	80 93 5d 04 	sts	0x045D, r24	; 0x80045d <flag>
    313e:	05 c0       	rjmp	.+10     	; 0x314a <compareAutoDimm+0xee>
    3140:	82 17       	cp	r24, r18
    3142:	93 07       	cpc	r25, r19
    3144:	08 f4       	brcc	.+2      	; 0x3148 <compareAutoDimm+0xec>
    3146:	ba cf       	rjmp	.-140    	; 0x30bc <compareAutoDimm+0x60>
    3148:	c6 cf       	rjmp	.-116    	; 0x30d6 <compareAutoDimm+0x7a>
    314a:	df 91       	pop	r29
    314c:	cf 91       	pop	r28
    314e:	1f 91       	pop	r17
    3150:	08 95       	ret

00003152 <get_key_press>:
    3152:	f8 94       	cli
    3154:	ee e5       	ldi	r30, 0x5E	; 94
    3156:	f4 e0       	ldi	r31, 0x04	; 4
    3158:	92 85       	ldd	r25, Z+10	; 0x0a
    315a:	89 23       	and	r24, r25
    315c:	92 85       	ldd	r25, Z+10	; 0x0a
    315e:	98 27       	eor	r25, r24
    3160:	92 87       	std	Z+10, r25	; 0x0a
    3162:	78 94       	sei
    3164:	08 95       	ret

00003166 <get_key_rpt>:
	return key_mask;
}

uint8_t get_key_rpt				( uint8_t key_mask )
{
	cli();                                          // read and clear atomic !
    3166:	f8 94       	cli
	key_mask &= sys.key_rpt;                            // read key(s)
    3168:	ee e5       	ldi	r30, 0x5E	; 94
    316a:	f4 e0       	ldi	r31, 0x04	; 4
    316c:	91 85       	ldd	r25, Z+9	; 0x09
    316e:	89 23       	and	r24, r25
	sys.key_rpt ^= key_mask;                            // clear key(s)
    3170:	91 85       	ldd	r25, Z+9	; 0x09
    3172:	98 27       	eor	r25, r24
    3174:	91 87       	std	Z+9, r25	; 0x09
	sei();
    3176:	78 94       	sei
	return key_mask;
}
    3178:	08 95       	ret

0000317a <switch_debounce>:
void switch_debounce			( void )
{
	static uint8_t ct0, ct1, rpt;
	uint8_t i;
	
	i =  sys.key_state ^ ~PINC;					// key changed ?
    317a:	ee e5       	ldi	r30, 0x5E	; 94
    317c:	f4 e0       	ldi	r31, 0x04	; 4
    317e:	90 85       	ldd	r25, Z+8	; 0x08
    3180:	83 b3       	in	r24, 0x13	; 19
    3182:	80 95       	com	r24
    3184:	28 2f       	mov	r18, r24
    3186:	29 27       	eor	r18, r25
	ct0 = ~( ct0 & i );						// reset or count ct0
    3188:	90 91 e7 03 	lds	r25, 0x03E7	; 0x8003e7 <ct0.3251>
    318c:	92 23       	and	r25, r18
    318e:	89 2f       	mov	r24, r25
    3190:	80 95       	com	r24
    3192:	80 93 e7 03 	sts	0x03E7, r24	; 0x8003e7 <ct0.3251>
	ct1 = ct0 ^ (ct1 & i);					// reset or count ct1
    3196:	90 91 e6 03 	lds	r25, 0x03E6	; 0x8003e6 <ct1.3252>
    319a:	92 23       	and	r25, r18
    319c:	98 27       	eor	r25, r24
    319e:	90 93 e6 03 	sts	0x03E6, r25	; 0x8003e6 <ct1.3252>
    31a2:	82 23       	and	r24, r18
	i &= ct0 & ct1;							// count until roll over ?
    31a4:	89 23       	and	r24, r25
	sys.key_state ^= i;							// then toggle debounced state
    31a6:	90 85       	ldd	r25, Z+8	; 0x08
    31a8:	98 27       	eor	r25, r24
    31aa:	90 87       	std	Z+8, r25	; 0x08
	sys.key_press |= sys.key_state & i;				// 0->1: key press detect
    31ac:	20 85       	ldd	r18, Z+8	; 0x08
    31ae:	92 85       	ldd	r25, Z+10	; 0x0a
    31b0:	82 23       	and	r24, r18
    31b2:	89 2b       	or	r24, r25
    31b4:	82 87       	std	Z+10, r24	; 0x0a
	
	if( (sys.key_state & (0b01111100)) == 0 )	// check repeat function
    31b6:	80 85       	ldd	r24, Z+8	; 0x08
    31b8:	8c 77       	andi	r24, 0x7C	; 124
    31ba:	21 f4       	brne	.+8      	; 0x31c4 <switch_debounce+0x4a>
	rpt = 50;								// start delay
	if(--rpt == 0 )
    31bc:	81 e3       	ldi	r24, 0x31	; 49
    31be:	80 93 e5 03 	sts	0x03E5, r24	; 0x8003e5 <rpt.3253>
    31c2:	11 c0       	rjmp	.+34     	; 0x31e6 <switch_debounce+0x6c>
    31c4:	80 91 e5 03 	lds	r24, 0x03E5	; 0x8003e5 <rpt.3253>
    31c8:	81 50       	subi	r24, 0x01	; 1
    31ca:	19 f0       	breq	.+6      	; 0x31d2 <switch_debounce+0x58>
    31cc:	80 93 e5 03 	sts	0x03E5, r24	; 0x8003e5 <rpt.3253>
    31d0:	0a c0       	rjmp	.+20     	; 0x31e6 <switch_debounce+0x6c>
	{
		rpt = 15;                            // repeat delay
    31d2:	8f e0       	ldi	r24, 0x0F	; 15
    31d4:	80 93 e5 03 	sts	0x03E5, r24	; 0x8003e5 <rpt.3253>
		sys.key_rpt |= sys.key_state & (0b01111100);
    31d8:	ee e5       	ldi	r30, 0x5E	; 94
    31da:	f4 e0       	ldi	r31, 0x04	; 4
    31dc:	80 85       	ldd	r24, Z+8	; 0x08
    31de:	91 85       	ldd	r25, Z+9	; 0x09
    31e0:	8c 77       	andi	r24, 0x7C	; 124
    31e2:	89 2b       	or	r24, r25
    31e4:	81 87       	std	Z+9, r24	; 0x09
	}
	
	if ( get_key_press( 1<<PC2 ) )
    31e6:	84 e0       	ldi	r24, 0x04	; 4
    31e8:	0e 94 a9 18 	call	0x3152	; 0x3152 <get_key_press>
    31ec:	88 23       	and	r24, r24
    31ee:	59 f0       	breq	.+22     	; 0x3206 <switch_debounce+0x8c>
	{
		button.pressed.menue = 1;	// Men
    31f0:	80 91 6f 04 	lds	r24, 0x046F	; 0x80046f <button>
    31f4:	81 60       	ori	r24, 0x01	; 1
    31f6:	80 93 6f 04 	sts	0x046F, r24	; 0x80046f <button>
		sys.menueTimeout = 0;
    31fa:	ee e5       	ldi	r30, 0x5E	; 94
    31fc:	f4 e0       	ldi	r31, 0x04	; 4
    31fe:	10 8a       	std	Z+16, r1	; 0x10
    3200:	17 86       	std	Z+15, r1	; 0x0f
		sys.blinkCnt = 0;
    3202:	16 86       	std	Z+14, r1	; 0x0e
    3204:	15 86       	std	Z+13, r1	; 0x0d
	}	
	
	if ( get_key_press( 1<<PC3 ) )
    3206:	88 e0       	ldi	r24, 0x08	; 8
    3208:	0e 94 a9 18 	call	0x3152	; 0x3152 <get_key_press>
    320c:	88 23       	and	r24, r24
    320e:	59 f0       	breq	.+22     	; 0x3226 <switch_debounce+0xac>
	{
		button.pressed.exit = 1;	// Exit
    3210:	80 91 6f 04 	lds	r24, 0x046F	; 0x80046f <button>
    3214:	82 60       	ori	r24, 0x02	; 2
    3216:	80 93 6f 04 	sts	0x046F, r24	; 0x80046f <button>
		sys.menueTimeout = 0;
    321a:	ee e5       	ldi	r30, 0x5E	; 94
    321c:	f4 e0       	ldi	r31, 0x04	; 4
    321e:	10 8a       	std	Z+16, r1	; 0x10
    3220:	17 86       	std	Z+15, r1	; 0x0f
		sys.blinkCnt = 0;
    3222:	16 86       	std	Z+14, r1	; 0x0e
    3224:	15 86       	std	Z+13, r1	; 0x0d
	}
	
	if ( get_key_press( 1<<PC4 ) )
    3226:	80 e1       	ldi	r24, 0x10	; 16
    3228:	0e 94 a9 18 	call	0x3152	; 0x3152 <get_key_press>
    322c:	88 23       	and	r24, r24
    322e:	59 f0       	breq	.+22     	; 0x3246 <switch_debounce+0xcc>
	{
		button.pressed.down = 1;
    3230:	80 91 6f 04 	lds	r24, 0x046F	; 0x80046f <button>
    3234:	84 60       	ori	r24, 0x04	; 4
    3236:	80 93 6f 04 	sts	0x046F, r24	; 0x80046f <button>
		sys.menueTimeout = 0;
    323a:	ee e5       	ldi	r30, 0x5E	; 94
    323c:	f4 e0       	ldi	r31, 0x04	; 4
    323e:	10 8a       	std	Z+16, r1	; 0x10
    3240:	17 86       	std	Z+15, r1	; 0x0f
		sys.blinkCnt = 0;
    3242:	16 86       	std	Z+14, r1	; 0x0e
    3244:	15 86       	std	Z+13, r1	; 0x0d
	}
	
	if (get_key_rpt(1<<PC4))
    3246:	80 e1       	ldi	r24, 0x10	; 16
    3248:	0e 94 b3 18 	call	0x3166	; 0x3166 <get_key_rpt>
    324c:	88 23       	and	r24, r24
    324e:	59 f0       	breq	.+22     	; 0x3266 <switch_debounce+0xec>
	{
		button.pressed.down = 1;
    3250:	80 91 6f 04 	lds	r24, 0x046F	; 0x80046f <button>
    3254:	84 60       	ori	r24, 0x04	; 4
    3256:	80 93 6f 04 	sts	0x046F, r24	; 0x80046f <button>
		sys.menueTimeout = 0;
    325a:	ee e5       	ldi	r30, 0x5E	; 94
    325c:	f4 e0       	ldi	r31, 0x04	; 4
    325e:	10 8a       	std	Z+16, r1	; 0x10
    3260:	17 86       	std	Z+15, r1	; 0x0f
		sys.blinkCnt = 0;
    3262:	16 86       	std	Z+14, r1	; 0x0e
    3264:	15 86       	std	Z+13, r1	; 0x0d
	}
	
	if (get_key_rpt(1<<PC5))
    3266:	80 e2       	ldi	r24, 0x20	; 32
    3268:	0e 94 b3 18 	call	0x3166	; 0x3166 <get_key_rpt>
    326c:	88 23       	and	r24, r24
    326e:	59 f0       	breq	.+22     	; 0x3286 <switch_debounce+0x10c>
	{
		button.pressed.up = 1;
    3270:	80 91 6f 04 	lds	r24, 0x046F	; 0x80046f <button>
    3274:	88 60       	ori	r24, 0x08	; 8
    3276:	80 93 6f 04 	sts	0x046F, r24	; 0x80046f <button>
		sys.menueTimeout = 0;
    327a:	ee e5       	ldi	r30, 0x5E	; 94
    327c:	f4 e0       	ldi	r31, 0x04	; 4
    327e:	10 8a       	std	Z+16, r1	; 0x10
    3280:	17 86       	std	Z+15, r1	; 0x0f
		sys.blinkCnt = 0;
    3282:	16 86       	std	Z+14, r1	; 0x0e
    3284:	15 86       	std	Z+13, r1	; 0x0d
	}
	
	if (get_key_press(1<<PC5))
    3286:	80 e2       	ldi	r24, 0x20	; 32
    3288:	0e 94 a9 18 	call	0x3152	; 0x3152 <get_key_press>
    328c:	88 23       	and	r24, r24
    328e:	59 f0       	breq	.+22     	; 0x32a6 <switch_debounce+0x12c>
	{
		button.pressed.up = 1;
    3290:	80 91 6f 04 	lds	r24, 0x046F	; 0x80046f <button>
    3294:	88 60       	ori	r24, 0x08	; 8
    3296:	80 93 6f 04 	sts	0x046F, r24	; 0x80046f <button>
		sys.menueTimeout = 0;
    329a:	ee e5       	ldi	r30, 0x5E	; 94
    329c:	f4 e0       	ldi	r31, 0x04	; 4
    329e:	10 8a       	std	Z+16, r1	; 0x10
    32a0:	17 86       	std	Z+15, r1	; 0x0f
		sys.blinkCnt = 0;
    32a2:	16 86       	std	Z+14, r1	; 0x0e
    32a4:	15 86       	std	Z+13, r1	; 0x0d
	}
	
	if (get_key_press(1<<PC6))// Enter
    32a6:	80 e4       	ldi	r24, 0x40	; 64
    32a8:	0e 94 a9 18 	call	0x3152	; 0x3152 <get_key_press>
    32ac:	88 23       	and	r24, r24
    32ae:	59 f0       	breq	.+22     	; 0x32c6 <switch_debounce+0x14c>
	{
		button.pressed.enter = 1;
    32b0:	80 91 6f 04 	lds	r24, 0x046F	; 0x80046f <button>
    32b4:	80 61       	ori	r24, 0x10	; 16
    32b6:	80 93 6f 04 	sts	0x046F, r24	; 0x80046f <button>
		sys.menueTimeout = 0;
    32ba:	ee e5       	ldi	r30, 0x5E	; 94
    32bc:	f4 e0       	ldi	r31, 0x04	; 4
    32be:	10 8a       	std	Z+16, r1	; 0x10
    32c0:	17 86       	std	Z+15, r1	; 0x0f
		sys.blinkCnt = 0;
    32c2:	16 86       	std	Z+14, r1	; 0x0e
    32c4:	15 86       	std	Z+13, r1	; 0x0d
    32c6:	08 95       	ret

000032c8 <cnfgTime_>:
	sei();
	return key_mask;
}

uint8_t cnfgTime_				( uint8_t *buff )
{     
    32c8:	9f 92       	push	r9
    32ca:	af 92       	push	r10
    32cc:	bf 92       	push	r11
    32ce:	cf 92       	push	r12
    32d0:	df 92       	push	r13
    32d2:	ef 92       	push	r14
    32d4:	ff 92       	push	r15
    32d6:	0f 93       	push	r16
    32d8:	1f 93       	push	r17
    32da:	cf 93       	push	r28
    32dc:	df 93       	push	r29
    32de:	00 d0       	rcall	.+0      	; 0x32e0 <cnfgTime_+0x18>
    32e0:	cd b7       	in	r28, 0x3d	; 61
    32e2:	de b7       	in	r29, 0x3e	; 62
    32e4:	8c 01       	movw	r16, r24
    /*
    *      Werte mssen beim Funktionsaufruf mitgegeben werden..
    *      Anhand der ersten beiden Bytes von "buff" werden die
    *      maximal Gren von den Werten festgelegt
    */
    uint8_t maxValues[] = { buff[0] , buff[1] }; 
    32e6:	fc 01       	movw	r30, r24
    32e8:	80 81       	ld	r24, Z
    32ea:	89 83       	std	Y+1, r24	; 0x01
    32ec:	81 81       	ldd	r24, Z+1	; 0x01
    32ee:	8a 83       	std	Y+2, r24	; 0x02

	buff[0] = buff[2];
    32f0:	82 81       	ldd	r24, Z+2	; 0x02
    32f2:	80 83       	st	Z, r24
	buff[1] = buff[3];
    32f4:	83 81       	ldd	r24, Z+3	; 0x03
    32f6:	81 83       	std	Z+1, r24	; 0x01
	
	doublePointOn();
    32f8:	0e 94 13 10 	call	0x2026	; 0x2026 <doublePointOn>
    putTimeDec( buff[ 0 ] , buff[ 1 ] );
    32fc:	f8 01       	movw	r30, r16
    32fe:	61 81       	ldd	r22, Z+1	; 0x01
    3300:	80 81       	ld	r24, Z
    3302:	0e 94 ad 0f 	call	0x1f5a	; 0x1f5a <putTimeDec>

    for ( uint8_t i = 0 ; i < 2 && ( ! ( flag.menueExit ) ) ; i++ )
    3306:	80 91 5d 04 	lds	r24, 0x045D	; 0x80045d <flag>
    330a:	84 fd       	sbrc	r24, 4
    330c:	54 c0       	rjmp	.+168    	; 0x33b6 <cnfgTime_+0xee>
    330e:	78 01       	movw	r14, r16
    3310:	ce 01       	movw	r24, r28
    3312:	01 96       	adiw	r24, 0x01	; 1
    3314:	6c 01       	movw	r12, r24
    3316:	91 2c       	mov	r9, r1
    3318:	4c c0       	rjmp	.+152    	; 0x33b2 <cnfgTime_+0xea>
    {
		while( ! ( state ) )
		{
			if ( button.pressed.up )
			{
				button.all = 0;   
    331a:	10 92 6f 04 	sts	0x046F, r1	; 0x80046f <button>
	clearDisplay( true , false );
}

uint8_t incDec					( uint8_t value, uint8_t valueMax )
 {	 
	if ( ++value > valueMax )
    331e:	f7 01       	movw	r30, r14
    3320:	80 81       	ld	r24, Z
    3322:	8f 5f       	subi	r24, 0xFF	; 255
    3324:	f6 01       	movw	r30, r12
    3326:	90 81       	ld	r25, Z
    3328:	98 17       	cp	r25, r24
    332a:	08 f4       	brcc	.+2      	; 0x332e <cnfgTime_+0x66>
	{
		value = 0;
    332c:	80 e0       	ldi	r24, 0x00	; 0
		while( ! ( state ) )
		{
			if ( button.pressed.up )
			{
				button.all = 0;   
				buff[i] = incDec( buff[i] , maxValues[i] );
    332e:	f5 01       	movw	r30, r10
    3330:	80 83       	st	Z, r24
			}
            
			if ( button.pressed.down )
    3332:	80 91 6f 04 	lds	r24, 0x046F	; 0x80046f <button>
    3336:	82 ff       	sbrs	r24, 2
    3338:	0b c0       	rjmp	.+22     	; 0x3350 <cnfgTime_+0x88>
            {
				button.all	= 0;                        
    333a:	10 92 6f 04 	sts	0x046F, r1	; 0x80046f <button>
				buff[i] = decDec( buff[i] , maxValues[i] );
    333e:	f6 01       	movw	r30, r12
    3340:	90 81       	ld	r25, Z
	return value;
 }
 
uint8_t decDec					( uint8_t value, uint8_t valueMin )
{	
	if ( (int8_t)--value < 0 )
    3342:	f7 01       	movw	r30, r14
    3344:	80 81       	ld	r24, Z
    3346:	81 50       	subi	r24, 0x01	; 1
    3348:	0a f4       	brpl	.+2      	; 0x334c <cnfgTime_+0x84>
	{
		value = valueMin;
    334a:	89 2f       	mov	r24, r25
			}
            
			if ( button.pressed.down )
            {
				button.all	= 0;                        
				buff[i] = decDec( buff[i] , maxValues[i] );
    334c:	f5 01       	movw	r30, r10
    334e:	80 83       	st	Z, r24
            }
			
			if ( button.pressed.enter )
    3350:	80 91 6f 04 	lds	r24, 0x046F	; 0x80046f <button>
    3354:	84 ff       	sbrs	r24, 4
    3356:	07 c0       	rjmp	.+14     	; 0x3366 <cnfgTime_+0x9e>
			{
				button.all	= 0;
    3358:	10 92 6f 04 	sts	0x046F, r1	; 0x80046f <button>
	buff[1] = buff[3];
	
	doublePointOn();
    putTimeDec( buff[ 0 ] , buff[ 1 ] );

    for ( uint8_t i = 0 ; i < 2 && ( ! ( flag.menueExit ) ) ; i++ )
    335c:	93 94       	inc	r9
    335e:	f2 e0       	ldi	r31, 0x02	; 2
    3360:	9f 12       	cpse	r9, r31
    3362:	1d c0       	rjmp	.+58     	; 0x339e <cnfgTime_+0xd6>
    3364:	28 c0       	rjmp	.+80     	; 0x33b6 <cnfgTime_+0xee>
			{
				button.all	= 0;
				break;
			}
			
			if ( ( button.pressed.exit ) || ( flag.menueExit ) )
    3366:	80 91 6f 04 	lds	r24, 0x046F	; 0x80046f <button>
    336a:	81 fd       	sbrc	r24, 1
    336c:	04 c0       	rjmp	.+8      	; 0x3376 <cnfgTime_+0xae>
    336e:	80 91 5d 04 	lds	r24, 0x045D	; 0x80045d <flag>
    3372:	84 ff       	sbrs	r24, 4
    3374:	09 c0       	rjmp	.+18     	; 0x3388 <cnfgTime_+0xc0>
			{
				button.all		= 0;
    3376:	10 92 6f 04 	sts	0x046F, r1	; 0x80046f <button>
				flag.menueExit	= 0;
    337a:	80 91 5d 04 	lds	r24, 0x045D	; 0x80045d <flag>
    337e:	8f 7e       	andi	r24, 0xEF	; 239
    3380:	80 93 5d 04 	sts	0x045D, r24	; 0x80045d <flag>
				return 1;
    3384:	81 e0       	ldi	r24, 0x01	; 1
    3386:	21 c0       	rjmp	.+66     	; 0x33ca <cnfgTime_+0x102>
        
			/*
			*      Hier wird durch blinken die aktuelle Position des
			*      virtuellen Cursors angezeigt..
			*/
			blinkTime( buff[0] , buff[1] , i );
    3388:	49 2d       	mov	r20, r9
    338a:	f8 01       	movw	r30, r16
    338c:	61 81       	ldd	r22, Z+1	; 0x01
    338e:	80 81       	ld	r24, Z
    3390:	0e 94 18 10 	call	0x2030	; 0x2030 <blinkTime>

    for ( uint8_t i = 0 ; i < 2 && ( ! ( flag.menueExit ) ) ; i++ )
    {
		while( ! ( state ) )
		{
			if ( button.pressed.up )
    3394:	80 91 6f 04 	lds	r24, 0x046F	; 0x80046f <button>
    3398:	83 fd       	sbrc	r24, 3
    339a:	bf cf       	rjmp	.-130    	; 0x331a <cnfgTime_+0x52>
    339c:	ca cf       	rjmp	.-108    	; 0x3332 <cnfgTime_+0x6a>
    339e:	ff ef       	ldi	r31, 0xFF	; 255
    33a0:	ef 1a       	sub	r14, r31
    33a2:	ff 0a       	sbc	r15, r31
    33a4:	8f ef       	ldi	r24, 0xFF	; 255
    33a6:	c8 1a       	sub	r12, r24
    33a8:	d8 0a       	sbc	r13, r24
	buff[1] = buff[3];
	
	doublePointOn();
    putTimeDec( buff[ 0 ] , buff[ 1 ] );

    for ( uint8_t i = 0 ; i < 2 && ( ! ( flag.menueExit ) ) ; i++ )
    33aa:	80 91 5d 04 	lds	r24, 0x045D	; 0x80045d <flag>
    33ae:	84 fd       	sbrc	r24, 4
    33b0:	02 c0       	rjmp	.+4      	; 0x33b6 <cnfgTime_+0xee>
    33b2:	57 01       	movw	r10, r14
    33b4:	ef cf       	rjmp	.-34     	; 0x3394 <cnfgTime_+0xcc>
			blinkTime( buff[0] , buff[1] , i );
		}     
	}


	flag.menueExit	= 0;
    33b6:	80 91 5d 04 	lds	r24, 0x045D	; 0x80045d <flag>
    33ba:	8f 7e       	andi	r24, 0xEF	; 239
    33bc:	80 93 5d 04 	sts	0x045D, r24	; 0x80045d <flag>
    sys.autoChangeSec	= 0;
    33c0:	10 92 60 04 	sts	0x0460, r1	; 0x800460 <sys+0x2>
    button.all      = 0;
    33c4:	10 92 6f 04 	sts	0x046F, r1	; 0x80046f <button>

    return 0;
    33c8:	80 e0       	ldi	r24, 0x00	; 0
}
    33ca:	0f 90       	pop	r0
    33cc:	0f 90       	pop	r0
    33ce:	df 91       	pop	r29
    33d0:	cf 91       	pop	r28
    33d2:	1f 91       	pop	r17
    33d4:	0f 91       	pop	r16
    33d6:	ff 90       	pop	r15
    33d8:	ef 90       	pop	r14
    33da:	df 90       	pop	r13
    33dc:	cf 90       	pop	r12
    33de:	bf 90       	pop	r11
    33e0:	af 90       	pop	r10
    33e2:	9f 90       	pop	r9
    33e4:	08 95       	ret

000033e6 <menueAutoChange>:
	
	return 0;	
}

uint8_t menueAutoChange		( void )
{
    33e6:	1f 93       	push	r17
    33e8:	cf 93       	push	r28
    33ea:	df 93       	push	r29
    33ec:	00 d0       	rcall	.+0      	; 0x33ee <menueAutoChange+0x8>
    33ee:	00 d0       	rcall	.+0      	; 0x33f0 <menueAutoChange+0xa>
    33f0:	cd b7       	in	r28, 0x3d	; 61
    33f2:	de b7       	in	r29, 0x3e	; 62
	uint8_t ret = 0;
	
	uint8_t buff[] = { 59 , 59 , eeprom_read_byte( &eep.byte8[AUTO_CHANGE_MINUTE] ) , eeprom_read_byte( &eep.byte8[AUTO_CHANGE_SECOUND] ) }; // Darf nicht verndert werden..
    33f4:	8b e3       	ldi	r24, 0x3B	; 59
    33f6:	89 83       	std	Y+1, r24	; 0x01
    33f8:	8a 83       	std	Y+2, r24	; 0x02
    33fa:	8c e0       	ldi	r24, 0x0C	; 12
    33fc:	90 e0       	ldi	r25, 0x00	; 0
    33fe:	0e 94 7b 29 	call	0x52f6	; 0x52f6 <eeprom_read_byte>
    3402:	8b 83       	std	Y+3, r24	; 0x03
    3404:	8d e0       	ldi	r24, 0x0D	; 13
    3406:	90 e0       	ldi	r25, 0x00	; 0
    3408:	0e 94 7b 29 	call	0x52f6	; 0x52f6 <eeprom_read_byte>
    340c:	8c 83       	std	Y+4, r24	; 0x04
	
	ret = cnfgTime_( buff );
    340e:	ce 01       	movw	r24, r28
    3410:	01 96       	adiw	r24, 0x01	; 1
    3412:	0e 94 64 19 	call	0x32c8	; 0x32c8 <cnfgTime_>
	
	if ( ret )
    3416:	81 11       	cpse	r24, r1
    3418:	1d c0       	rjmp	.+58     	; 0x3454 <menueAutoChange+0x6e>
	{
		return 1;
	}
	
	eeprom_update_byte( &eep.byte8[AUTO_CHANGE_MINUTE] , buff[0] );
    341a:	69 81       	ldd	r22, Y+1	; 0x01
    341c:	8c e0       	ldi	r24, 0x0C	; 12
    341e:	90 e0       	ldi	r25, 0x00	; 0
    3420:	0e 94 89 29 	call	0x5312	; 0x5312 <eeprom_update_byte>
	eeprom_busy_wait();
    3424:	e1 99       	sbic	0x1c, 1	; 28
    3426:	fe cf       	rjmp	.-4      	; 0x3424 <menueAutoChange+0x3e>
	eeprom_update_byte( &eep.byte8[AUTO_CHANGE_SECOUND] , buff[1] );
    3428:	6a 81       	ldd	r22, Y+2	; 0x02
    342a:	8d e0       	ldi	r24, 0x0D	; 13
    342c:	90 e0       	ldi	r25, 0x00	; 0
    342e:	0e 94 89 29 	call	0x5312	; 0x5312 <eeprom_update_byte>
	eeprom_busy_wait();
    3432:	8c b3       	in	r24, 0x1c	; 28
    3434:	18 2f       	mov	r17, r24
    3436:	12 70       	andi	r17, 0x02	; 2
    3438:	81 fd       	sbrc	r24, 1
    343a:	fb cf       	rjmp	.-10     	; 0x3432 <menueAutoChange+0x4c>
	
	ram.byte8[AUTO_CHANGE_MINUTE]	= buff[0];
    343c:	e5 e7       	ldi	r30, 0x75	; 117
    343e:	f4 e0       	ldi	r31, 0x04	; 4
    3440:	89 81       	ldd	r24, Y+1	; 0x01
    3442:	82 87       	std	Z+10, r24	; 0x0a
	ram.byte8[AUTO_CHANGE_SECOUND]	= buff[1];
    3444:	8a 81       	ldd	r24, Y+2	; 0x02
    3446:	83 87       	std	Z+11, r24	; 0x0b
	
	scroll_display( (const __flash char *)"Gespeichert..!" , SCROLL_SAVE_SPEED );
    3448:	6a e0       	ldi	r22, 0x0A	; 10
    344a:	82 e5       	ldi	r24, 0x52	; 82
    344c:	92 e0       	ldi	r25, 0x02	; 2
    344e:	0e 94 a3 10 	call	0x2146	; 0x2146 <scroll_display>
	
	return 0;
    3452:	01 c0       	rjmp	.+2      	; 0x3456 <menueAutoChange+0x70>
	
	ret = cnfgTime_( buff );
	
	if ( ret )
	{
		return 1;
    3454:	11 e0       	ldi	r17, 0x01	; 1
	ram.byte8[AUTO_CHANGE_SECOUND]	= buff[1];
	
	scroll_display( (const __flash char *)"Gespeichert..!" , SCROLL_SAVE_SPEED );
	
	return 0;
}
    3456:	81 2f       	mov	r24, r17
    3458:	0f 90       	pop	r0
    345a:	0f 90       	pop	r0
    345c:	0f 90       	pop	r0
    345e:	0f 90       	pop	r0
    3460:	df 91       	pop	r29
    3462:	cf 91       	pop	r28
    3464:	1f 91       	pop	r17
    3466:	08 95       	ret

00003468 <menueTime>:

uint8_t menueTime			( void )
{
    3468:	0f 93       	push	r16
    346a:	1f 93       	push	r17
    346c:	cf 93       	push	r28
    346e:	df 93       	push	r29
    3470:	00 d0       	rcall	.+0      	; 0x3472 <menueTime+0xa>
    3472:	00 d0       	rcall	.+0      	; 0x3474 <menueTime+0xc>
    3474:	cd b7       	in	r28, 0x3d	; 61
    3476:	de b7       	in	r29, 0x3e	; 62
	uint8_t ret = 0;
	
	rtcGetData( &rx8564 );
    3478:	81 e5       	ldi	r24, 0x51	; 81
    347a:	94 e0       	ldi	r25, 0x04	; 4
    347c:	0e 94 27 0c 	call	0x184e	; 0x184e <rtcGetData>
	uint8_t buff[] = { 23 , 59 , rtcBcdToDec(rx8564.hour) , rtcBcdToDec(rx8564.minute) };
    3480:	87 e1       	ldi	r24, 0x17	; 23
    3482:	89 83       	std	Y+1, r24	; 0x01
    3484:	8b e3       	ldi	r24, 0x3B	; 59
    3486:	8a 83       	std	Y+2, r24	; 0x02
    3488:	01 e5       	ldi	r16, 0x51	; 81
    348a:	14 e0       	ldi	r17, 0x04	; 4
    348c:	f8 01       	movw	r30, r16
    348e:	82 81       	ldd	r24, Z+2	; 0x02
    3490:	0e 94 63 0b 	call	0x16c6	; 0x16c6 <rtcBcdToDec>
    3494:	8b 83       	std	Y+3, r24	; 0x03
    3496:	f8 01       	movw	r30, r16
    3498:	81 81       	ldd	r24, Z+1	; 0x01
    349a:	0e 94 63 0b 	call	0x16c6	; 0x16c6 <rtcBcdToDec>
    349e:	8c 83       	std	Y+4, r24	; 0x04
	
	ret = cnfgTime_( buff );
    34a0:	ce 01       	movw	r24, r28
    34a2:	01 96       	adiw	r24, 0x01	; 1
    34a4:	0e 94 64 19 	call	0x32c8	; 0x32c8 <cnfgTime_>
	
	if ( ret )
    34a8:	81 11       	cpse	r24, r1
    34aa:	0c c0       	rjmp	.+24     	; 0x34c4 <menueTime+0x5c>
	{
		return 1;	
	}
	
	rtcSetTime( buff[0] , buff[1] , 0 );	
    34ac:	40 e0       	ldi	r20, 0x00	; 0
    34ae:	6a 81       	ldd	r22, Y+2	; 0x02
    34b0:	89 81       	ldd	r24, Y+1	; 0x01
    34b2:	0e 94 6e 0b 	call	0x16dc	; 0x16dc <rtcSetTime>
	scroll_display( (const __flash char *)"Gespeichert..!" , SCROLL_SAVE_SPEED );
    34b6:	6a e0       	ldi	r22, 0x0A	; 10
    34b8:	82 e5       	ldi	r24, 0x52	; 82
    34ba:	92 e0       	ldi	r25, 0x02	; 2
    34bc:	0e 94 a3 10 	call	0x2146	; 0x2146 <scroll_display>
	
	return 0;
    34c0:	80 e0       	ldi	r24, 0x00	; 0
    34c2:	01 c0       	rjmp	.+2      	; 0x34c6 <menueTime+0x5e>
	
	ret = cnfgTime_( buff );
	
	if ( ret )
	{
		return 1;	
    34c4:	81 e0       	ldi	r24, 0x01	; 1
	
	rtcSetTime( buff[0] , buff[1] , 0 );	
	scroll_display( (const __flash char *)"Gespeichert..!" , SCROLL_SAVE_SPEED );
	
	return 0;
}
    34c6:	0f 90       	pop	r0
    34c8:	0f 90       	pop	r0
    34ca:	0f 90       	pop	r0
    34cc:	0f 90       	pop	r0
    34ce:	df 91       	pop	r29
    34d0:	cf 91       	pop	r28
    34d2:	1f 91       	pop	r17
    34d4:	0f 91       	pop	r16
    34d6:	08 95       	ret

000034d8 <dcf77StartScan>:

    return 0;
}

uint8_t dcf77StartScan			( void )
{			
    34d8:	2f 92       	push	r2
    34da:	3f 92       	push	r3
    34dc:	4f 92       	push	r4
    34de:	5f 92       	push	r5
    34e0:	6f 92       	push	r6
    34e2:	7f 92       	push	r7
    34e4:	8f 92       	push	r8
    34e6:	9f 92       	push	r9
    34e8:	af 92       	push	r10
    34ea:	bf 92       	push	r11
    34ec:	cf 92       	push	r12
    34ee:	df 92       	push	r13
    34f0:	ef 92       	push	r14
    34f2:	ff 92       	push	r15
    34f4:	0f 93       	push	r16
    34f6:	1f 93       	push	r17
    34f8:	cf 93       	push	r28
    34fa:	df 93       	push	r29
    34fc:	cd b7       	in	r28, 0x3d	; 61
    34fe:	de b7       	in	r29, 0x3e	; 62
    3500:	29 97       	sbiw	r28, 0x09	; 9
    3502:	0f b6       	in	r0, 0x3f	; 63
    3504:	f8 94       	cli
    3506:	de bf       	out	0x3e, r29	; 62
    3508:	0f be       	out	0x3f, r0	; 63
    350a:	cd bf       	out	0x3d, r28	; 61
	*	Aufnahme ist beendet
	*/
 	HEARTBEAT_LED_OFF;
	 	
	return state;
}
    350c:	2d b7       	in	r18, 0x3d	; 61
    350e:	3e b7       	in	r19, 0x3e	; 62
    3510:	39 87       	std	Y+9, r19	; 0x09
    3512:	28 87       	std	Y+8, r18	; 0x08
		uint8_t hour;
		uint8_t wDay;
		uint8_t meszMes;
		uint16_t year;
	}dcfRec_t;
	dcfRec_t dcfRec[ram.byte8[DCF77_NUM_OF_RECORDS]];	
    3514:	05 e7       	ldi	r16, 0x75	; 117
    3516:	14 e0       	ldi	r17, 0x04	; 4
    3518:	d8 01       	movw	r26, r16
    351a:	90 96       	adiw	r26, 0x20	; 32
    351c:	8c 91       	ld	r24, X
    351e:	ed b7       	in	r30, 0x3d	; 61
    3520:	fe b7       	in	r31, 0x3e	; 62
    3522:	27 e0       	ldi	r18, 0x07	; 7
    3524:	82 9f       	mul	r24, r18
    3526:	e0 19       	sub	r30, r0
    3528:	f1 09       	sbc	r31, r1
    352a:	11 24       	eor	r1, r1
    352c:	0f b6       	in	r0, 0x3f	; 63
    352e:	f8 94       	cli
    3530:	fe bf       	out	0x3e, r31	; 62
    3532:	0f be       	out	0x3f, r0	; 63
    3534:	ed bf       	out	0x3d, r30	; 61
    3536:	8d b7       	in	r24, 0x3d	; 61
    3538:	9e b7       	in	r25, 0x3e	; 62
    353a:	01 96       	adiw	r24, 0x01	; 1
    353c:	9f 83       	std	Y+7, r25	; 0x07
    353e:	8e 83       	std	Y+6, r24	; 0x06
    3540:	4c 01       	movw	r8, r24
		
	syncDCF				= true;
    3542:	81 e0       	ldi	r24, 0x01	; 1
    3544:	80 93 09 04 	sts	0x0409, r24	; 0x800409 <syncDCF>
	dcf77ScanIsActive	= true;
    3548:	80 93 08 04 	sts	0x0408, r24	; 0x800408 <dcf77ScanIsActive>
	
	MATRIX_LEDS_OFF;
    354c:	82 e0       	ldi	r24, 0x02	; 2
    354e:	0e 94 bb 0a 	call	0x1576	; 0x1576 <ht1632cSendCmd>
	
	/*	DCF77
	*	Aufnahme beginnt
	*/
	HEARTBEAT_LED_ON;
    3552:	94 98       	cbi	0x12, 4	; 18
	
	for ( uint8_t i = 0 ; ( i < ram.byte8[DCF77_NUM_OF_RECORDS] ) && ( ! ( state ) ) ; i++ )	
    3554:	d8 01       	movw	r26, r16
    3556:	90 96       	adiw	r26, 0x20	; 32
    3558:	8c 91       	ld	r24, X
    355a:	81 11       	cpse	r24, r1
    355c:	49 c0       	rjmp	.+146    	; 0x35f0 <dcf77StartScan+0x118>
	*	0	-	Bei welchem Scan wurde ein Timeout ausgelst [BIT0]
	*	1	-	Bei welchen Scan wurde ein Timeout ausgelst [BIT1]
	*	2	-	Bei welchem Scan wurde ein Timeout ausgelst [BIT2]
	*	3	-	Hat der Benutzer den Scan abgebrochen?
	*/
	uint8_t state = 0;
    355e:	00 e0       	ldi	r16, 0x00	; 0
    3560:	b0 c0       	rjmp	.+352    	; 0x36c2 <dcf77StartScan+0x1ea>
	
	for ( uint8_t i = 0 ; ( i < ram.byte8[DCF77_NUM_OF_RECORDS] ) && ( ! ( state ) ) ; i++ )	
	{
		while ( ( dcfNewData == 0 ) && ( flag.alertEnable == 0 ) && ( state == 0 ) )
		{	
			if ( dcfTmeOutOld != rx8564.minute )
    3562:	f7 01       	movw	r30, r14
    3564:	11 81       	ldd	r17, Z+1	; 0x01
    3566:	91 13       	cpse	r25, r17
			{
				dcfTmeOutOld = rx8564.minute;
				dcfTmeOut++;
    3568:	0f 5f       	subi	r16, 0xFF	; 255
			}

			if ( ( checkDCF && syncDCF ) )
    356a:	80 91 0c 04 	lds	r24, 0x040C	; 0x80040c <checkDCF>
    356e:	88 23       	and	r24, r24
    3570:	41 f0       	breq	.+16     	; 0x3582 <dcf77StartScan+0xaa>
    3572:	80 91 09 04 	lds	r24, 0x0409	; 0x800409 <syncDCF>
    3576:	88 23       	and	r24, r24
    3578:	21 f0       	breq	.+8      	; 0x3582 <dcf77StartScan+0xaa>
			{
				checkDCF = false;
    357a:	50 92 0c 04 	sts	0x040C, r5	; 0x80040c <checkDCF>
				dcf_check();
    357e:	0e 94 09 0a 	call	0x1412	; 0x1412 <dcf_check>
			}
		
			if ( SWITCH_EXIT_PRESSED )
    3582:	9b 99       	sbic	0x13, 3	; 19
    3584:	1b c0       	rjmp	.+54     	; 0x35bc <dcf77StartScan+0xe4>
    3586:	ff ef       	ldi	r31, 0xFF	; 255
    3588:	21 ee       	ldi	r18, 0xE1	; 225
    358a:	34 e0       	ldi	r19, 0x04	; 4
    358c:	f1 50       	subi	r31, 0x01	; 1
    358e:	20 40       	sbci	r18, 0x00	; 0
    3590:	30 40       	sbci	r19, 0x00	; 0
    3592:	e1 f7       	brne	.-8      	; 0x358c <dcf77StartScan+0xb4>
    3594:	00 c0       	rjmp	.+0      	; 0x3596 <dcf77StartScan+0xbe>
    3596:	00 00       	nop
			{	
				_delay_ms(100);				
				dcfRec[i].day		= 50 + i;
    3598:	83 2d       	mov	r24, r3
    359a:	90 e0       	ldi	r25, 0x00	; 0
    359c:	f4 01       	movw	r30, r8
    359e:	a7 e0       	ldi	r26, 0x07	; 7
    35a0:	3a 9e       	mul	r3, r26
    35a2:	e0 0d       	add	r30, r0
    35a4:	f1 1d       	adc	r31, r1
    35a6:	11 24       	eor	r1, r1
    35a8:	60 82       	st	Z, r6
				dcfRec[i].month		= 50 + i;
    35aa:	61 82       	std	Z+1, r6	; 0x01
				dcfRec[i].hour		= 50 + i;
    35ac:	62 82       	std	Z+2, r6	; 0x02
				dcfRec[i].wDay		= 50 + i;
    35ae:	63 82       	std	Z+3, r6	; 0x03
				dcfRec[i].meszMes	= 50 + i;
    35b0:	64 82       	std	Z+4, r6	; 0x04
				dcfRec[i].year		= 60 + i;
    35b2:	cc 96       	adiw	r24, 0x3c	; 60
    35b4:	96 83       	std	Z+6, r25	; 0x06
    35b6:	85 83       	std	Z+5, r24	; 0x05
				state				|= 1<<0;				
    35b8:	04 2d       	mov	r16, r4
				break;
    35ba:	cd c1       	rjmp	.+922    	; 0x3956 <dcf77StartScan+0x47e>
			}
		
			if ( ( dcfTmeOut - 1 ) >= DCF77_TIMEOUT_TIME)
    35bc:	80 2f       	mov	r24, r16
    35be:	90 e0       	ldi	r25, 0x00	; 0
    35c0:	01 97       	sbiw	r24, 0x01	; 1
    35c2:	03 97       	sbiw	r24, 0x03	; 3
    35c4:	cc f1       	brlt	.+114    	; 0x3638 <dcf77StartScan+0x160>
			{	
				dcfRec[i].day		= 50 + i;
    35c6:	83 2d       	mov	r24, r3
    35c8:	90 e0       	ldi	r25, 0x00	; 0
    35ca:	f4 01       	movw	r30, r8
    35cc:	b7 e0       	ldi	r27, 0x07	; 7
    35ce:	3b 9e       	mul	r3, r27
    35d0:	e0 0d       	add	r30, r0
    35d2:	f1 1d       	adc	r31, r1
    35d4:	11 24       	eor	r1, r1
    35d6:	60 82       	st	Z, r6
				dcfRec[i].month		= 50 + i;
    35d8:	61 82       	std	Z+1, r6	; 0x01
				dcfRec[i].hour		= 50 + i;
    35da:	62 82       	std	Z+2, r6	; 0x02
				dcfRec[i].wDay		= 50 + i;
    35dc:	63 82       	std	Z+3, r6	; 0x03
				dcfRec[i].meszMes	= 50 + i;
    35de:	64 82       	std	Z+4, r6	; 0x04
				dcfRec[i].year		= 60 + i;
    35e0:	cc 96       	adiw	r24, 0x3c	; 60
    35e2:	96 83       	std	Z+6, r25	; 0x06
    35e4:	85 83       	std	Z+5, r24	; 0x05
				dcfTmeOut			= 0;
				state				|= 1<<1;
    35e6:	02 2d       	mov	r16, r2
				break;
    35e8:	b6 c1       	rjmp	.+876    	; 0x3956 <dcf77StartScan+0x47e>
    35ea:	73 94       	inc	r7
    35ec:	63 94       	inc	r6
    35ee:	1f c0       	rjmp	.+62     	; 0x362e <dcf77StartScan+0x156>
	/*	DCF77
	*	Aufnahme beginnt
	*/
	HEARTBEAT_LED_ON;
	
	for ( uint8_t i = 0 ; ( i < ram.byte8[DCF77_NUM_OF_RECORDS] ) && ( ! ( state ) ) ; i++ )	
    35f0:	0f 2e       	mov	r0, r31
    35f2:	f2 e3       	ldi	r31, 0x32	; 50
    35f4:	6f 2e       	mov	r6, r31
    35f6:	f0 2d       	mov	r31, r0
    35f8:	77 24       	eor	r7, r7
    35fa:	73 94       	inc	r7
    35fc:	90 e0       	ldi	r25, 0x00	; 0
	{
		while ( ( dcfNewData == 0 ) && ( flag.alertEnable == 0 ) && ( state == 0 ) )
		{	
			if ( dcfTmeOutOld != rx8564.minute )
    35fe:	0f 2e       	mov	r0, r31
    3600:	f1 e5       	ldi	r31, 0x51	; 81
    3602:	ef 2e       	mov	r14, r31
    3604:	f4 e0       	ldi	r31, 0x04	; 4
    3606:	ff 2e       	mov	r15, r31
    3608:	f0 2d       	mov	r31, r0
		}// end while

		/*
		*	Empfangene Informationen sichern
		*/
		if ( ( ( flag.alertEnable == 0 ) && ( state == 0 ) ) )
    360a:	51 2c       	mov	r5, r1
		{
			dcfRec[i].day		= time.Day;
    360c:	0f 2e       	mov	r0, r31
    360e:	fe e6       	ldi	r31, 0x6E	; 110
    3610:	cf 2e       	mov	r12, r31
    3612:	f0 e0       	ldi	r31, 0x00	; 0
    3614:	df 2e       	mov	r13, r31
    3616:	f0 2d       	mov	r31, r0
			dcfRec[i].wDay		= time.wDay;
			dcfRec[i].meszMes	= time.stime;
			dcfRec[i].year		= time.Year;			
		}
				
		syncDCF				= true;
    3618:	44 24       	eor	r4, r4
    361a:	43 94       	inc	r4
	/*	DCF77
	*	Aufnahme beginnt
	*/
	HEARTBEAT_LED_ON;
	
	for ( uint8_t i = 0 ; ( i < ram.byte8[DCF77_NUM_OF_RECORDS] ) && ( ! ( state ) ) ; i++ )	
    361c:	0f 2e       	mov	r0, r31
    361e:	f5 e7       	ldi	r31, 0x75	; 117
    3620:	af 2e       	mov	r10, r31
    3622:	f4 e0       	ldi	r31, 0x04	; 4
    3624:	bf 2e       	mov	r11, r31
    3626:	f0 2d       	mov	r31, r0
				dcfRec[i].hour		= 50 + i;
				dcfRec[i].wDay		= 50 + i;
				dcfRec[i].meszMes	= 50 + i;
				dcfRec[i].year		= 60 + i;
				dcfTmeOut			= 0;
				state				|= 1<<1;
    3628:	68 94       	set
    362a:	22 24       	eor	r2, r2
    362c:	21 f8       	bld	r2, 1
    362e:	33 24       	eor	r3, r3
    3630:	3a 94       	dec	r3
    3632:	37 0c       	add	r3, r7
	/*	DCF77
	*	Aufnahme beginnt
	*/
	HEARTBEAT_LED_ON;
	
	for ( uint8_t i = 0 ; ( i < ram.byte8[DCF77_NUM_OF_RECORDS] ) && ( ! ( state ) ) ; i++ )	
    3634:	00 e0       	ldi	r16, 0x00	; 0
    3636:	01 c0       	rjmp	.+2      	; 0x363a <dcf77StartScan+0x162>
	{
		while ( ( dcfNewData == 0 ) && ( flag.alertEnable == 0 ) && ( state == 0 ) )
		{	
			if ( dcfTmeOutOld != rx8564.minute )
    3638:	91 2f       	mov	r25, r17
	*/
	HEARTBEAT_LED_ON;
	
	for ( uint8_t i = 0 ; ( i < ram.byte8[DCF77_NUM_OF_RECORDS] ) && ( ! ( state ) ) ; i++ )	
	{
		while ( ( dcfNewData == 0 ) && ( flag.alertEnable == 0 ) && ( state == 0 ) )
    363a:	80 91 0b 04 	lds	r24, 0x040B	; 0x80040b <dcfNewData>
    363e:	81 11       	cpse	r24, r1
    3640:	90 c1       	rjmp	.+800    	; 0x3962 <dcf77StartScan+0x48a>
    3642:	80 91 5d 04 	lds	r24, 0x045D	; 0x80045d <flag>
    3646:	82 ff       	sbrs	r24, 2
    3648:	8c cf       	rjmp	.-232    	; 0x3562 <dcf77StartScan+0x8a>
    364a:	91 c1       	rjmp	.+802    	; 0x396e <dcf77StartScan+0x496>
		/*
		*	Empfangene Informationen sichern
		*/
		if ( ( ( flag.alertEnable == 0 ) && ( state == 0 ) ) )
		{
			dcfRec[i].day		= time.Day;
    364c:	f6 01       	movw	r30, r12
    364e:	80 81       	ld	r24, Z
    3650:	f4 01       	movw	r30, r8
    3652:	27 e0       	ldi	r18, 0x07	; 7
    3654:	32 9e       	mul	r3, r18
    3656:	e0 0d       	add	r30, r0
    3658:	f1 1d       	adc	r31, r1
    365a:	11 24       	eor	r1, r1
    365c:	80 83       	st	Z, r24
			dcfRec[i].month		= time.Month;
    365e:	d6 01       	movw	r26, r12
    3660:	11 96       	adiw	r26, 0x01	; 1
    3662:	8c 91       	ld	r24, X
    3664:	11 97       	sbiw	r26, 0x01	; 1
    3666:	81 83       	std	Z+1, r24	; 0x01
			dcfRec[i].hour		= time.Hour;
    3668:	14 96       	adiw	r26, 0x04	; 4
    366a:	8c 91       	ld	r24, X
    366c:	14 97       	sbiw	r26, 0x04	; 4
    366e:	82 83       	std	Z+2, r24	; 0x02
			dcfRec[i].wDay		= time.wDay;
    3670:	17 96       	adiw	r26, 0x07	; 7
    3672:	8c 91       	ld	r24, X
    3674:	17 97       	sbiw	r26, 0x07	; 7
    3676:	83 83       	std	Z+3, r24	; 0x03
			dcfRec[i].meszMes	= time.stime;
    3678:	18 96       	adiw	r26, 0x08	; 8
    367a:	8c 91       	ld	r24, X
    367c:	18 97       	sbiw	r26, 0x08	; 8
    367e:	84 83       	std	Z+4, r24	; 0x04
			dcfRec[i].year		= time.Year;			
    3680:	12 96       	adiw	r26, 0x02	; 2
    3682:	2d 91       	ld	r18, X+
    3684:	3c 91       	ld	r19, X
    3686:	13 97       	sbiw	r26, 0x03	; 3
    3688:	36 83       	std	Z+6, r19	; 0x06
    368a:	25 83       	std	Z+5, r18	; 0x05
		}
				
		syncDCF				= true;
    368c:	40 92 09 04 	sts	0x0409, r4	; 0x800409 <syncDCF>
		dcf77ScanIsActive	= true;	
    3690:	40 92 08 04 	sts	0x0408, r4	; 0x800408 <dcf77ScanIsActive>
		dcfNewData			= 0;
    3694:	50 92 0b 04 	sts	0x040B, r5	; 0x80040b <dcfNewData>
	/*	DCF77
	*	Aufnahme beginnt
	*/
	HEARTBEAT_LED_ON;
	
	for ( uint8_t i = 0 ; ( i < ram.byte8[DCF77_NUM_OF_RECORDS] ) && ( ! ( state ) ) ; i++ )	
    3698:	f5 01       	movw	r30, r10
    369a:	80 a1       	ldd	r24, Z+32	; 0x20
    369c:	78 16       	cp	r7, r24
    369e:	08 f4       	brcc	.+2      	; 0x36a2 <dcf77StartScan+0x1ca>
    36a0:	a4 cf       	rjmp	.-184    	; 0x35ea <dcf77StartScan+0x112>
    36a2:	00 e0       	ldi	r16, 0x00	; 0
    36a4:	0e c0       	rjmp	.+28     	; 0x36c2 <dcf77StartScan+0x1ea>
			dcfRec[i].wDay		= time.wDay;
			dcfRec[i].meszMes	= time.stime;
			dcfRec[i].year		= time.Year;			
		}
				
		syncDCF				= true;
    36a6:	40 92 09 04 	sts	0x0409, r4	; 0x800409 <syncDCF>
		dcf77ScanIsActive	= true;	
    36aa:	40 92 08 04 	sts	0x0408, r4	; 0x800408 <dcf77ScanIsActive>
		dcfNewData			= 0;
    36ae:	50 92 0b 04 	sts	0x040B, r5	; 0x80040b <dcfNewData>
	/*	DCF77
	*	Aufnahme beginnt
	*/
	HEARTBEAT_LED_ON;
	
	for ( uint8_t i = 0 ; ( i < ram.byte8[DCF77_NUM_OF_RECORDS] ) && ( ! ( state ) ) ; i++ )	
    36b2:	d5 01       	movw	r26, r10
    36b4:	90 96       	adiw	r26, 0x20	; 32
    36b6:	8c 91       	ld	r24, X
    36b8:	78 16       	cp	r7, r24
    36ba:	18 f4       	brcc	.+6      	; 0x36c2 <dcf77StartScan+0x1ea>
    36bc:	00 23       	and	r16, r16
    36be:	09 f4       	brne	.+2      	; 0x36c2 <dcf77StartScan+0x1ea>
    36c0:	94 cf       	rjmp	.-216    	; 0x35ea <dcf77StartScan+0x112>
		dcf77ScanIsActive	= true;	
		dcfNewData			= 0;
		dcfTmeOut			= 0;
	}// end for

	if ( flag.isDimm )
    36c2:	80 91 5d 04 	lds	r24, 0x045D	; 0x80045d <flag>
    36c6:	85 ff       	sbrs	r24, 5
    36c8:	04 c0       	rjmp	.+8      	; 0x36d2 <dcf77StartScan+0x1fa>
	{
		setPwm(0xA0);	
    36ca:	80 ea       	ldi	r24, 0xA0	; 160
    36cc:	0e 94 aa 16 	call	0x2d54	; 0x2d54 <setPwm>
    36d0:	04 c0       	rjmp	.+8      	; 0x36da <dcf77StartScan+0x202>
	}
	else
	{
		setPwm( ram.byte8[BRIGHT] );
    36d2:	80 91 7a 04 	lds	r24, 0x047A	; 0x80047a <ram+0x5>
    36d6:	0e 94 aa 16 	call	0x2d54	; 0x2d54 <setPwm>
	}

	uint8_t cmp[ ram.byte8[DCF77_NUM_OF_RECORDS] ], cmpCnt = 0;
    36da:	b0 90 95 04 	lds	r11, 0x0495	; 0x800495 <ram+0x20>
    36de:	ed b7       	in	r30, 0x3d	; 61
    36e0:	fe b7       	in	r31, 0x3e	; 62
    36e2:	eb 19       	sub	r30, r11
    36e4:	f1 09       	sbc	r31, r1
    36e6:	0f b6       	in	r0, 0x3f	; 63
    36e8:	f8 94       	cli
    36ea:	fe bf       	out	0x3e, r31	; 62
    36ec:	0f be       	out	0x3f, r0	; 63
    36ee:	ed bf       	out	0x3d, r30	; 61
    36f0:	6d b7       	in	r22, 0x3d	; 61
    36f2:	7e b7       	in	r23, 0x3e	; 62
    36f4:	6f 5f       	subi	r22, 0xFF	; 255
    36f6:	7f 4f       	sbci	r23, 0xFF	; 255
    36f8:	6b 01       	movw	r12, r22
	for ( uint8_t i = 0 ; i < ram.byte8[DCF77_NUM_OF_RECORDS] ; i++ )
    36fa:	bb 20       	and	r11, r11
    36fc:	09 f4       	brne	.+2      	; 0x3700 <dcf77StartScan+0x228>
    36fe:	28 c1       	rjmp	.+592    	; 0x3950 <dcf77StartScan+0x478>
    3700:	4e 81       	ldd	r20, Y+6	; 0x06
    3702:	5f 81       	ldd	r21, Y+7	; 0x07
    3704:	cb 01       	movw	r24, r22
    3706:	2f ef       	ldi	r18, 0xFF	; 255
    3708:	2b 0d       	add	r18, r11
    370a:	30 e0       	ldi	r19, 0x00	; 0
    370c:	2f 5f       	subi	r18, 0xFF	; 255
    370e:	3f 4f       	sbci	r19, 0xFF	; 255
    3710:	62 0f       	add	r22, r18
    3712:	73 1f       	adc	r23, r19
    3714:	a1 2c       	mov	r10, r1
	{
		cmp[i] = 0b00111111;
    3716:	0f 2e       	mov	r0, r31
    3718:	ff e3       	ldi	r31, 0x3F	; 63
    371a:	9f 2e       	mov	r9, r31
    371c:	f0 2d       	mov	r31, r0
		if ( time.Day == dcfRec[i].day )
    371e:	ee e6       	ldi	r30, 0x6E	; 110
    3720:	f0 e0       	ldi	r31, 0x00	; 0
		{
			cmp[i] &= ~(1<<0);	
    3722:	0f 2e       	mov	r0, r31
    3724:	fe e3       	ldi	r31, 0x3E	; 62
    3726:	8f 2e       	mov	r8, r31
    3728:	f0 2d       	mov	r31, r0
    372a:	9c 01       	movw	r18, r24
	}

	uint8_t cmp[ ram.byte8[DCF77_NUM_OF_RECORDS] ], cmpCnt = 0;
	for ( uint8_t i = 0 ; i < ram.byte8[DCF77_NUM_OF_RECORDS] ; i++ )
	{
		cmp[i] = 0b00111111;
    372c:	dc 01       	movw	r26, r24
    372e:	9c 92       	st	X, r9
		if ( time.Day == dcfRec[i].day )
    3730:	f0 80       	ld	r15, Z
    3732:	3a 01       	movw	r6, r20
    3734:	da 01       	movw	r26, r20
    3736:	1c 91       	ld	r17, X
    3738:	f1 12       	cpse	r15, r17
    373a:	02 c0       	rjmp	.+4      	; 0x3740 <dcf77StartScan+0x268>
		{
			cmp[i] &= ~(1<<0);	
    373c:	dc 01       	movw	r26, r24
    373e:	8c 92       	st	X, r8
		}
		if ( time.Month == dcfRec[i].month )
    3740:	f1 80       	ldd	r15, Z+1	; 0x01
    3742:	d3 01       	movw	r26, r6
    3744:	11 96       	adiw	r26, 0x01	; 1
    3746:	1c 91       	ld	r17, X
    3748:	f1 12       	cpse	r15, r17
    374a:	04 c0       	rjmp	.+8      	; 0x3754 <dcf77StartScan+0x27c>
		{
			cmp[i] &= ~(1<<1);
    374c:	d9 01       	movw	r26, r18
    374e:	1c 91       	ld	r17, X
    3750:	1d 7f       	andi	r17, 0xFD	; 253
    3752:	1c 93       	st	X, r17
		}		
		if ( time.Hour == dcfRec[i].hour )
    3754:	f4 80       	ldd	r15, Z+4	; 0x04
    3756:	d3 01       	movw	r26, r6
    3758:	12 96       	adiw	r26, 0x02	; 2
    375a:	1c 91       	ld	r17, X
    375c:	f1 12       	cpse	r15, r17
    375e:	04 c0       	rjmp	.+8      	; 0x3768 <dcf77StartScan+0x290>
		{
			cmp[i] &= ~(1<<2);
    3760:	d9 01       	movw	r26, r18
    3762:	1c 91       	ld	r17, X
    3764:	1b 7f       	andi	r17, 0xFB	; 251
    3766:	1c 93       	st	X, r17
		}		
		if ( time.wDay == dcfRec[i].wDay )
    3768:	f7 80       	ldd	r15, Z+7	; 0x07
    376a:	d3 01       	movw	r26, r6
    376c:	13 96       	adiw	r26, 0x03	; 3
    376e:	1c 91       	ld	r17, X
    3770:	f1 12       	cpse	r15, r17
    3772:	04 c0       	rjmp	.+8      	; 0x377c <dcf77StartScan+0x2a4>
		{
			cmp[i] &= ~(1<<3);
    3774:	d9 01       	movw	r26, r18
    3776:	1c 91       	ld	r17, X
    3778:	17 7f       	andi	r17, 0xF7	; 247
    377a:	1c 93       	st	X, r17
		}	
		if ( time.stime == dcfRec[i].meszMes )
    377c:	f0 84       	ldd	r15, Z+8	; 0x08
    377e:	d3 01       	movw	r26, r6
    3780:	14 96       	adiw	r26, 0x04	; 4
    3782:	1c 91       	ld	r17, X
    3784:	f1 12       	cpse	r15, r17
    3786:	04 c0       	rjmp	.+8      	; 0x3790 <dcf77StartScan+0x2b8>
		{
			cmp[i] &= ~(1<<4);
    3788:	d9 01       	movw	r26, r18
    378a:	1c 91       	ld	r17, X
    378c:	1f 7e       	andi	r17, 0xEF	; 239
    378e:	1c 93       	st	X, r17
		}	
		if ( time.Year == dcfRec[i].year )
    3790:	e2 80       	ldd	r14, Z+2	; 0x02
    3792:	f3 80       	ldd	r15, Z+3	; 0x03
    3794:	d3 01       	movw	r26, r6
    3796:	15 96       	adiw	r26, 0x05	; 5
    3798:	6d 90       	ld	r6, X+
    379a:	7c 90       	ld	r7, X
    379c:	16 97       	sbiw	r26, 0x06	; 6
    379e:	e6 14       	cp	r14, r6
    37a0:	f7 04       	cpc	r15, r7
    37a2:	21 f4       	brne	.+8      	; 0x37ac <dcf77StartScan+0x2d4>
		{
			cmp[i] &= ~(1<<5);
    37a4:	d9 01       	movw	r26, r18
    37a6:	1c 91       	ld	r17, X
    37a8:	1f 7d       	andi	r17, 0xDF	; 223
    37aa:	1c 93       	st	X, r17
    37ac:	01 96       	adiw	r24, 0x01	; 1
		}
		
		if ( ! ( cmp[i] ) )
    37ae:	d9 01       	movw	r26, r18
    37b0:	2c 91       	ld	r18, X
    37b2:	21 11       	cpse	r18, r1
    37b4:	01 c0       	rjmp	.+2      	; 0x37b8 <dcf77StartScan+0x2e0>
		{
			/*
			*	DCF77_RECORD bestimmt den spteren Wert von
			*	'cmpCnt'
			*/
			cmpCnt++;
    37b6:	a3 94       	inc	r10
    37b8:	49 5f       	subi	r20, 0xF9	; 249
    37ba:	5f 4f       	sbci	r21, 0xFF	; 255
	{
		setPwm( ram.byte8[BRIGHT] );
	}

	uint8_t cmp[ ram.byte8[DCF77_NUM_OF_RECORDS] ], cmpCnt = 0;
	for ( uint8_t i = 0 ; i < ram.byte8[DCF77_NUM_OF_RECORDS] ; i++ )
    37bc:	68 17       	cp	r22, r24
    37be:	79 07       	cpc	r23, r25
    37c0:	09 f0       	breq	.+2      	; 0x37c4 <dcf77StartScan+0x2ec>
    37c2:	b3 cf       	rjmp	.-154    	; 0x372a <dcf77StartScan+0x252>
			*/
			cmpCnt++;
		}
	}
	
	dcf77ScanIsActive = false;
    37c4:	10 92 08 04 	sts	0x0408, r1	; 0x800408 <dcf77ScanIsActive>
	
	if ( cmpCnt == ram.byte8[DCF77_NUM_OF_RECORDS] )
    37c8:	ab 10       	cpse	r10, r11
    37ca:	35 c0       	rjmp	.+106    	; 0x3836 <dcf77StartScan+0x35e>
	{			
		/* @ rtc Sunday is = 0. @ dcf77 is sunday = 7 */
		if (time.wDay == 7)
    37cc:	80 91 75 00 	lds	r24, 0x0075	; 0x800075 <time+0x7>
    37d0:	87 30       	cpi	r24, 0x07	; 7
    37d2:	11 f4       	brne	.+4      	; 0x37d8 <dcf77StartScan+0x300>
		{
			time.wDay = Sonntag;
    37d4:	10 92 75 00 	sts	0x0075, r1	; 0x800075 <time+0x7>
		}// end if
					
		/* write the received dcf77 time into the rtc */
		rtcSetTime(time.Hour, time.Min, time.Sec); // send time to RTC
    37d8:	0f 2e       	mov	r0, r31
    37da:	fe e6       	ldi	r31, 0x6E	; 110
    37dc:	ef 2e       	mov	r14, r31
    37de:	f0 e0       	ldi	r31, 0x00	; 0
    37e0:	ff 2e       	mov	r15, r31
    37e2:	f0 2d       	mov	r31, r0
    37e4:	f7 01       	movw	r30, r14
    37e6:	46 81       	ldd	r20, Z+6	; 0x06
    37e8:	65 81       	ldd	r22, Z+5	; 0x05
    37ea:	84 81       	ldd	r24, Z+4	; 0x04
    37ec:	0e 94 6e 0b 	call	0x16dc	; 0x16dc <rtcSetTime>
					
		/* write the received dcf77 time into the rtc */
		rtcSetDate(time.Day, time.wDay, time.Month, time.Year); // send date to RTC
    37f0:	d7 01       	movw	r26, r14
    37f2:	12 96       	adiw	r26, 0x02	; 2
    37f4:	2d 91       	ld	r18, X+
    37f6:	3c 91       	ld	r19, X
    37f8:	13 97       	sbiw	r26, 0x03	; 3
    37fa:	11 96       	adiw	r26, 0x01	; 1
    37fc:	4c 91       	ld	r20, X
    37fe:	11 97       	sbiw	r26, 0x01	; 1
    3800:	17 96       	adiw	r26, 0x07	; 7
    3802:	6c 91       	ld	r22, X
    3804:	17 97       	sbiw	r26, 0x07	; 7
    3806:	8c 91       	ld	r24, X
    3808:	0e 94 c1 0b 	call	0x1782	; 0x1782 <rtcSetDate>

		/* "eeprom_update_byte" for a long living instead of "eeprom_write_byte" */
		eeprom_update_byte(&eep.byte8[MES_MESZ],time.stime);
    380c:	f7 01       	movw	r30, r14
    380e:	60 85       	ldd	r22, Z+8	; 0x08
    3810:	84 e0       	ldi	r24, 0x04	; 4
    3812:	90 e0       	ldi	r25, 0x00	; 0
    3814:	0e 94 89 29 	call	0x5312	; 0x5312 <eeprom_update_byte>
		eeprom_busy_wait();
    3818:	e1 99       	sbic	0x1c, 1	; 28
    381a:	fe cf       	rjmp	.-4      	; 0x3818 <dcf77StartScan+0x340>
		eeprom_update_word( &erreep.byte16[SYNC_SUCCESS_CNT] , ++err.byte16[SYNC_SUCCESS_CNT] );
    381c:	e5 e7       	ldi	r30, 0x75	; 117
    381e:	f4 e0       	ldi	r31, 0x04	; 4
    3820:	60 81       	ld	r22, Z
    3822:	71 81       	ldd	r23, Z+1	; 0x01
    3824:	6f 5f       	subi	r22, 0xFF	; 255
    3826:	7f 4f       	sbci	r23, 0xFF	; 255
    3828:	71 83       	std	Z+1, r23	; 0x01
    382a:	60 83       	st	Z, r22
    382c:	82 e0       	ldi	r24, 0x02	; 2
    382e:	90 e0       	ldi	r25, 0x00	; 0
    3830:	0e 94 9a 29 	call	0x5334	; 0x5334 <eeprom_update_word>
    3834:	aa c0       	rjmp	.+340    	; 0x398a <dcf77StartScan+0x4b2>
	}
	else
	{	
		if ( ! ( flag.alertEnable ) )
    3836:	80 91 5d 04 	lds	r24, 0x045D	; 0x80045d <flag>
    383a:	82 fd       	sbrc	r24, 2
    383c:	a6 c0       	rjmp	.+332    	; 0x398a <dcf77StartScan+0x4b2>
		{
    383e:	4d b6       	in	r4, 0x3d	; 61
    3840:	5e b6       	in	r5, 0x3e	; 62
			char errStr[ 33 + ( 5 * ram.byte8[DCF77_NUM_OF_RECORDS] ) ];
    3842:	8b 2d       	mov	r24, r11
    3844:	90 e0       	ldi	r25, 0x00	; 0
    3846:	9c 01       	movw	r18, r24
    3848:	22 0f       	add	r18, r18
    384a:	33 1f       	adc	r19, r19
    384c:	22 0f       	add	r18, r18
    384e:	33 1f       	adc	r19, r19
    3850:	82 0f       	add	r24, r18
    3852:	93 1f       	adc	r25, r19
    3854:	81 96       	adiw	r24, 0x21	; 33
    3856:	2d b7       	in	r18, 0x3d	; 61
    3858:	3e b7       	in	r19, 0x3e	; 62
    385a:	28 1b       	sub	r18, r24
    385c:	39 0b       	sbc	r19, r25
    385e:	0f b6       	in	r0, 0x3f	; 63
    3860:	f8 94       	cli
    3862:	3e bf       	out	0x3e, r19	; 62
    3864:	0f be       	out	0x3f, r0	; 63
    3866:	2d bf       	out	0x3d, r18	; 61
    3868:	8d b7       	in	r24, 0x3d	; 61
    386a:	9e b7       	in	r25, 0x3e	; 62
    386c:	01 96       	adiw	r24, 0x01	; 1
    386e:	3c 01       	movw	r6, r24
    3870:	7c 01       	movw	r14, r24
			char buff[5]	= "";
    3872:	1a 82       	std	Y+2, r1	; 0x02
    3874:	19 82       	std	Y+1, r1	; 0x01
    3876:	fe 01       	movw	r30, r28
    3878:	33 96       	adiw	r30, 0x03	; 3
    387a:	83 e0       	ldi	r24, 0x03	; 3
    387c:	df 01       	movw	r26, r30
    387e:	1d 92       	st	X+, r1
    3880:	8a 95       	dec	r24
    3882:	e9 f7       	brne	.-6      	; 0x387e <dcf77StartScan+0x3a6>
			/*	Error String Format
			*	"String" - "Daten Stream Fehlerkodes[0..n]"
			*	Der Fehlerkode besteht aus den vergleichen empfangener
			*	Streams
			*/
			strcpy( errStr , "Sync. Error - State.: " );
    3884:	87 e1       	ldi	r24, 0x17	; 23
    3886:	e1 e6       	ldi	r30, 0x61	; 97
    3888:	f2 e0       	ldi	r31, 0x02	; 2
    388a:	d3 01       	movw	r26, r6
    388c:	01 90       	ld	r0, Z+
    388e:	0d 92       	st	X+, r0
    3890:	8a 95       	dec	r24
    3892:	e1 f7       	brne	.-8      	; 0x388c <dcf77StartScan+0x3b4>
			strcat( errStr , decHex8( state , buff ) );
    3894:	be 01       	movw	r22, r28
    3896:	6f 5f       	subi	r22, 0xFF	; 255
    3898:	7f 4f       	sbci	r23, 0xFF	; 255
    389a:	80 2f       	mov	r24, r16
    389c:	0e 94 c0 06 	call	0xd80	; 0xd80 <decHex8>
    38a0:	bc 01       	movw	r22, r24
    38a2:	c3 01       	movw	r24, r6
    38a4:	0e 94 88 26 	call	0x4d10	; 0x4d10 <strcat>
			strcat( errStr , " Cmp.: ");
    38a8:	d3 01       	movw	r26, r6
    38aa:	0d 90       	ld	r0, X+
    38ac:	00 20       	and	r0, r0
    38ae:	e9 f7       	brne	.-6      	; 0x38aa <dcf77StartScan+0x3d2>
    38b0:	11 97       	sbiw	r26, 0x01	; 1
    38b2:	88 e0       	ldi	r24, 0x08	; 8
    38b4:	e8 e7       	ldi	r30, 0x78	; 120
    38b6:	f2 e0       	ldi	r31, 0x02	; 2
    38b8:	01 90       	ld	r0, Z+
    38ba:	0d 92       	st	X+, r0
    38bc:	8a 95       	dec	r24
    38be:	e1 f7       	brne	.-8      	; 0x38b8 <dcf77StartScan+0x3e0>
			for ( uint8_t i = 0 ; i < ram.byte8[DCF77_NUM_OF_RECORDS] ; i++ )
    38c0:	80 91 95 04 	lds	r24, 0x0495	; 0x800495 <ram+0x20>
    38c4:	88 23       	and	r24, r24
    38c6:	21 f1       	breq	.+72     	; 0x3910 <dcf77StartScan+0x438>
    38c8:	10 e0       	ldi	r17, 0x00	; 0
			{
				strcat( errStr , " " );
    38ca:	68 94       	set
    38cc:	aa 24       	eor	r10, r10
    38ce:	a5 f8       	bld	r10, 5
    38d0:	b1 2c       	mov	r11, r1
			*	Streams
			*/
			strcpy( errStr , "Sync. Error - State.: " );
			strcat( errStr , decHex8( state , buff ) );
			strcat( errStr , " Cmp.: ");
			for ( uint8_t i = 0 ; i < ram.byte8[DCF77_NUM_OF_RECORDS] ; i++ )
    38d2:	0f 2e       	mov	r0, r31
    38d4:	f5 e7       	ldi	r31, 0x75	; 117
    38d6:	8f 2e       	mov	r8, r31
    38d8:	f4 e0       	ldi	r31, 0x04	; 4
    38da:	9f 2e       	mov	r9, r31
    38dc:	f0 2d       	mov	r31, r0
			{
				strcat( errStr , " " );
    38de:	f7 01       	movw	r30, r14
    38e0:	01 90       	ld	r0, Z+
    38e2:	00 20       	and	r0, r0
    38e4:	e9 f7       	brne	.-6      	; 0x38e0 <dcf77StartScan+0x408>
    38e6:	31 97       	sbiw	r30, 0x01	; 1
    38e8:	b1 82       	std	Z+1, r11	; 0x01
    38ea:	a0 82       	st	Z, r10
				strcat( errStr , decHex8( cmp[i] , buff ) );
    38ec:	f6 01       	movw	r30, r12
    38ee:	e1 0f       	add	r30, r17
    38f0:	f1 1d       	adc	r31, r1
    38f2:	be 01       	movw	r22, r28
    38f4:	6f 5f       	subi	r22, 0xFF	; 255
    38f6:	7f 4f       	sbci	r23, 0xFF	; 255
    38f8:	80 81       	ld	r24, Z
    38fa:	0e 94 c0 06 	call	0xd80	; 0xd80 <decHex8>
    38fe:	bc 01       	movw	r22, r24
    3900:	c7 01       	movw	r24, r14
    3902:	0e 94 88 26 	call	0x4d10	; 0x4d10 <strcat>
			*	Streams
			*/
			strcpy( errStr , "Sync. Error - State.: " );
			strcat( errStr , decHex8( state , buff ) );
			strcat( errStr , " Cmp.: ");
			for ( uint8_t i = 0 ; i < ram.byte8[DCF77_NUM_OF_RECORDS] ; i++ )
    3906:	1f 5f       	subi	r17, 0xFF	; 255
    3908:	f4 01       	movw	r30, r8
    390a:	80 a1       	ldd	r24, Z+32	; 0x20
    390c:	18 17       	cp	r17, r24
    390e:	38 f3       	brcs	.-50     	; 0x38de <dcf77StartScan+0x406>
			{
				strcat( errStr , " " );
				strcat( errStr , decHex8( cmp[i] , buff ) );
			}
			scroll_display( errStr , INFO_SCROLL_SPEED);
    3910:	64 e1       	ldi	r22, 0x14	; 20
    3912:	c3 01       	movw	r24, r6
    3914:	0e 94 a3 10 	call	0x2146	; 0x2146 <scroll_display>
			eeprom_update_word( &erreep.byte16[SYNC_ERROR_CNT] , ++err.byte16[SYNC_ERROR_CNT] );			
    3918:	60 91 73 04 	lds	r22, 0x0473	; 0x800473 <err>
    391c:	70 91 74 04 	lds	r23, 0x0474	; 0x800474 <err+0x1>
    3920:	6f 5f       	subi	r22, 0xFF	; 255
    3922:	7f 4f       	sbci	r23, 0xFF	; 255
    3924:	70 93 74 04 	sts	0x0474, r23	; 0x800474 <err+0x1>
    3928:	60 93 73 04 	sts	0x0473, r22	; 0x800473 <err>
    392c:	80 e0       	ldi	r24, 0x00	; 0
    392e:	90 e0       	ldi	r25, 0x00	; 0
    3930:	0e 94 9a 29 	call	0x5334	; 0x5334 <eeprom_update_word>
    3934:	0f b6       	in	r0, 0x3f	; 63
    3936:	f8 94       	cli
    3938:	5e be       	out	0x3e, r5	; 62
    393a:	0f be       	out	0x3f, r0	; 63
    393c:	4d be       	out	0x3d, r4	; 61
    393e:	25 c0       	rjmp	.+74     	; 0x398a <dcf77StartScan+0x4b2>
			dcfRec[i].wDay		= time.wDay;
			dcfRec[i].meszMes	= time.stime;
			dcfRec[i].year		= time.Year;			
		}
				
		syncDCF				= true;
    3940:	81 e0       	ldi	r24, 0x01	; 1
    3942:	80 93 09 04 	sts	0x0409, r24	; 0x800409 <syncDCF>
		dcf77ScanIsActive	= true;	
    3946:	80 93 08 04 	sts	0x0408, r24	; 0x800408 <dcf77ScanIsActive>
		dcfNewData			= 0;
    394a:	10 92 0b 04 	sts	0x040B, r1	; 0x80040b <dcfNewData>
    394e:	b9 ce       	rjmp	.-654    	; 0x36c2 <dcf77StartScan+0x1ea>
			*/
			cmpCnt++;
		}
	}
	
	dcf77ScanIsActive = false;
    3950:	10 92 08 04 	sts	0x0408, r1	; 0x800408 <dcf77ScanIsActive>
    3954:	3b cf       	rjmp	.-394    	; 0x37cc <dcf77StartScan+0x2f4>
		}// end while

		/*
		*	Empfangene Informationen sichern
		*/
		if ( ( ( flag.alertEnable == 0 ) && ( state == 0 ) ) )
    3956:	80 91 5d 04 	lds	r24, 0x045D	; 0x80045d <flag>
    395a:	82 ff       	sbrs	r24, 2
    395c:	f1 cf       	rjmp	.-30     	; 0x3940 <dcf77StartScan+0x468>
    395e:	91 2f       	mov	r25, r17
    3960:	a2 ce       	rjmp	.-700    	; 0x36a6 <dcf77StartScan+0x1ce>
    3962:	80 91 5d 04 	lds	r24, 0x045D	; 0x80045d <flag>
    3966:	82 ff       	sbrs	r24, 2
    3968:	71 ce       	rjmp	.-798    	; 0x364c <dcf77StartScan+0x174>
    396a:	05 2d       	mov	r16, r5
    396c:	9c ce       	rjmp	.-712    	; 0x36a6 <dcf77StartScan+0x1ce>
			dcfRec[i].wDay		= time.wDay;
			dcfRec[i].meszMes	= time.stime;
			dcfRec[i].year		= time.Year;			
		}
				
		syncDCF				= true;
    396e:	40 92 09 04 	sts	0x0409, r4	; 0x800409 <syncDCF>
		dcf77ScanIsActive	= true;	
    3972:	40 92 08 04 	sts	0x0408, r4	; 0x800408 <dcf77ScanIsActive>
		dcfNewData			= 0;
    3976:	50 92 0b 04 	sts	0x040B, r5	; 0x80040b <dcfNewData>
	/*	DCF77
	*	Aufnahme beginnt
	*/
	HEARTBEAT_LED_ON;
	
	for ( uint8_t i = 0 ; ( i < ram.byte8[DCF77_NUM_OF_RECORDS] ) && ( ! ( state ) ) ; i++ )	
    397a:	d5 01       	movw	r26, r10
    397c:	90 96       	adiw	r26, 0x20	; 32
    397e:	8c 91       	ld	r24, X
    3980:	78 16       	cp	r7, r24
    3982:	08 f4       	brcc	.+2      	; 0x3986 <dcf77StartScan+0x4ae>
    3984:	32 ce       	rjmp	.-924    	; 0x35ea <dcf77StartScan+0x112>
    3986:	00 e0       	ldi	r16, 0x00	; 0
    3988:	9c ce       	rjmp	.-712    	; 0x36c2 <dcf77StartScan+0x1ea>
	
	/*
	*	Sollte whrend der Funktion eine Taste bettigt wurden sein,
	*	mssen wir diese vor verlassen noch besttigen
	*/
 	button.all = 0;
    398a:	10 92 6f 04 	sts	0x046F, r1	; 0x80046f <button>
	
	sys.syncHourCntDCF77	= 0;
    398e:	ee e5       	ldi	r30, 0x5E	; 94
    3990:	f4 e0       	ldi	r31, 0x04	; 4
    3992:	11 82       	std	Z+1, r1	; 0x01
	sys.syncMinuteCntDCF77	= 0;
    3994:	10 82       	st	Z, r1
	
	flag.isDimm = false;
    3996:	80 91 5d 04 	lds	r24, 0x045D	; 0x80045d <flag>
    399a:	8f 7d       	andi	r24, 0xDF	; 223
    399c:	80 93 5d 04 	sts	0x045D, r24	; 0x80045d <flag>
	
	/*	DCF77
	*	Aufnahme ist beendet
	*/
 	HEARTBEAT_LED_OFF;
    39a0:	94 9a       	sbi	0x12, 4	; 18
	 	
	return state;
}
    39a2:	80 2f       	mov	r24, r16
    39a4:	e8 85       	ldd	r30, Y+8	; 0x08
    39a6:	f9 85       	ldd	r31, Y+9	; 0x09
    39a8:	0f b6       	in	r0, 0x3f	; 63
    39aa:	f8 94       	cli
    39ac:	fe bf       	out	0x3e, r31	; 62
    39ae:	0f be       	out	0x3f, r0	; 63
    39b0:	ed bf       	out	0x3d, r30	; 61
    39b2:	29 96       	adiw	r28, 0x09	; 9
    39b4:	0f b6       	in	r0, 0x3f	; 63
    39b6:	f8 94       	cli
    39b8:	de bf       	out	0x3e, r29	; 62
    39ba:	0f be       	out	0x3f, r0	; 63
    39bc:	cd bf       	out	0x3d, r28	; 61
    39be:	df 91       	pop	r29
    39c0:	cf 91       	pop	r28
    39c2:	1f 91       	pop	r17
    39c4:	0f 91       	pop	r16
    39c6:	ff 90       	pop	r15
    39c8:	ef 90       	pop	r14
    39ca:	df 90       	pop	r13
    39cc:	cf 90       	pop	r12
    39ce:	bf 90       	pop	r11
    39d0:	af 90       	pop	r10
    39d2:	9f 90       	pop	r9
    39d4:	8f 90       	pop	r8
    39d6:	7f 90       	pop	r7
    39d8:	6f 90       	pop	r6
    39da:	5f 90       	pop	r5
    39dc:	4f 90       	pop	r4
    39de:	3f 90       	pop	r3
    39e0:	2f 90       	pop	r2
    39e2:	08 95       	ret

000039e4 <defaultEEP>:
void defaultEEP					( void )
{
	/*	EEPROM
	*	Prfen ob der EEPROM schon initalisiert wurden ist..
	*/
	eeprom_busy_wait();
    39e4:	e1 99       	sbic	0x1c, 1	; 28
    39e6:	fe cf       	rjmp	.-4      	; 0x39e4 <defaultEEP>
	
	if ( eeprom_read_byte( &eep.byte8[IS_INIT_BYTE_HIGH] ) == 0x21 && eeprom_read_byte( &eep.byte8[IS_INIT_BYTE_LOW] ) == 0x08 )
    39e8:	82 e0       	ldi	r24, 0x02	; 2
    39ea:	90 e0       	ldi	r25, 0x00	; 0
    39ec:	0e 94 7b 29 	call	0x52f6	; 0x52f6 <eeprom_read_byte>
    39f0:	81 32       	cpi	r24, 0x21	; 33
    39f2:	61 f4       	brne	.+24     	; 0x3a0c <defaultEEP+0x28>
    39f4:	83 e0       	ldi	r24, 0x03	; 3
    39f6:	90 e0       	ldi	r25, 0x00	; 0
    39f8:	0e 94 7b 29 	call	0x52f6	; 0x52f6 <eeprom_read_byte>
    39fc:	88 30       	cpi	r24, 0x08	; 8
    39fe:	31 f4       	brne	.+12     	; 0x3a0c <defaultEEP+0x28>
	{
		flag.isInit = 1;
    3a00:	80 91 5d 04 	lds	r24, 0x045D	; 0x80045d <flag>
    3a04:	80 64       	ori	r24, 0x40	; 64
    3a06:	80 93 5d 04 	sts	0x045D, r24	; 0x80045d <flag>
		return;
    3a0a:	08 95       	ret
	}
	
	flag.isInit = 0;
    3a0c:	80 91 5d 04 	lds	r24, 0x045D	; 0x80045d <flag>
    3a10:	8f 7b       	andi	r24, 0xBF	; 191
    3a12:	80 93 5d 04 	sts	0x045D, r24	; 0x80045d <flag>
	eeprom_busy_wait();
    3a16:	e1 99       	sbic	0x1c, 1	; 28
    3a18:	fe cf       	rjmp	.-4      	; 0x3a16 <defaultEEP+0x32>
	eeprom_write_byte(&eep.byte8[BRIGHT]				,	0xAF	);
    3a1a:	6f ea       	ldi	r22, 0xAF	; 175
    3a1c:	87 e0       	ldi	r24, 0x07	; 7
    3a1e:	90 e0       	ldi	r25, 0x00	; 0
    3a20:	0e 94 a0 29 	call	0x5340	; 0x5340 <eeprom_write_byte>
	eeprom_busy_wait();
    3a24:	e1 99       	sbic	0x1c, 1	; 28
    3a26:	fe cf       	rjmp	.-4      	; 0x3a24 <defaultEEP+0x40>
	eeprom_write_byte(&eep.byte8[SOUND_ENABLE]			,	0x01	);
    3a28:	61 e0       	ldi	r22, 0x01	; 1
    3a2a:	88 e0       	ldi	r24, 0x08	; 8
    3a2c:	90 e0       	ldi	r25, 0x00	; 0
    3a2e:	0e 94 a0 29 	call	0x5340	; 0x5340 <eeprom_write_byte>
	eeprom_busy_wait();
    3a32:	e1 99       	sbic	0x1c, 1	; 28
    3a34:	fe cf       	rjmp	.-4      	; 0x3a32 <defaultEEP+0x4e>
	eeprom_write_byte(&eep.byte8[MOTOR_ENABLE]			,	0x01	);
    3a36:	61 e0       	ldi	r22, 0x01	; 1
    3a38:	89 e0       	ldi	r24, 0x09	; 9
    3a3a:	90 e0       	ldi	r25, 0x00	; 0
    3a3c:	0e 94 a0 29 	call	0x5340	; 0x5340 <eeprom_write_byte>
	eeprom_busy_wait();
    3a40:	e1 99       	sbic	0x1c, 1	; 28
    3a42:	fe cf       	rjmp	.-4      	; 0x3a40 <defaultEEP+0x5c>
	eeprom_write_byte(&eep.byte8[ALERT]					,	0x00	);
    3a44:	60 e0       	ldi	r22, 0x00	; 0
    3a46:	85 e0       	ldi	r24, 0x05	; 5
    3a48:	90 e0       	ldi	r25, 0x00	; 0
    3a4a:	0e 94 a0 29 	call	0x5340	; 0x5340 <eeprom_write_byte>
	eeprom_busy_wait();	
    3a4e:	e1 99       	sbic	0x1c, 1	; 28
    3a50:	fe cf       	rjmp	.-4      	; 0x3a4e <defaultEEP+0x6a>
	eeprom_write_byte(&eep.byte8[DIMM_HOUR_ON]			,	20	);
    3a52:	64 e1       	ldi	r22, 0x14	; 20
    3a54:	8e e0       	ldi	r24, 0x0E	; 14
    3a56:	90 e0       	ldi	r25, 0x00	; 0
    3a58:	0e 94 a0 29 	call	0x5340	; 0x5340 <eeprom_write_byte>
	eeprom_busy_wait();	
    3a5c:	e1 99       	sbic	0x1c, 1	; 28
    3a5e:	fe cf       	rjmp	.-4      	; 0x3a5c <defaultEEP+0x78>
	eeprom_write_byte(&eep.byte8[DIMM_MINUTE_ON]		,	0	);
    3a60:	60 e0       	ldi	r22, 0x00	; 0
    3a62:	80 e1       	ldi	r24, 0x10	; 16
    3a64:	90 e0       	ldi	r25, 0x00	; 0
    3a66:	0e 94 a0 29 	call	0x5340	; 0x5340 <eeprom_write_byte>
	eeprom_busy_wait();
    3a6a:	e1 99       	sbic	0x1c, 1	; 28
    3a6c:	fe cf       	rjmp	.-4      	; 0x3a6a <defaultEEP+0x86>
	eeprom_write_byte(&eep.byte8[DIMM_HOUR_OFF]			,	12	);
    3a6e:	6c e0       	ldi	r22, 0x0C	; 12
    3a70:	8f e0       	ldi	r24, 0x0F	; 15
    3a72:	90 e0       	ldi	r25, 0x00	; 0
    3a74:	0e 94 a0 29 	call	0x5340	; 0x5340 <eeprom_write_byte>
	eeprom_busy_wait();
    3a78:	e1 99       	sbic	0x1c, 1	; 28
    3a7a:	fe cf       	rjmp	.-4      	; 0x3a78 <defaultEEP+0x94>
	eeprom_write_byte(&eep.byte8[DIMM_MINUTE_OFF]		,	0	);
    3a7c:	60 e0       	ldi	r22, 0x00	; 0
    3a7e:	81 e1       	ldi	r24, 0x11	; 17
    3a80:	90 e0       	ldi	r25, 0x00	; 0
    3a82:	0e 94 a0 29 	call	0x5340	; 0x5340 <eeprom_write_byte>
	eeprom_busy_wait();
    3a86:	e1 99       	sbic	0x1c, 1	; 28
    3a88:	fe cf       	rjmp	.-4      	; 0x3a86 <defaultEEP+0xa2>
	eeprom_write_byte(&eep.byte8[SYNC_HOUR]				,	3	);
    3a8a:	63 e0       	ldi	r22, 0x03	; 3
    3a8c:	8a e0       	ldi	r24, 0x0A	; 10
    3a8e:	90 e0       	ldi	r25, 0x00	; 0
    3a90:	0e 94 a0 29 	call	0x5340	; 0x5340 <eeprom_write_byte>
	eeprom_busy_wait();
    3a94:	e1 99       	sbic	0x1c, 1	; 28
    3a96:	fe cf       	rjmp	.-4      	; 0x3a94 <defaultEEP+0xb0>
	eeprom_write_byte(&eep.byte8[SYNC_MINUTE]			,	0	);
    3a98:	60 e0       	ldi	r22, 0x00	; 0
    3a9a:	8b e0       	ldi	r24, 0x0B	; 11
    3a9c:	90 e0       	ldi	r25, 0x00	; 0
    3a9e:	0e 94 a0 29 	call	0x5340	; 0x5340 <eeprom_write_byte>
	eeprom_busy_wait();
    3aa2:	e1 99       	sbic	0x1c, 1	; 28
    3aa4:	fe cf       	rjmp	.-4      	; 0x3aa2 <defaultEEP+0xbe>
	eeprom_write_byte(&eep.byte8[MES_MESZ]				,	0	);
    3aa6:	60 e0       	ldi	r22, 0x00	; 0
    3aa8:	84 e0       	ldi	r24, 0x04	; 4
    3aaa:	90 e0       	ldi	r25, 0x00	; 0
    3aac:	0e 94 a0 29 	call	0x5340	; 0x5340 <eeprom_write_byte>
	eeprom_busy_wait();
    3ab0:	e1 99       	sbic	0x1c, 1	; 28
    3ab2:	fe cf       	rjmp	.-4      	; 0x3ab0 <defaultEEP+0xcc>
	eeprom_write_byte(&eep.byte8[AUTO_CHANGE_MINUTE]	,	5	);
    3ab4:	65 e0       	ldi	r22, 0x05	; 5
    3ab6:	8c e0       	ldi	r24, 0x0C	; 12
    3ab8:	90 e0       	ldi	r25, 0x00	; 0
    3aba:	0e 94 a0 29 	call	0x5340	; 0x5340 <eeprom_write_byte>
	eeprom_busy_wait();
    3abe:	e1 99       	sbic	0x1c, 1	; 28
    3ac0:	fe cf       	rjmp	.-4      	; 0x3abe <defaultEEP+0xda>
	eeprom_write_byte(&eep.byte8[AUTO_CHANGE_SECOUND]	,	0	);
    3ac2:	60 e0       	ldi	r22, 0x00	; 0
    3ac4:	8d e0       	ldi	r24, 0x0D	; 13
    3ac6:	90 e0       	ldi	r25, 0x00	; 0
    3ac8:	0e 94 a0 29 	call	0x5340	; 0x5340 <eeprom_write_byte>
	eeprom_busy_wait();
    3acc:	e1 99       	sbic	0x1c, 1	; 28
    3ace:	fe cf       	rjmp	.-4      	; 0x3acc <defaultEEP+0xe8>
	eeprom_write_byte(&eep.byte8[ALERT_CYCLES]			,	3	);
    3ad0:	63 e0       	ldi	r22, 0x03	; 3
    3ad2:	86 e0       	ldi	r24, 0x06	; 6
    3ad4:	90 e0       	ldi	r25, 0x00	; 0
    3ad6:	0e 94 a0 29 	call	0x5340	; 0x5340 <eeprom_write_byte>
	eeprom_busy_wait();
    3ada:	e1 99       	sbic	0x1c, 1	; 28
    3adc:	fe cf       	rjmp	.-4      	; 0x3ada <defaultEEP+0xf6>
	eeprom_update_word(&erreep.byte16[SYNC_ERROR_CNT]	,	0	);
    3ade:	60 e0       	ldi	r22, 0x00	; 0
    3ae0:	70 e0       	ldi	r23, 0x00	; 0
    3ae2:	80 e0       	ldi	r24, 0x00	; 0
    3ae4:	90 e0       	ldi	r25, 0x00	; 0
    3ae6:	0e 94 9a 29 	call	0x5334	; 0x5334 <eeprom_update_word>
	eeprom_busy_wait();
    3aea:	e1 99       	sbic	0x1c, 1	; 28
    3aec:	fe cf       	rjmp	.-4      	; 0x3aea <defaultEEP+0x106>
	eeprom_write_byte(&eep.byte8[DCF77_NUM_OF_RECORDS]	,	2	);
    3aee:	62 e0       	ldi	r22, 0x02	; 2
    3af0:	82 e2       	ldi	r24, 0x22	; 34
    3af2:	90 e0       	ldi	r25, 0x00	; 0
    3af4:	0e 94 a0 29 	call	0x5340	; 0x5340 <eeprom_write_byte>
	eeprom_busy_wait();
    3af8:	e1 99       	sbic	0x1c, 1	; 28
    3afa:	fe cf       	rjmp	.-4      	; 0x3af8 <defaultEEP+0x114>
	eeprom_write_byte( &eep.byte8[ ALERT_HOUR_1 ]		, 9 );
    3afc:	69 e0       	ldi	r22, 0x09	; 9
    3afe:	82 e1       	ldi	r24, 0x12	; 18
    3b00:	90 e0       	ldi	r25, 0x00	; 0
    3b02:	0e 94 a0 29 	call	0x5340	; 0x5340 <eeprom_write_byte>
	eeprom_busy_wait();
    3b06:	e1 99       	sbic	0x1c, 1	; 28
    3b08:	fe cf       	rjmp	.-4      	; 0x3b06 <defaultEEP+0x122>
	eeprom_write_byte( &eep.byte8[ ALERT_MINUTE_1 ]		, 15 );
    3b0a:	6f e0       	ldi	r22, 0x0F	; 15
    3b0c:	8a e1       	ldi	r24, 0x1A	; 26
    3b0e:	90 e0       	ldi	r25, 0x00	; 0
    3b10:	0e 94 a0 29 	call	0x5340	; 0x5340 <eeprom_write_byte>
	eeprom_busy_wait();
    3b14:	e1 99       	sbic	0x1c, 1	; 28
    3b16:	fe cf       	rjmp	.-4      	; 0x3b14 <defaultEEP+0x130>
	eeprom_write_byte( &eep.byte8[ ALERT_HOUR_2 ]		, 9 );
    3b18:	69 e0       	ldi	r22, 0x09	; 9
    3b1a:	83 e1       	ldi	r24, 0x13	; 19
    3b1c:	90 e0       	ldi	r25, 0x00	; 0
    3b1e:	0e 94 a0 29 	call	0x5340	; 0x5340 <eeprom_write_byte>
	eeprom_busy_wait();
    3b22:	e1 99       	sbic	0x1c, 1	; 28
    3b24:	fe cf       	rjmp	.-4      	; 0x3b22 <defaultEEP+0x13e>
	eeprom_write_byte( &eep.byte8[ ALERT_MINUTE_2 ]		, 35 );	
    3b26:	63 e2       	ldi	r22, 0x23	; 35
    3b28:	8b e1       	ldi	r24, 0x1B	; 27
    3b2a:	90 e0       	ldi	r25, 0x00	; 0
    3b2c:	0e 94 a0 29 	call	0x5340	; 0x5340 <eeprom_write_byte>
	eeprom_busy_wait();
    3b30:	e1 99       	sbic	0x1c, 1	; 28
    3b32:	fe cf       	rjmp	.-4      	; 0x3b30 <defaultEEP+0x14c>
	eeprom_write_byte( &eep.byte8[ ALERT_HOUR_3 ]		, 12 );
    3b34:	6c e0       	ldi	r22, 0x0C	; 12
    3b36:	84 e1       	ldi	r24, 0x14	; 20
    3b38:	90 e0       	ldi	r25, 0x00	; 0
    3b3a:	0e 94 a0 29 	call	0x5340	; 0x5340 <eeprom_write_byte>
	eeprom_busy_wait();
    3b3e:	e1 99       	sbic	0x1c, 1	; 28
    3b40:	fe cf       	rjmp	.-4      	; 0x3b3e <defaultEEP+0x15a>
	eeprom_write_byte( &eep.byte8[ ALERT_MINUTE_3 ]		, 35 );
    3b42:	63 e2       	ldi	r22, 0x23	; 35
    3b44:	8c e1       	ldi	r24, 0x1C	; 28
    3b46:	90 e0       	ldi	r25, 0x00	; 0
    3b48:	0e 94 a0 29 	call	0x5340	; 0x5340 <eeprom_write_byte>
	eeprom_busy_wait();
    3b4c:	e1 99       	sbic	0x1c, 1	; 28
    3b4e:	fe cf       	rjmp	.-4      	; 0x3b4c <defaultEEP+0x168>
	eeprom_write_byte( &eep.byte8[ ALERT_HOUR_4 ]		, 13 );
    3b50:	6d e0       	ldi	r22, 0x0D	; 13
    3b52:	85 e1       	ldi	r24, 0x15	; 21
    3b54:	90 e0       	ldi	r25, 0x00	; 0
    3b56:	0e 94 a0 29 	call	0x5340	; 0x5340 <eeprom_write_byte>
	eeprom_busy_wait();
    3b5a:	e1 99       	sbic	0x1c, 1	; 28
    3b5c:	fe cf       	rjmp	.-4      	; 0x3b5a <defaultEEP+0x176>
	eeprom_write_byte( &eep.byte8[ ALERT_MINUTE_4 ]		, 0 );
    3b5e:	60 e0       	ldi	r22, 0x00	; 0
    3b60:	8d e1       	ldi	r24, 0x1D	; 29
    3b62:	90 e0       	ldi	r25, 0x00	; 0
    3b64:	0e 94 a0 29 	call	0x5340	; 0x5340 <eeprom_write_byte>
	eeprom_busy_wait();	
    3b68:	e1 99       	sbic	0x1c, 1	; 28
    3b6a:	fe cf       	rjmp	.-4      	; 0x3b68 <defaultEEP+0x184>
	eeprom_write_byte(&eep.byte8[IS_INIT_BYTE_HIGH]		, 0x21 );
    3b6c:	61 e2       	ldi	r22, 0x21	; 33
    3b6e:	82 e0       	ldi	r24, 0x02	; 2
    3b70:	90 e0       	ldi	r25, 0x00	; 0
    3b72:	0e 94 a0 29 	call	0x5340	; 0x5340 <eeprom_write_byte>
	eeprom_busy_wait();
    3b76:	e1 99       	sbic	0x1c, 1	; 28
    3b78:	fe cf       	rjmp	.-4      	; 0x3b76 <defaultEEP+0x192>
	eeprom_write_byte(&eep.byte8[IS_INIT_BYTE_LOW]		, 0x08 );
    3b7a:	68 e0       	ldi	r22, 0x08	; 8
    3b7c:	83 e0       	ldi	r24, 0x03	; 3
    3b7e:	90 e0       	ldi	r25, 0x00	; 0
    3b80:	0e 94 a0 29 	call	0x5340	; 0x5340 <eeprom_write_byte>
	eeprom_busy_wait();
    3b84:	e1 99       	sbic	0x1c, 1	; 28
    3b86:	fe cf       	rjmp	.-4      	; 0x3b84 <defaultEEP+0x1a0>
    3b88:	08 95       	ret

00003b8a <loadeep>:
}

void loadeep					( void )
{
    3b8a:	ef 92       	push	r14
    3b8c:	ff 92       	push	r15
    3b8e:	0f 93       	push	r16
    3b90:	1f 93       	push	r17
    3b92:	cf 93       	push	r28
    3b94:	df 93       	push	r29
    3b96:	2f ef       	ldi	r18, 0xFF	; 255
    3b98:	89 e6       	ldi	r24, 0x69	; 105
    3b9a:	98 e1       	ldi	r25, 0x18	; 24
    3b9c:	21 50       	subi	r18, 0x01	; 1
    3b9e:	80 40       	sbci	r24, 0x00	; 0
    3ba0:	90 40       	sbci	r25, 0x00	; 0
    3ba2:	e1 f7       	brne	.-8      	; 0x3b9c <loadeep+0x12>
    3ba4:	00 c0       	rjmp	.+0      	; 0x3ba6 <loadeep+0x1c>
    3ba6:	00 00       	nop
	_delay_ms(500);
	
	defaultEEP();
    3ba8:	0e 94 f2 1c 	call	0x39e4	; 0x39e4 <defaultEEP>
	
	ram.byte8[BRIGHT] = eeprom_read_byte( &eep.byte8[BRIGHT] );
    3bac:	87 e0       	ldi	r24, 0x07	; 7
    3bae:	90 e0       	ldi	r25, 0x00	; 0
    3bb0:	0e 94 7b 29 	call	0x52f6	; 0x52f6 <eeprom_read_byte>
    3bb4:	80 93 7a 04 	sts	0x047A, r24	; 0x80047a <ram+0x5>
	eeprom_busy_wait();
    3bb8:	e1 99       	sbic	0x1c, 1	; 28
    3bba:	fe cf       	rjmp	.-4      	; 0x3bb8 <loadeep+0x2e>
	
	flag.soundEnable = eeprom_read_byte( &eep.byte8[SOUND_ENABLE]);
    3bbc:	88 e0       	ldi	r24, 0x08	; 8
    3bbe:	90 e0       	ldi	r25, 0x00	; 0
    3bc0:	0e 94 7b 29 	call	0x52f6	; 0x52f6 <eeprom_read_byte>
    3bc4:	90 91 5d 04 	lds	r25, 0x045D	; 0x80045d <flag>
    3bc8:	80 fb       	bst	r24, 0
    3bca:	91 f9       	bld	r25, 1
    3bcc:	90 93 5d 04 	sts	0x045D, r25	; 0x80045d <flag>
	eeprom_busy_wait();
    3bd0:	e1 99       	sbic	0x1c, 1	; 28
    3bd2:	fe cf       	rjmp	.-4      	; 0x3bd0 <loadeep+0x46>
	
	flag.motorEnable = eeprom_read_byte( &eep.byte8[MOTOR_ENABLE] );
    3bd4:	89 e0       	ldi	r24, 0x09	; 9
    3bd6:	90 e0       	ldi	r25, 0x00	; 0
    3bd8:	0e 94 7b 29 	call	0x52f6	; 0x52f6 <eeprom_read_byte>
    3bdc:	90 91 5d 04 	lds	r25, 0x045D	; 0x80045d <flag>
    3be0:	80 fb       	bst	r24, 0
    3be2:	90 f9       	bld	r25, 0
    3be4:	90 93 5d 04 	sts	0x045D, r25	; 0x80045d <flag>
	eeprom_busy_wait();
    3be8:	e1 99       	sbic	0x1c, 1	; 28
    3bea:	fe cf       	rjmp	.-4      	; 0x3be8 <loadeep+0x5e>
	
	alert.enable = eeprom_read_byte( &eep.byte8[ALERT] );
    3bec:	85 e0       	ldi	r24, 0x05	; 5
    3bee:	90 e0       	ldi	r25, 0x00	; 0
    3bf0:	0e 94 7b 29 	call	0x52f6	; 0x52f6 <eeprom_read_byte>
    3bf4:	80 93 71 04 	sts	0x0471, r24	; 0x800471 <alert+0x1>
	eeprom_busy_wait();
    3bf8:	e1 99       	sbic	0x1c, 1	; 28
    3bfa:	fe cf       	rjmp	.-4      	; 0x3bf8 <loadeep+0x6e>
	
	ram.byte8[DIMM_HOUR_ON] = eeprom_read_byte(&eep.byte8[DIMM_HOUR_ON]); 
    3bfc:	8e e0       	ldi	r24, 0x0E	; 14
    3bfe:	90 e0       	ldi	r25, 0x00	; 0
    3c00:	0e 94 7b 29 	call	0x52f6	; 0x52f6 <eeprom_read_byte>
    3c04:	80 93 81 04 	sts	0x0481, r24	; 0x800481 <ram+0xc>
	eeprom_busy_wait(); 
    3c08:	e1 99       	sbic	0x1c, 1	; 28
    3c0a:	fe cf       	rjmp	.-4      	; 0x3c08 <loadeep+0x7e>
	
	ram.byte8[DIMM_MINUTE_ON] = eeprom_read_byte(&eep.byte8[DIMM_MINUTE_ON]); 
    3c0c:	80 e1       	ldi	r24, 0x10	; 16
    3c0e:	90 e0       	ldi	r25, 0x00	; 0
    3c10:	0e 94 7b 29 	call	0x52f6	; 0x52f6 <eeprom_read_byte>
    3c14:	80 93 83 04 	sts	0x0483, r24	; 0x800483 <ram+0xe>
	eeprom_busy_wait(); 
    3c18:	e1 99       	sbic	0x1c, 1	; 28
    3c1a:	fe cf       	rjmp	.-4      	; 0x3c18 <loadeep+0x8e>
	
	ram.byte8[DIMM_HOUR_OFF] = eeprom_read_byte(&eep.byte8[DIMM_HOUR_OFF]); 
    3c1c:	8f e0       	ldi	r24, 0x0F	; 15
    3c1e:	90 e0       	ldi	r25, 0x00	; 0
    3c20:	0e 94 7b 29 	call	0x52f6	; 0x52f6 <eeprom_read_byte>
    3c24:	80 93 82 04 	sts	0x0482, r24	; 0x800482 <ram+0xd>
	eeprom_busy_wait(); 
    3c28:	e1 99       	sbic	0x1c, 1	; 28
    3c2a:	fe cf       	rjmp	.-4      	; 0x3c28 <loadeep+0x9e>
	
	ram.byte8[DIMM_MINUTE_OFF] = eeprom_read_byte(&eep.byte8[DIMM_MINUTE_OFF]);
    3c2c:	81 e1       	ldi	r24, 0x11	; 17
    3c2e:	90 e0       	ldi	r25, 0x00	; 0
    3c30:	0e 94 7b 29 	call	0x52f6	; 0x52f6 <eeprom_read_byte>
    3c34:	80 93 84 04 	sts	0x0484, r24	; 0x800484 <ram+0xf>
	eeprom_busy_wait(); 
    3c38:	e1 99       	sbic	0x1c, 1	; 28
    3c3a:	fe cf       	rjmp	.-4      	; 0x3c38 <loadeep+0xae>

	ram.byte8[SYNC_HOUR] = eeprom_read_byte(&eep.byte8[SYNC_HOUR]);
    3c3c:	8a e0       	ldi	r24, 0x0A	; 10
    3c3e:	90 e0       	ldi	r25, 0x00	; 0
    3c40:	0e 94 7b 29 	call	0x52f6	; 0x52f6 <eeprom_read_byte>
    3c44:	80 93 7d 04 	sts	0x047D, r24	; 0x80047d <ram+0x8>
	eeprom_busy_wait();
    3c48:	e1 99       	sbic	0x1c, 1	; 28
    3c4a:	fe cf       	rjmp	.-4      	; 0x3c48 <loadeep+0xbe>
	
	ram.byte8[SYNC_MINUTE] = eeprom_read_byte(&eep.byte8[SYNC_MINUTE]);
    3c4c:	8b e0       	ldi	r24, 0x0B	; 11
    3c4e:	90 e0       	ldi	r25, 0x00	; 0
    3c50:	0e 94 7b 29 	call	0x52f6	; 0x52f6 <eeprom_read_byte>
    3c54:	80 93 7e 04 	sts	0x047E, r24	; 0x80047e <ram+0x9>
	eeprom_busy_wait();
    3c58:	e1 99       	sbic	0x1c, 1	; 28
    3c5a:	fe cf       	rjmp	.-4      	; 0x3c58 <loadeep+0xce>
	
	time.stime = eeprom_read_byte(&eep.byte8[MES_MESZ]); 
    3c5c:	84 e0       	ldi	r24, 0x04	; 4
    3c5e:	90 e0       	ldi	r25, 0x00	; 0
    3c60:	0e 94 7b 29 	call	0x52f6	; 0x52f6 <eeprom_read_byte>
    3c64:	80 93 76 00 	sts	0x0076, r24	; 0x800076 <time+0x8>
	eeprom_busy_wait();
    3c68:	e1 99       	sbic	0x1c, 1	; 28
    3c6a:	fe cf       	rjmp	.-4      	; 0x3c68 <loadeep+0xde>

	ram.byte8[AUTO_CHANGE_SECOUND] = eeprom_read_byte(&eep.byte8[AUTO_CHANGE_SECOUND]);
    3c6c:	8d e0       	ldi	r24, 0x0D	; 13
    3c6e:	90 e0       	ldi	r25, 0x00	; 0
    3c70:	0e 94 7b 29 	call	0x52f6	; 0x52f6 <eeprom_read_byte>
    3c74:	80 93 80 04 	sts	0x0480, r24	; 0x800480 <ram+0xb>
	eeprom_busy_wait();
    3c78:	e1 99       	sbic	0x1c, 1	; 28
    3c7a:	fe cf       	rjmp	.-4      	; 0x3c78 <loadeep+0xee>
	
	ram.byte8[AUTO_CHANGE_MINUTE] = eeprom_read_byte(&eep.byte8[AUTO_CHANGE_MINUTE]);
    3c7c:	8c e0       	ldi	r24, 0x0C	; 12
    3c7e:	90 e0       	ldi	r25, 0x00	; 0
    3c80:	0e 94 7b 29 	call	0x52f6	; 0x52f6 <eeprom_read_byte>
    3c84:	80 93 7f 04 	sts	0x047F, r24	; 0x80047f <ram+0xa>
	eeprom_busy_wait();
    3c88:	e1 99       	sbic	0x1c, 1	; 28
    3c8a:	fe cf       	rjmp	.-4      	; 0x3c88 <loadeep+0xfe>
	
	sys.alertCycles	= eeprom_read_byte(&eep.byte8[ALERT_CYCLES]); 
    3c8c:	86 e0       	ldi	r24, 0x06	; 6
    3c8e:	90 e0       	ldi	r25, 0x00	; 0
    3c90:	0e 94 7b 29 	call	0x52f6	; 0x52f6 <eeprom_read_byte>
    3c94:	80 93 62 04 	sts	0x0462, r24	; 0x800462 <sys+0x4>
	eeprom_busy_wait(); 	
    3c98:	e1 99       	sbic	0x1c, 1	; 28
    3c9a:	fe cf       	rjmp	.-4      	; 0x3c98 <loadeep+0x10e>
		
	err.byte16[SYNC_ERROR_CNT] = eeprom_read_word( &erreep.byte16[SYNC_ERROR_CNT]  );
    3c9c:	80 e0       	ldi	r24, 0x00	; 0
    3c9e:	90 e0       	ldi	r25, 0x00	; 0
    3ca0:	0e 94 83 29 	call	0x5306	; 0x5306 <eeprom_read_word>
    3ca4:	90 93 74 04 	sts	0x0474, r25	; 0x800474 <err+0x1>
    3ca8:	80 93 73 04 	sts	0x0473, r24	; 0x800473 <err>
	eeprom_busy_wait();
    3cac:	e1 99       	sbic	0x1c, 1	; 28
    3cae:	fe cf       	rjmp	.-4      	; 0x3cac <loadeep+0x122>
	
	err.byte16[SYNC_SUCCESS_CNT] = eeprom_read_word( &erreep.byte16[SYNC_SUCCESS_CNT]  );
    3cb0:	82 e0       	ldi	r24, 0x02	; 2
    3cb2:	90 e0       	ldi	r25, 0x00	; 0
    3cb4:	0e 94 83 29 	call	0x5306	; 0x5306 <eeprom_read_word>
    3cb8:	90 93 76 04 	sts	0x0476, r25	; 0x800476 <ram+0x1>
    3cbc:	80 93 75 04 	sts	0x0475, r24	; 0x800475 <ram>
	eeprom_busy_wait();
    3cc0:	e1 99       	sbic	0x1c, 1	; 28
    3cc2:	fe cf       	rjmp	.-4      	; 0x3cc0 <loadeep+0x136>
	
	ram.byte8[DCF77_NUM_OF_RECORDS] = eeprom_read_byte( &eep.byte8[DCF77_NUM_OF_RECORDS] );
    3cc4:	82 e2       	ldi	r24, 0x22	; 34
    3cc6:	90 e0       	ldi	r25, 0x00	; 0
    3cc8:	0e 94 7b 29 	call	0x52f6	; 0x52f6 <eeprom_read_byte>
    3ccc:	80 93 95 04 	sts	0x0495, r24	; 0x800495 <ram+0x20>
	eeprom_busy_wait();
    3cd0:	e1 99       	sbic	0x1c, 1	; 28
    3cd2:	fe cf       	rjmp	.-4      	; 0x3cd0 <loadeep+0x146>
    3cd4:	c2 e1       	ldi	r28, 0x12	; 18
    3cd6:	d0 e0       	ldi	r29, 0x00	; 0
    3cd8:	05 e8       	ldi	r16, 0x85	; 133
    3cda:	14 e0       	ldi	r17, 0x04	; 4
    3cdc:	0f 2e       	mov	r0, r31
    3cde:	fa e1       	ldi	r31, 0x1A	; 26
    3ce0:	ef 2e       	mov	r14, r31
    3ce2:	f0 e0       	ldi	r31, 0x00	; 0
    3ce4:	ff 2e       	mov	r15, r31
    3ce6:	f0 2d       	mov	r31, r0
	
	for ( uint8_t i = 0 ; i < ALERTS ; i++ )
	{
		ram.byte8[ ALERT_HOUR_1 + i ] = eeprom_read_byte( &eep.byte8[ALERT_HOUR_1 + i ] );
    3ce8:	ce 01       	movw	r24, r28
    3cea:	0e 94 7b 29 	call	0x52f6	; 0x52f6 <eeprom_read_byte>
    3cee:	f8 01       	movw	r30, r16
    3cf0:	81 93       	st	Z+, r24
    3cf2:	8f 01       	movw	r16, r30
		eeprom_busy_wait();
    3cf4:	e1 99       	sbic	0x1c, 1	; 28
    3cf6:	fe cf       	rjmp	.-4      	; 0x3cf4 <loadeep+0x16a>
		ram.byte8[ ALERT_MINUTE_1 + i ] = eeprom_read_byte( &eep.byte8[ALERT_MINUTE_1 + i ] );
    3cf8:	ce 01       	movw	r24, r28
    3cfa:	08 96       	adiw	r24, 0x08	; 8
    3cfc:	0e 94 7b 29 	call	0x52f6	; 0x52f6 <eeprom_read_byte>
    3d00:	f8 01       	movw	r30, r16
    3d02:	87 83       	std	Z+7, r24	; 0x07
		eeprom_busy_wait();
    3d04:	e1 99       	sbic	0x1c, 1	; 28
    3d06:	fe cf       	rjmp	.-4      	; 0x3d04 <loadeep+0x17a>
    3d08:	21 96       	adiw	r28, 0x01	; 1
	eeprom_busy_wait();
	
	ram.byte8[DCF77_NUM_OF_RECORDS] = eeprom_read_byte( &eep.byte8[DCF77_NUM_OF_RECORDS] );
	eeprom_busy_wait();
	
	for ( uint8_t i = 0 ; i < ALERTS ; i++ )
    3d0a:	ce 15       	cp	r28, r14
    3d0c:	df 05       	cpc	r29, r15
    3d0e:	61 f7       	brne	.-40     	; 0x3ce8 <loadeep+0x15e>
		ram.byte8[ ALERT_HOUR_1 + i ] = eeprom_read_byte( &eep.byte8[ALERT_HOUR_1 + i ] );
		eeprom_busy_wait();
		ram.byte8[ ALERT_MINUTE_1 + i ] = eeprom_read_byte( &eep.byte8[ALERT_MINUTE_1 + i ] );
		eeprom_busy_wait();
	}
}
    3d10:	df 91       	pop	r29
    3d12:	cf 91       	pop	r28
    3d14:	1f 91       	pop	r17
    3d16:	0f 91       	pop	r16
    3d18:	ff 90       	pop	r15
    3d1a:	ef 90       	pop	r14
    3d1c:	08 95       	ret

00003d1e <openMenue>:
	{"Exit"		, NULL					, _MENUE_EXIT_	},
};


uint8_t openMenue			( menue_t *m , size_t size )
{
    3d1e:	df 92       	push	r13
    3d20:	ef 92       	push	r14
    3d22:	ff 92       	push	r15
    3d24:	0f 93       	push	r16
    3d26:	1f 93       	push	r17
    3d28:	cf 93       	push	r28
    3d2a:	df 93       	push	r29
    3d2c:	8c 01       	movw	r16, r24
    3d2e:	7b 01       	movw	r14, r22
	uint8_t index = menueCursor;
    3d30:	d0 90 e8 03 	lds	r13, 0x03E8	; 0x8003e8 <menueCursor>

	flag.menueOpen	= 1;
    3d34:	80 91 5d 04 	lds	r24, 0x045D	; 0x80045d <flag>
    3d38:	88 60       	ori	r24, 0x08	; 8
    3d3a:	80 93 5d 04 	sts	0x045D, r24	; 0x80045d <flag>
	sync_state_old = old;
	
	/*clear the old Charakter from Display */
	if (sync_state != sync_state_old)
	{
		ledarray_blank();
    3d3e:	0e 94 98 10 	call	0x2130	; 0x2130 <ledarray_blank>
		}
		else if ( button.pressed.up )
		{
			button.all = 0;
			clearDisplay( true , false );
			if ( index < ( size - 1 ) )
    3d42:	81 e0       	ldi	r24, 0x01	; 1
    3d44:	e8 1a       	sub	r14, r24
    3d46:	f1 08       	sbc	r15, r1

	clearDisplay( true , false );
	
	while ( 1 )
	{	
		if ( ( flag.alertEnable ) || ( flag.menueExit ) )
    3d48:	90 91 5d 04 	lds	r25, 0x045D	; 0x80045d <flag>
    3d4c:	94 71       	andi	r25, 0x14	; 20
    3d4e:	69 f0       	breq	.+26     	; 0x3d6a <openMenue+0x4c>
		{
			sys.menueTimeout	= 0;
    3d50:	10 92 6e 04 	sts	0x046E, r1	; 0x80046e <sys+0x10>
    3d54:	10 92 6d 04 	sts	0x046D, r1	; 0x80046d <sys+0xf>
			flag.menueExit	= 0;
    3d58:	80 91 5d 04 	lds	r24, 0x045D	; 0x80045d <flag>
    3d5c:	8f 7e       	andi	r24, 0xEF	; 239
    3d5e:	80 93 5d 04 	sts	0x045D, r24	; 0x80045d <flag>
	sync_state_old = old;
	
	/*clear the old Charakter from Display */
	if (sync_state != sync_state_old)
	{
		ledarray_blank();
    3d62:	0e 94 98 10 	call	0x2130	; 0x2130 <ledarray_blank>
		if ( ( flag.alertEnable ) || ( flag.menueExit ) )
		{
			sys.menueTimeout	= 0;
			flag.menueExit	= 0;
			clearDisplay( true , false );
			return _MENUE_EXIT_;	
    3d66:	8f ef       	ldi	r24, 0xFF	; 255
    3d68:	4f c0       	rjmp	.+158    	; 0x3e08 <openMenue+0xea>
		}
		else if ( button.pressed.up )
    3d6a:	80 91 6f 04 	lds	r24, 0x046F	; 0x80046f <button>
    3d6e:	83 ff       	sbrs	r24, 3
    3d70:	0b c0       	rjmp	.+22     	; 0x3d88 <openMenue+0x6a>
		{
			button.all = 0;
    3d72:	10 92 6f 04 	sts	0x046F, r1	; 0x80046f <button>
	sync_state_old = old;
	
	/*clear the old Charakter from Display */
	if (sync_state != sync_state_old)
	{
		ledarray_blank();
    3d76:	0e 94 98 10 	call	0x2130	; 0x2130 <ledarray_blank>
		}
		else if ( button.pressed.up )
		{
			button.all = 0;
			clearDisplay( true , false );
			if ( index < ( size - 1 ) )
    3d7a:	8d 2d       	mov	r24, r13
    3d7c:	90 e0       	ldi	r25, 0x00	; 0
    3d7e:	8e 15       	cp	r24, r14
    3d80:	9f 05       	cpc	r25, r15
    3d82:	c0 f4       	brcc	.+48     	; 0x3db4 <openMenue+0x96>
			{
				index++;
    3d84:	d3 94       	inc	r13
    3d86:	16 c0       	rjmp	.+44     	; 0x3db4 <openMenue+0x96>
			}
		}
		else if ( button.pressed.down )
    3d88:	80 91 6f 04 	lds	r24, 0x046F	; 0x80046f <button>
    3d8c:	82 ff       	sbrs	r24, 2
    3d8e:	08 c0       	rjmp	.+16     	; 0x3da0 <openMenue+0x82>
		{
			button.all = 0;
    3d90:	10 92 6f 04 	sts	0x046F, r1	; 0x80046f <button>
	sync_state_old = old;
	
	/*clear the old Charakter from Display */
	if (sync_state != sync_state_old)
	{
		ledarray_blank();
    3d94:	0e 94 98 10 	call	0x2130	; 0x2130 <ledarray_blank>
		}
		else if ( button.pressed.down )
		{
			button.all = 0;
			clearDisplay( true, false );
			if ( index > 0 )
    3d98:	dd 20       	and	r13, r13
    3d9a:	61 f0       	breq	.+24     	; 0x3db4 <openMenue+0x96>
			{
				index--;
    3d9c:	da 94       	dec	r13
    3d9e:	0a c0       	rjmp	.+20     	; 0x3db4 <openMenue+0x96>
			}
		}
		else if ( button.pressed.exit )
    3da0:	80 91 6f 04 	lds	r24, 0x046F	; 0x80046f <button>
    3da4:	81 ff       	sbrs	r24, 1
    3da6:	06 c0       	rjmp	.+12     	; 0x3db4 <openMenue+0x96>
		{
			button.all = 0;
    3da8:	10 92 6f 04 	sts	0x046F, r1	; 0x80046f <button>
	sync_state_old = old;
	
	/*clear the old Charakter from Display */
	if (sync_state != sync_state_old)
	{
		ledarray_blank();
    3dac:	0e 94 98 10 	call	0x2130	; 0x2130 <ledarray_blank>
		}
		else if ( button.pressed.exit )
		{
			button.all = 0;
			clearDisplay( true , false );
			return _MENUE_EXIT_;
    3db0:	8f ef       	ldi	r24, 0xFF	; 255
    3db2:	2a c0       	rjmp	.+84     	; 0x3e08 <openMenue+0xea>
		}
		
		putStr( m[index].name , 0 );
    3db4:	2d 2d       	mov	r18, r13
    3db6:	30 e0       	ldi	r19, 0x00	; 0
    3db8:	e9 01       	movw	r28, r18
    3dba:	cc 0f       	add	r28, r28
    3dbc:	dd 1f       	adc	r29, r29
    3dbe:	cc 0f       	add	r28, r28
    3dc0:	dd 1f       	adc	r29, r29
    3dc2:	2c 0f       	add	r18, r28
    3dc4:	3d 1f       	adc	r19, r29
    3dc6:	e8 01       	movw	r28, r16
    3dc8:	c2 0f       	add	r28, r18
    3dca:	d3 1f       	adc	r29, r19
    3dcc:	60 e0       	ldi	r22, 0x00	; 0
    3dce:	88 81       	ld	r24, Y
    3dd0:	99 81       	ldd	r25, Y+1	; 0x01
    3dd2:	0e 94 e5 0f 	call	0x1fca	; 0x1fca <putStr>
		
		if ( button.pressed.enter )
    3dd6:	80 91 6f 04 	lds	r24, 0x046F	; 0x80046f <button>
    3dda:	84 ff       	sbrs	r24, 4
    3ddc:	b5 cf       	rjmp	.-150    	; 0x3d48 <openMenue+0x2a>
		{	
			button.all = 0;
    3dde:	10 92 6f 04 	sts	0x046F, r1	; 0x80046f <button>
	sync_state_old = old;
	
	/*clear the old Charakter from Display */
	if (sync_state != sync_state_old)
	{
		ledarray_blank();
    3de2:	0e 94 98 10 	call	0x2130	; 0x2130 <ledarray_blank>
		
		if ( button.pressed.enter )
		{	
			button.all = 0;
			clearDisplay( true , false );
			menueCursor = 0;
    3de6:	10 92 e8 03 	sts	0x03E8, r1	; 0x8003e8 <menueCursor>
			
			if ( m[index].fnc != NULL)
    3dea:	ea 81       	ldd	r30, Y+2	; 0x02
    3dec:	fb 81       	ldd	r31, Y+3	; 0x03
    3dee:	30 97       	sbiw	r30, 0x00	; 0
    3df0:	21 f0       	breq	.+8      	; 0x3dfa <openMenue+0xdc>
			{
				m[index].fnc();
    3df2:	09 95       	icall
				menueCursor = m[index].menuePos;
    3df4:	8c 81       	ldd	r24, Y+4	; 0x04
    3df6:	80 93 e8 03 	sts	0x03E8, r24	; 0x8003e8 <menueCursor>
	sync_state_old = old;
	
	/*clear the old Charakter from Display */
	if (sync_state != sync_state_old)
	{
		ledarray_blank();
    3dfa:	0e 94 98 10 	call	0x2130	; 0x2130 <ledarray_blank>
				menueCursor = m[index].menuePos;
			}
			
			clearDisplay( true , false );
			
			sys.menueTimeout = 0;
    3dfe:	10 92 6e 04 	sts	0x046E, r1	; 0x80046e <sys+0x10>
    3e02:	10 92 6d 04 	sts	0x046D, r1	; 0x80046d <sys+0xf>
			
			return index;
    3e06:	8d 2d       	mov	r24, r13
	flag.menueOpen		= 0;
	sys.autoChangeSec	= 0;
	sys.autoChangeMin	= 0;
	
	return 0;
}
    3e08:	df 91       	pop	r29
    3e0a:	cf 91       	pop	r28
    3e0c:	1f 91       	pop	r17
    3e0e:	0f 91       	pop	r16
    3e10:	ff 90       	pop	r15
    3e12:	ef 90       	pop	r14
    3e14:	df 90       	pop	r13
    3e16:	08 95       	ret

00003e18 <menueAutoDimm>:
	
	return ret;
}

uint8_t menueAutoDimm		( void )
{
    3e18:	af 92       	push	r10
    3e1a:	bf 92       	push	r11
    3e1c:	cf 92       	push	r12
    3e1e:	df 92       	push	r13
    3e20:	ef 92       	push	r14
    3e22:	ff 92       	push	r15
    3e24:	0f 93       	push	r16
    3e26:	1f 93       	push	r17
    3e28:	cf 93       	push	r28
    3e2a:	df 93       	push	r29
    3e2c:	00 d0       	rcall	.+0      	; 0x3e2e <menueAutoDimm+0x16>
    3e2e:	00 d0       	rcall	.+0      	; 0x3e30 <menueAutoDimm+0x18>
    3e30:	cd b7       	in	r28, 0x3d	; 61
    3e32:	de b7       	in	r29, 0x3e	; 62
	uint8_t ret	= 0;
	
	ret = openMenue( menueAutoDimm_struct , sizeof(menueAutoDimm_struct) / sizeof(menueAutoDimm_struct[0]) );
    3e34:	63 e0       	ldi	r22, 0x03	; 3
    3e36:	70 e0       	ldi	r23, 0x00	; 0
    3e38:	8a e9       	ldi	r24, 0x9A	; 154
    3e3a:	90 e0       	ldi	r25, 0x00	; 0
    3e3c:	0e 94 8f 1e 	call	0x3d1e	; 0x3d1e <openMenue>
	
	if ( ret == _MENUE_EXIT_ )
    3e40:	8f 3f       	cpi	r24, 0xFF	; 255
    3e42:	09 f4       	brne	.+2      	; 0x3e46 <menueAutoDimm+0x2e>
    3e44:	43 c0       	rjmp	.+134    	; 0x3ecc <menueAutoDimm+0xb4>
	{
		return ret;
	}

	uint8_t buff[] = { 23 , 59 , eeprom_read_byte( &eep.byte8[ DIMM_HOUR_ON + ret ]) , eeprom_read_byte( &eep.byte8[ DIMM_MINUTE_ON + ret ]) }; // Darf nicht verndert werden..
    3e46:	97 e1       	ldi	r25, 0x17	; 23
    3e48:	99 83       	std	Y+1, r25	; 0x01
    3e4a:	9b e3       	ldi	r25, 0x3B	; 59
    3e4c:	9a 83       	std	Y+2, r25	; 0x02
    3e4e:	08 2f       	mov	r16, r24
    3e50:	10 e0       	ldi	r17, 0x00	; 0
    3e52:	68 01       	movw	r12, r16
    3e54:	8c e0       	ldi	r24, 0x0C	; 12
    3e56:	c8 0e       	add	r12, r24
    3e58:	d1 1c       	adc	r13, r1
    3e5a:	c6 01       	movw	r24, r12
    3e5c:	8e 5f       	subi	r24, 0xFE	; 254
    3e5e:	9f 4f       	sbci	r25, 0xFF	; 255
    3e60:	5c 01       	movw	r10, r24
    3e62:	0e 94 7b 29 	call	0x52f6	; 0x52f6 <eeprom_read_byte>
    3e66:	8b 83       	std	Y+3, r24	; 0x03
    3e68:	78 01       	movw	r14, r16
    3e6a:	9e e0       	ldi	r25, 0x0E	; 14
    3e6c:	e9 0e       	add	r14, r25
    3e6e:	f1 1c       	adc	r15, r1
    3e70:	87 01       	movw	r16, r14
    3e72:	0e 5f       	subi	r16, 0xFE	; 254
    3e74:	1f 4f       	sbci	r17, 0xFF	; 255
    3e76:	c8 01       	movw	r24, r16
    3e78:	0e 94 7b 29 	call	0x52f6	; 0x52f6 <eeprom_read_byte>
    3e7c:	8c 83       	std	Y+4, r24	; 0x04
	
	uint8_t exit = 0;
	exit = cnfgTime_( buff );
    3e7e:	ce 01       	movw	r24, r28
    3e80:	01 96       	adiw	r24, 0x01	; 1
    3e82:	0e 94 64 19 	call	0x32c8	; 0x32c8 <cnfgTime_>
	
	if ( exit )
    3e86:	81 11       	cpse	r24, r1
    3e88:	23 c0       	rjmp	.+70     	; 0x3ed0 <menueAutoDimm+0xb8>
	{
		return exit;
	}
	
	eeprom_update_byte( &eep.byte8[ DIMM_HOUR_ON + ret ]   , buff[0] );
    3e8a:	69 81       	ldd	r22, Y+1	; 0x01
    3e8c:	c5 01       	movw	r24, r10
    3e8e:	0e 94 89 29 	call	0x5312	; 0x5312 <eeprom_update_byte>
	eeprom_busy_wait();
    3e92:	e1 99       	sbic	0x1c, 1	; 28
    3e94:	fe cf       	rjmp	.-4      	; 0x3e92 <menueAutoDimm+0x7a>
	eeprom_update_byte( &eep.byte8[DIMM_MINUTE_ON + ret ] , buff[1] );
    3e96:	6a 81       	ldd	r22, Y+2	; 0x02
    3e98:	c8 01       	movw	r24, r16
    3e9a:	0e 94 89 29 	call	0x5312	; 0x5312 <eeprom_update_byte>
	eeprom_busy_wait();
    3e9e:	9c b3       	in	r25, 0x1c	; 28
    3ea0:	19 2f       	mov	r17, r25
    3ea2:	12 70       	andi	r17, 0x02	; 2
    3ea4:	91 fd       	sbrc	r25, 1
    3ea6:	fb cf       	rjmp	.-10     	; 0x3e9e <menueAutoDimm+0x86>
	
	ram.byte8[DIMM_HOUR_ON + ret	]	= buff[0];
    3ea8:	f6 01       	movw	r30, r12
    3eaa:	eb 58       	subi	r30, 0x8B	; 139
    3eac:	fb 4f       	sbci	r31, 0xFB	; 251
    3eae:	89 81       	ldd	r24, Y+1	; 0x01
    3eb0:	80 83       	st	Z, r24
	ram.byte8[DIMM_MINUTE_ON + ret	]	= buff[1];
    3eb2:	f7 01       	movw	r30, r14
    3eb4:	eb 58       	subi	r30, 0x8B	; 139
    3eb6:	fb 4f       	sbci	r31, 0xFB	; 251
    3eb8:	8a 81       	ldd	r24, Y+2	; 0x02
    3eba:	80 83       	st	Z, r24
	sync_state_old = old;
	
	/*clear the old Charakter from Display */
	if (sync_state != sync_state_old)
	{
		ledarray_blank();
    3ebc:	0e 94 98 10 	call	0x2130	; 0x2130 <ledarray_blank>
	ram.byte8[DIMM_HOUR_ON + ret	]	= buff[0];
	ram.byte8[DIMM_MINUTE_ON + ret	]	= buff[1];
	
	clearDisplay( true , false );
	
	scroll_display( (const __flash char *)"Gespeichert..!" , SCROLL_SAVE_SPEED );	
    3ec0:	6a e0       	ldi	r22, 0x0A	; 10
    3ec2:	82 e5       	ldi	r24, 0x52	; 82
    3ec4:	92 e0       	ldi	r25, 0x02	; 2
    3ec6:	0e 94 a3 10 	call	0x2146	; 0x2146 <scroll_display>
	
	return 0;	
    3eca:	03 c0       	rjmp	.+6      	; 0x3ed2 <menueAutoDimm+0xba>
	
	ret = openMenue( menueAutoDimm_struct , sizeof(menueAutoDimm_struct) / sizeof(menueAutoDimm_struct[0]) );
	
	if ( ret == _MENUE_EXIT_ )
	{
		return ret;
    3ecc:	1f ef       	ldi	r17, 0xFF	; 255
    3ece:	01 c0       	rjmp	.+2      	; 0x3ed2 <menueAutoDimm+0xba>
	uint8_t exit = 0;
	exit = cnfgTime_( buff );
	
	if ( exit )
	{
		return exit;
    3ed0:	18 2f       	mov	r17, r24
	clearDisplay( true , false );
	
	scroll_display( (const __flash char *)"Gespeichert..!" , SCROLL_SAVE_SPEED );	
	
	return 0;	
}
    3ed2:	81 2f       	mov	r24, r17
    3ed4:	0f 90       	pop	r0
    3ed6:	0f 90       	pop	r0
    3ed8:	0f 90       	pop	r0
    3eda:	0f 90       	pop	r0
    3edc:	df 91       	pop	r29
    3ede:	cf 91       	pop	r28
    3ee0:	1f 91       	pop	r17
    3ee2:	0f 91       	pop	r16
    3ee4:	ff 90       	pop	r15
    3ee6:	ef 90       	pop	r14
    3ee8:	df 90       	pop	r13
    3eea:	cf 90       	pop	r12
    3eec:	bf 90       	pop	r11
    3eee:	af 90       	pop	r10
    3ef0:	08 95       	ret

00003ef2 <menueSound>:

	return 0;
}

uint8_t menueSound			( void )
{
    3ef2:	cf 93       	push	r28
    3ef4:	df 93       	push	r29
	sync_state_old = old;
	
	/*clear the old Charakter from Display */
	if (sync_state != sync_state_old)
	{
		ledarray_blank();
    3ef6:	0e 94 98 10 	call	0x2130	; 0x2130 <ledarray_blank>

uint8_t menueSound			( void )
{
	clearDisplay(false,true);
	
	flag.soundEnable = eeprom_read_byte(&eep.byte8[SOUND_ENABLE]);
    3efa:	88 e0       	ldi	r24, 0x08	; 8
    3efc:	90 e0       	ldi	r25, 0x00	; 0
    3efe:	0e 94 7b 29 	call	0x52f6	; 0x52f6 <eeprom_read_byte>
    3f02:	81 70       	andi	r24, 0x01	; 1
    3f04:	90 91 5d 04 	lds	r25, 0x045D	; 0x80045d <flag>
    3f08:	80 fb       	bst	r24, 0
    3f0a:	91 f9       	bld	r25, 1
    3f0c:	90 93 5d 04 	sts	0x045D, r25	; 0x80045d <flag>
	
	uint8_t enabled = 0;
	
	enabled = flag.soundEnable;
	
	if ( enabled & 1<<0 )
    3f10:	88 23       	and	r24, r24
    3f12:	a9 f0       	breq	.+42     	; 0x3f3e <menueSound+0x4c>
	{
		strcpy( menueOnOff_struct[0].name , "On  ");
    3f14:	c0 e9       	ldi	r28, 0x90	; 144
    3f16:	d0 e0       	ldi	r29, 0x00	; 0
    3f18:	a8 81       	ld	r26, Y
    3f1a:	b9 81       	ldd	r27, Y+1	; 0x01
    3f1c:	86 e0       	ldi	r24, 0x06	; 6
    3f1e:	e0 e8       	ldi	r30, 0x80	; 128
    3f20:	f2 e0       	ldi	r31, 0x02	; 2
    3f22:	01 90       	ld	r0, Z+
    3f24:	0d 92       	st	X+, r0
    3f26:	8a 95       	dec	r24
    3f28:	e1 f7       	brne	.-8      	; 0x3f22 <menueSound+0x30>
		strcpy( menueOnOff_struct[1].name , "Off %");
    3f2a:	ad 81       	ldd	r26, Y+5	; 0x05
    3f2c:	be 81       	ldd	r27, Y+6	; 0x06
    3f2e:	86 e0       	ldi	r24, 0x06	; 6
    3f30:	e6 e8       	ldi	r30, 0x86	; 134
    3f32:	f2 e0       	ldi	r31, 0x02	; 2
    3f34:	01 90       	ld	r0, Z+
    3f36:	0d 92       	st	X+, r0
    3f38:	8a 95       	dec	r24
    3f3a:	e1 f7       	brne	.-8      	; 0x3f34 <menueSound+0x42>
    3f3c:	14 c0       	rjmp	.+40     	; 0x3f66 <menueSound+0x74>
	}
	else
	{
		strcpy( menueOnOff_struct[0].name , "On  %");
    3f3e:	c0 e9       	ldi	r28, 0x90	; 144
    3f40:	d0 e0       	ldi	r29, 0x00	; 0
    3f42:	a8 81       	ld	r26, Y
    3f44:	b9 81       	ldd	r27, Y+1	; 0x01
    3f46:	86 e0       	ldi	r24, 0x06	; 6
    3f48:	ec e8       	ldi	r30, 0x8C	; 140
    3f4a:	f2 e0       	ldi	r31, 0x02	; 2
    3f4c:	01 90       	ld	r0, Z+
    3f4e:	0d 92       	st	X+, r0
    3f50:	8a 95       	dec	r24
    3f52:	e1 f7       	brne	.-8      	; 0x3f4c <menueSound+0x5a>
		strcpy( menueOnOff_struct[1].name , "Off ");
    3f54:	ad 81       	ldd	r26, Y+5	; 0x05
    3f56:	be 81       	ldd	r27, Y+6	; 0x06
    3f58:	86 e0       	ldi	r24, 0x06	; 6
    3f5a:	e2 e9       	ldi	r30, 0x92	; 146
    3f5c:	f2 e0       	ldi	r31, 0x02	; 2
    3f5e:	01 90       	ld	r0, Z+
    3f60:	0d 92       	st	X+, r0
    3f62:	8a 95       	dec	r24
    3f64:	e1 f7       	brne	.-8      	; 0x3f5e <menueSound+0x6c>
	}
	
	uint8_t ret	= 0;

	ret = openMenue( menueOnOff_struct , sizeof(menueOnOff_struct) / sizeof(menueOnOff_struct[0]) );
    3f66:	62 e0       	ldi	r22, 0x02	; 2
    3f68:	70 e0       	ldi	r23, 0x00	; 0
    3f6a:	80 e9       	ldi	r24, 0x90	; 144
    3f6c:	90 e0       	ldi	r25, 0x00	; 0
    3f6e:	0e 94 8f 1e 	call	0x3d1e	; 0x3d1e <openMenue>
	
	if ( ret == _MENUE_EXIT_ )
    3f72:	8f 3f       	cpi	r24, 0xFF	; 255
    3f74:	f9 f0       	breq	.+62     	; 0x3fb4 <menueSound+0xc2>
	{
		return ret;
	}
			
	switch( ret )
    3f76:	88 23       	and	r24, r24
    3f78:	19 f0       	breq	.+6      	; 0x3f80 <menueSound+0x8e>
    3f7a:	81 30       	cpi	r24, 0x01	; 1
    3f7c:	39 f0       	breq	.+14     	; 0x3f8c <menueSound+0x9a>
    3f7e:	0b c0       	rjmp	.+22     	; 0x3f96 <menueSound+0xa4>
	{
		case 0:
		{
			flag.soundEnable |= 1<<0;
    3f80:	80 91 5d 04 	lds	r24, 0x045D	; 0x80045d <flag>
    3f84:	82 60       	ori	r24, 0x02	; 2
    3f86:	80 93 5d 04 	sts	0x045D, r24	; 0x80045d <flag>
		}break;
    3f8a:	05 c0       	rjmp	.+10     	; 0x3f96 <menueSound+0xa4>
		
		case 1:
		{
			flag.soundEnable &= ~(1<<0);
    3f8c:	80 91 5d 04 	lds	r24, 0x045D	; 0x80045d <flag>
    3f90:	8d 7f       	andi	r24, 0xFD	; 253
    3f92:	80 93 5d 04 	sts	0x045D, r24	; 0x80045d <flag>
		}break;
	}
	
	eeprom_update_byte( &eep.byte8[SOUND_ENABLE] , flag.soundEnable );
    3f96:	60 91 5d 04 	lds	r22, 0x045D	; 0x80045d <flag>
    3f9a:	66 95       	lsr	r22
    3f9c:	61 70       	andi	r22, 0x01	; 1
    3f9e:	88 e0       	ldi	r24, 0x08	; 8
    3fa0:	90 e0       	ldi	r25, 0x00	; 0
    3fa2:	0e 94 89 29 	call	0x5312	; 0x5312 <eeprom_update_byte>
	scroll_display( (const __flash char *)"Gespeichert..!" , SCROLL_SAVE_SPEED );
    3fa6:	6a e0       	ldi	r22, 0x0A	; 10
    3fa8:	82 e5       	ldi	r24, 0x52	; 82
    3faa:	92 e0       	ldi	r25, 0x02	; 2
    3fac:	0e 94 a3 10 	call	0x2146	; 0x2146 <scroll_display>
		
	return 0;
    3fb0:	80 e0       	ldi	r24, 0x00	; 0
    3fb2:	01 c0       	rjmp	.+2      	; 0x3fb6 <menueSound+0xc4>

	ret = openMenue( menueOnOff_struct , sizeof(menueOnOff_struct) / sizeof(menueOnOff_struct[0]) );
	
	if ( ret == _MENUE_EXIT_ )
	{
		return ret;
    3fb4:	8f ef       	ldi	r24, 0xFF	; 255
	
	eeprom_update_byte( &eep.byte8[SOUND_ENABLE] , flag.soundEnable );
	scroll_display( (const __flash char *)"Gespeichert..!" , SCROLL_SAVE_SPEED );
		
	return 0;
}
    3fb6:	df 91       	pop	r29
    3fb8:	cf 91       	pop	r28
    3fba:	08 95       	ret

00003fbc <menueMotor>:

uint8_t menueMotor			( void )
{
    3fbc:	cf 93       	push	r28
    3fbe:	df 93       	push	r29
	sync_state_old = old;
	
	/*clear the old Charakter from Display */
	if (sync_state != sync_state_old)
	{
		ledarray_blank();
    3fc0:	0e 94 98 10 	call	0x2130	; 0x2130 <ledarray_blank>
uint8_t menueMotor			( void )
{
	uint8_t enabled = 0;
	
	clearDisplay(false,true);
	flag.motorEnable = eeprom_read_byte(&eep.byte8[MOTOR_ENABLE]);
    3fc4:	89 e0       	ldi	r24, 0x09	; 9
    3fc6:	90 e0       	ldi	r25, 0x00	; 0
    3fc8:	0e 94 7b 29 	call	0x52f6	; 0x52f6 <eeprom_read_byte>
    3fcc:	81 70       	andi	r24, 0x01	; 1
    3fce:	90 91 5d 04 	lds	r25, 0x045D	; 0x80045d <flag>
    3fd2:	80 fb       	bst	r24, 0
    3fd4:	90 f9       	bld	r25, 0
    3fd6:	90 93 5d 04 	sts	0x045D, r25	; 0x80045d <flag>
	enabled = flag.motorEnable;
	
	
	if ( enabled & 1<<0 )
    3fda:	88 23       	and	r24, r24
    3fdc:	a9 f0       	breq	.+42     	; 0x4008 <menueMotor+0x4c>
	{
		strcpy( menueOnOff_struct[0].name , "On  ");
    3fde:	c0 e9       	ldi	r28, 0x90	; 144
    3fe0:	d0 e0       	ldi	r29, 0x00	; 0
    3fe2:	a8 81       	ld	r26, Y
    3fe4:	b9 81       	ldd	r27, Y+1	; 0x01
    3fe6:	86 e0       	ldi	r24, 0x06	; 6
    3fe8:	e0 e8       	ldi	r30, 0x80	; 128
    3fea:	f2 e0       	ldi	r31, 0x02	; 2
    3fec:	01 90       	ld	r0, Z+
    3fee:	0d 92       	st	X+, r0
    3ff0:	8a 95       	dec	r24
    3ff2:	e1 f7       	brne	.-8      	; 0x3fec <menueMotor+0x30>
		strcpy( menueOnOff_struct[1].name , "Off %");
    3ff4:	ad 81       	ldd	r26, Y+5	; 0x05
    3ff6:	be 81       	ldd	r27, Y+6	; 0x06
    3ff8:	86 e0       	ldi	r24, 0x06	; 6
    3ffa:	e6 e8       	ldi	r30, 0x86	; 134
    3ffc:	f2 e0       	ldi	r31, 0x02	; 2
    3ffe:	01 90       	ld	r0, Z+
    4000:	0d 92       	st	X+, r0
    4002:	8a 95       	dec	r24
    4004:	e1 f7       	brne	.-8      	; 0x3ffe <menueMotor+0x42>
    4006:	14 c0       	rjmp	.+40     	; 0x4030 <menueMotor+0x74>
	}
	else
	{
		strcpy( menueOnOff_struct[0].name , "On  %");
    4008:	c0 e9       	ldi	r28, 0x90	; 144
    400a:	d0 e0       	ldi	r29, 0x00	; 0
    400c:	a8 81       	ld	r26, Y
    400e:	b9 81       	ldd	r27, Y+1	; 0x01
    4010:	86 e0       	ldi	r24, 0x06	; 6
    4012:	ec e8       	ldi	r30, 0x8C	; 140
    4014:	f2 e0       	ldi	r31, 0x02	; 2
    4016:	01 90       	ld	r0, Z+
    4018:	0d 92       	st	X+, r0
    401a:	8a 95       	dec	r24
    401c:	e1 f7       	brne	.-8      	; 0x4016 <menueMotor+0x5a>
		strcpy( menueOnOff_struct[1].name , "Off ");
    401e:	ad 81       	ldd	r26, Y+5	; 0x05
    4020:	be 81       	ldd	r27, Y+6	; 0x06
    4022:	86 e0       	ldi	r24, 0x06	; 6
    4024:	e2 e9       	ldi	r30, 0x92	; 146
    4026:	f2 e0       	ldi	r31, 0x02	; 2
    4028:	01 90       	ld	r0, Z+
    402a:	0d 92       	st	X+, r0
    402c:	8a 95       	dec	r24
    402e:	e1 f7       	brne	.-8      	; 0x4028 <menueMotor+0x6c>
	}
	
	uint8_t ret	= 0;

	ret = openMenue( menueOnOff_struct , sizeof(menueOnOff_struct) / sizeof(menueOnOff_struct[0]) );
    4030:	62 e0       	ldi	r22, 0x02	; 2
    4032:	70 e0       	ldi	r23, 0x00	; 0
    4034:	80 e9       	ldi	r24, 0x90	; 144
    4036:	90 e0       	ldi	r25, 0x00	; 0
    4038:	0e 94 8f 1e 	call	0x3d1e	; 0x3d1e <openMenue>

	
	if ( ret == _MENUE_EXIT_ )
    403c:	8f 3f       	cpi	r24, 0xFF	; 255
    403e:	f1 f0       	breq	.+60     	; 0x407c <menueMotor+0xc0>
	{
		return ret;
	}
	
	switch( ret )
    4040:	88 23       	and	r24, r24
    4042:	19 f0       	breq	.+6      	; 0x404a <menueMotor+0x8e>
    4044:	81 30       	cpi	r24, 0x01	; 1
    4046:	39 f0       	breq	.+14     	; 0x4056 <menueMotor+0x9a>
    4048:	0b c0       	rjmp	.+22     	; 0x4060 <menueMotor+0xa4>
	{
		case 0:
		{
			flag.motorEnable |= 1<<0;
    404a:	80 91 5d 04 	lds	r24, 0x045D	; 0x80045d <flag>
    404e:	81 60       	ori	r24, 0x01	; 1
    4050:	80 93 5d 04 	sts	0x045D, r24	; 0x80045d <flag>
		}break;
    4054:	05 c0       	rjmp	.+10     	; 0x4060 <menueMotor+0xa4>
		
		case 1:
		{
			flag.motorEnable &= ~(1<<0);
    4056:	80 91 5d 04 	lds	r24, 0x045D	; 0x80045d <flag>
    405a:	8e 7f       	andi	r24, 0xFE	; 254
    405c:	80 93 5d 04 	sts	0x045D, r24	; 0x80045d <flag>
		}break;
	}
	
	eeprom_update_byte( &eep.byte8[MOTOR_ENABLE] , flag.motorEnable );	
    4060:	60 91 5d 04 	lds	r22, 0x045D	; 0x80045d <flag>
    4064:	61 70       	andi	r22, 0x01	; 1
    4066:	89 e0       	ldi	r24, 0x09	; 9
    4068:	90 e0       	ldi	r25, 0x00	; 0
    406a:	0e 94 89 29 	call	0x5312	; 0x5312 <eeprom_update_byte>
	scroll_display( (const __flash char *)"Gespeichert..!" , SCROLL_SAVE_SPEED );
    406e:	6a e0       	ldi	r22, 0x0A	; 10
    4070:	82 e5       	ldi	r24, 0x52	; 82
    4072:	92 e0       	ldi	r25, 0x02	; 2
    4074:	0e 94 a3 10 	call	0x2146	; 0x2146 <scroll_display>
	
	return 0;	
    4078:	80 e0       	ldi	r24, 0x00	; 0
    407a:	01 c0       	rjmp	.+2      	; 0x407e <menueMotor+0xc2>
	ret = openMenue( menueOnOff_struct , sizeof(menueOnOff_struct) / sizeof(menueOnOff_struct[0]) );

	
	if ( ret == _MENUE_EXIT_ )
	{
		return ret;
    407c:	8f ef       	ldi	r24, 0xFF	; 255
	
	eeprom_update_byte( &eep.byte8[MOTOR_ENABLE] , flag.motorEnable );	
	scroll_display( (const __flash char *)"Gespeichert..!" , SCROLL_SAVE_SPEED );
	
	return 0;	
}
    407e:	df 91       	pop	r29
    4080:	cf 91       	pop	r28
    4082:	08 95       	ret

00004084 <menueSyncTime>:
	
	return 0;
}

uint8_t menueSyncTime		( void )
{
    4084:	1f 93       	push	r17
    4086:	cf 93       	push	r28
    4088:	df 93       	push	r29
    408a:	00 d0       	rcall	.+0      	; 0x408c <menueSyncTime+0x8>
    408c:	00 d0       	rcall	.+0      	; 0x408e <menueSyncTime+0xa>
    408e:	cd b7       	in	r28, 0x3d	; 61
    4090:	de b7       	in	r29, 0x3e	; 62
	uint8_t ret = 0;
	
	uint8_t buff[] = { 23 , 59 , eeprom_read_byte(&eep.byte8[SYNC_HOUR]) , eeprom_read_byte(&eep.byte8[SYNC_MINUTE]) };
    4092:	87 e1       	ldi	r24, 0x17	; 23
    4094:	89 83       	std	Y+1, r24	; 0x01
    4096:	8b e3       	ldi	r24, 0x3B	; 59
    4098:	8a 83       	std	Y+2, r24	; 0x02
    409a:	8a e0       	ldi	r24, 0x0A	; 10
    409c:	90 e0       	ldi	r25, 0x00	; 0
    409e:	0e 94 7b 29 	call	0x52f6	; 0x52f6 <eeprom_read_byte>
    40a2:	8b 83       	std	Y+3, r24	; 0x03
    40a4:	8b e0       	ldi	r24, 0x0B	; 11
    40a6:	90 e0       	ldi	r25, 0x00	; 0
    40a8:	0e 94 7b 29 	call	0x52f6	; 0x52f6 <eeprom_read_byte>
    40ac:	8c 83       	std	Y+4, r24	; 0x04
	
	ret = cnfgTime_( buff );
    40ae:	ce 01       	movw	r24, r28
    40b0:	01 96       	adiw	r24, 0x01	; 1
    40b2:	0e 94 64 19 	call	0x32c8	; 0x32c8 <cnfgTime_>
	
	if ( ret )
    40b6:	81 11       	cpse	r24, r1
    40b8:	22 c0       	rjmp	.+68     	; 0x40fe <menueSyncTime+0x7a>
	{
		return 1;
	}

	if ( buff[1] == 0 )
    40ba:	8a 81       	ldd	r24, Y+2	; 0x02
    40bc:	81 11       	cpse	r24, r1
    40be:	02 c0       	rjmp	.+4      	; 0x40c4 <menueSyncTime+0x40>
	{
		buff[1] = 1;
    40c0:	81 e0       	ldi	r24, 0x01	; 1
    40c2:	8a 83       	std	Y+2, r24	; 0x02
	}
	
	eeprom_update_byte(  &eep.byte8[SYNC_HOUR] , buff[0] );
    40c4:	69 81       	ldd	r22, Y+1	; 0x01
    40c6:	8a e0       	ldi	r24, 0x0A	; 10
    40c8:	90 e0       	ldi	r25, 0x00	; 0
    40ca:	0e 94 89 29 	call	0x5312	; 0x5312 <eeprom_update_byte>
	eeprom_busy_wait();
    40ce:	e1 99       	sbic	0x1c, 1	; 28
    40d0:	fe cf       	rjmp	.-4      	; 0x40ce <menueSyncTime+0x4a>
	eeprom_update_byte(  &eep.byte8[SYNC_MINUTE] , buff[1] );
    40d2:	6a 81       	ldd	r22, Y+2	; 0x02
    40d4:	8b e0       	ldi	r24, 0x0B	; 11
    40d6:	90 e0       	ldi	r25, 0x00	; 0
    40d8:	0e 94 89 29 	call	0x5312	; 0x5312 <eeprom_update_byte>
	eeprom_busy_wait();
    40dc:	8c b3       	in	r24, 0x1c	; 28
    40de:	18 2f       	mov	r17, r24
    40e0:	12 70       	andi	r17, 0x02	; 2
    40e2:	81 fd       	sbrc	r24, 1
    40e4:	fb cf       	rjmp	.-10     	; 0x40dc <menueSyncTime+0x58>
	
	ram.byte8[SYNC_HOUR] = buff[0];
    40e6:	e5 e7       	ldi	r30, 0x75	; 117
    40e8:	f4 e0       	ldi	r31, 0x04	; 4
    40ea:	89 81       	ldd	r24, Y+1	; 0x01
    40ec:	80 87       	std	Z+8, r24	; 0x08
	ram.byte8[SYNC_MINUTE] = buff[1];
    40ee:	8a 81       	ldd	r24, Y+2	; 0x02
    40f0:	81 87       	std	Z+9, r24	; 0x09
	
	scroll_display( (const __flash char *)"Gespeichert..!" , SCROLL_SAVE_SPEED );
    40f2:	6a e0       	ldi	r22, 0x0A	; 10
    40f4:	82 e5       	ldi	r24, 0x52	; 82
    40f6:	92 e0       	ldi	r25, 0x02	; 2
    40f8:	0e 94 a3 10 	call	0x2146	; 0x2146 <scroll_display>

	return 0;
    40fc:	01 c0       	rjmp	.+2      	; 0x4100 <menueSyncTime+0x7c>
	
	ret = cnfgTime_( buff );
	
	if ( ret )
	{
		return 1;
    40fe:	11 e0       	ldi	r17, 0x01	; 1
	ram.byte8[SYNC_MINUTE] = buff[1];
	
	scroll_display( (const __flash char *)"Gespeichert..!" , SCROLL_SAVE_SPEED );

	return 0;
}
    4100:	81 2f       	mov	r24, r17
    4102:	0f 90       	pop	r0
    4104:	0f 90       	pop	r0
    4106:	0f 90       	pop	r0
    4108:	0f 90       	pop	r0
    410a:	df 91       	pop	r29
    410c:	cf 91       	pop	r28
    410e:	1f 91       	pop	r17
    4110:	08 95       	ret

00004112 <menueAlarmCycle>:
	
	return 0;	
}

uint8_t menueAlarmCycle		( void )
{
    4112:	1f 93       	push	r17
    4114:	cf 93       	push	r28
    4116:	df 93       	push	r29
	sync_state_old = old;
	
	/*clear the old Charakter from Display */
	if (sync_state != sync_state_old)
	{
		ledarray_blank();
    4118:	0e 94 98 10 	call	0x2130	; 0x2130 <ledarray_blank>
uint8_t menueAlarmCycle		( void )
{
	clearDisplay(false,true);
	
	/* default setting */
	sys.alertCycles = eeprom_read_byte( &eep.byte8[ALERT_CYCLES] );
    411c:	86 e0       	ldi	r24, 0x06	; 6
    411e:	90 e0       	ldi	r25, 0x00	; 0
    4120:	0e 94 7b 29 	call	0x52f6	; 0x52f6 <eeprom_read_byte>
    4124:	80 93 62 04 	sts	0x0462, r24	; 0x800462 <sys+0x4>
	
	putStr( "n.:" , 0 );
    4128:	60 e0       	ldi	r22, 0x00	; 0
    412a:	88 e9       	ldi	r24, 0x98	; 152
    412c:	92 e0       	ldi	r25, 0x02	; 2
    412e:	0e 94 e5 0f 	call	0x1fca	; 0x1fca <putStr>
			uint8ToDisp(sys.alertCycles,21);
		}
		else if (button.pressed.down)
		{
			button.all = 0;
			sys.alertCycles = decDec(sys.alertCycles, 99);
    4132:	ce e5       	ldi	r28, 0x5E	; 94
    4134:	d4 e0       	ldi	r29, 0x04	; 4
 
uint8_t decDec					( uint8_t value, uint8_t valueMin )
{	
	if ( (int8_t)--value < 0 )
	{
		value = valueMin;
    4136:	13 e6       	ldi	r17, 0x63	; 99
	
	putStr( "n.:" , 0 );
	
	while( 1 )
	{
		if (button.pressed.up)
    4138:	80 91 6f 04 	lds	r24, 0x046F	; 0x80046f <button>
    413c:	83 ff       	sbrs	r24, 3
    413e:	0d c0       	rjmp	.+26     	; 0x415a <menueAlarmCycle+0x48>
		{
			button.all = 0;
    4140:	10 92 6f 04 	sts	0x046F, r1	; 0x80046f <button>
			sys.alertCycles = incDec(sys.alertCycles, 99);
    4144:	8c 81       	ldd	r24, Y+4	; 0x04
	clearDisplay( true , false );
}

uint8_t incDec					( uint8_t value, uint8_t valueMax )
 {	 
	if ( ++value > valueMax )
    4146:	8f 5f       	subi	r24, 0xFF	; 255
    4148:	84 36       	cpi	r24, 0x64	; 100
    414a:	08 f0       	brcs	.+2      	; 0x414e <menueAlarmCycle+0x3c>
	{
		value = 0;
    414c:	80 e0       	ldi	r24, 0x00	; 0
	while( 1 )
	{
		if (button.pressed.up)
		{
			button.all = 0;
			sys.alertCycles = incDec(sys.alertCycles, 99);
    414e:	8c 83       	std	Y+4, r24	; 0x04
			uint8ToDisp(sys.alertCycles,21);
    4150:	8c 81       	ldd	r24, Y+4	; 0x04
    4152:	65 e1       	ldi	r22, 0x15	; 21
    4154:	0e 94 74 14 	call	0x28e8	; 0x28e8 <uint8ToDisp>
    4158:	3b c0       	rjmp	.+118    	; 0x41d0 <menueAlarmCycle+0xbe>
		}
		else if (button.pressed.down)
    415a:	80 91 6f 04 	lds	r24, 0x046F	; 0x80046f <button>
    415e:	82 ff       	sbrs	r24, 2
    4160:	0c c0       	rjmp	.+24     	; 0x417a <menueAlarmCycle+0x68>
		{
			button.all = 0;
    4162:	10 92 6f 04 	sts	0x046F, r1	; 0x80046f <button>
			sys.alertCycles = decDec(sys.alertCycles, 99);
    4166:	8c 81       	ldd	r24, Y+4	; 0x04
	return value;
 }
 
uint8_t decDec					( uint8_t value, uint8_t valueMin )
{	
	if ( (int8_t)--value < 0 )
    4168:	81 50       	subi	r24, 0x01	; 1
    416a:	0a f4       	brpl	.+2      	; 0x416e <menueAlarmCycle+0x5c>
	{
		value = valueMin;
    416c:	81 2f       	mov	r24, r17
			uint8ToDisp(sys.alertCycles,21);
		}
		else if (button.pressed.down)
		{
			button.all = 0;
			sys.alertCycles = decDec(sys.alertCycles, 99);
    416e:	8c 83       	std	Y+4, r24	; 0x04
			uint8ToDisp(sys.alertCycles,21);
    4170:	8c 81       	ldd	r24, Y+4	; 0x04
    4172:	65 e1       	ldi	r22, 0x15	; 21
    4174:	0e 94 74 14 	call	0x28e8	; 0x28e8 <uint8ToDisp>
    4178:	2b c0       	rjmp	.+86     	; 0x41d0 <menueAlarmCycle+0xbe>
		}
		else if (button.pressed.enter)
    417a:	80 91 6f 04 	lds	r24, 0x046F	; 0x80046f <button>
    417e:	84 ff       	sbrs	r24, 4
    4180:	14 c0       	rjmp	.+40     	; 0x41aa <menueAlarmCycle+0x98>
		{
			button.all = 0;
    4182:	10 92 6f 04 	sts	0x046F, r1	; 0x80046f <button>
	
		blink2Digit( sys.alertCycles , 21 );
				
	}// end while
	
	flag.menueExit = 0;
    4186:	80 91 5d 04 	lds	r24, 0x045D	; 0x80045d <flag>
    418a:	8f 7e       	andi	r24, 0xEF	; 239
    418c:	80 93 5d 04 	sts	0x045D, r24	; 0x80045d <flag>
	
	eeprom_update_byte(&eep.byte8[ALERT_CYCLES], sys.alertCycles);
    4190:	60 91 62 04 	lds	r22, 0x0462	; 0x800462 <sys+0x4>
    4194:	86 e0       	ldi	r24, 0x06	; 6
    4196:	90 e0       	ldi	r25, 0x00	; 0
    4198:	0e 94 89 29 	call	0x5312	; 0x5312 <eeprom_update_byte>
	scroll_display( (const __flash char *)"Gespeichert..!",SCROLL_SAVE_SPEED);
    419c:	6a e0       	ldi	r22, 0x0A	; 10
    419e:	82 e5       	ldi	r24, 0x52	; 82
    41a0:	92 e0       	ldi	r25, 0x02	; 2
    41a2:	0e 94 a3 10 	call	0x2146	; 0x2146 <scroll_display>

	return 0;
    41a6:	80 e0       	ldi	r24, 0x00	; 0
    41a8:	18 c0       	rjmp	.+48     	; 0x41da <menueAlarmCycle+0xc8>
		else if (button.pressed.enter)
		{
			button.all = 0;
			break;
		}
		else if ( button.pressed.exit || flag.menueExit )
    41aa:	80 91 6f 04 	lds	r24, 0x046F	; 0x80046f <button>
    41ae:	81 fd       	sbrc	r24, 1
    41b0:	04 c0       	rjmp	.+8      	; 0x41ba <menueAlarmCycle+0xa8>
    41b2:	80 91 5d 04 	lds	r24, 0x045D	; 0x80045d <flag>
    41b6:	84 ff       	sbrs	r24, 4
    41b8:	0b c0       	rjmp	.+22     	; 0x41d0 <menueAlarmCycle+0xbe>
		{
			button.all = 0;
    41ba:	10 92 6f 04 	sts	0x046F, r1	; 0x80046f <button>
			flag.menueExit = 0;
    41be:	80 91 5d 04 	lds	r24, 0x045D	; 0x80045d <flag>
    41c2:	8f 7e       	andi	r24, 0xEF	; 239
    41c4:	80 93 5d 04 	sts	0x045D, r24	; 0x80045d <flag>
	sync_state_old = old;
	
	/*clear the old Charakter from Display */
	if (sync_state != sync_state_old)
	{
		ledarray_blank();
    41c8:	0e 94 98 10 	call	0x2130	; 0x2130 <ledarray_blank>
		else if ( button.pressed.exit || flag.menueExit )
		{
			button.all = 0;
			flag.menueExit = 0;
			clearDisplay(false,true);
			return 1;
    41cc:	81 e0       	ldi	r24, 0x01	; 1
    41ce:	05 c0       	rjmp	.+10     	; 0x41da <menueAlarmCycle+0xc8>
		}
	
		blink2Digit( sys.alertCycles , 21 );
    41d0:	8c 81       	ldd	r24, Y+4	; 0x04
    41d2:	65 e1       	ldi	r22, 0x15	; 21
    41d4:	0e 94 94 14 	call	0x2928	; 0x2928 <blink2Digit>
				
	}// end while
    41d8:	af cf       	rjmp	.-162    	; 0x4138 <menueAlarmCycle+0x26>
	
	eeprom_update_byte(&eep.byte8[ALERT_CYCLES], sys.alertCycles);
	scroll_display( (const __flash char *)"Gespeichert..!",SCROLL_SAVE_SPEED);

	return 0;
}
    41da:	df 91       	pop	r29
    41dc:	cf 91       	pop	r28
    41de:	1f 91       	pop	r17
    41e0:	08 95       	ret

000041e2 <menueAlarm>:
	
	return 0;
}

uint8_t menueAlarm			( void )
{
    41e2:	8f 92       	push	r8
    41e4:	9f 92       	push	r9
    41e6:	af 92       	push	r10
    41e8:	bf 92       	push	r11
    41ea:	cf 92       	push	r12
    41ec:	df 92       	push	r13
    41ee:	ef 92       	push	r14
    41f0:	ff 92       	push	r15
    41f2:	1f 93       	push	r17
    41f4:	cf 93       	push	r28
    41f6:	df 93       	push	r29
    41f8:	00 d0       	rcall	.+0      	; 0x41fa <menueAlarm+0x18>
    41fa:	00 d0       	rcall	.+0      	; 0x41fc <menueAlarm+0x1a>
    41fc:	cd b7       	in	r28, 0x3d	; 61
    41fe:	de b7       	in	r29, 0x3e	; 62
	uint8_t ret	= 0;
	
	ret = openMenue( menueAlert_struct , sizeof(menueAlert_struct) / sizeof(menueAlert_struct[0]) );
    4200:	6a e0       	ldi	r22, 0x0A	; 10
    4202:	70 e0       	ldi	r23, 0x00	; 0
    4204:	89 ea       	ldi	r24, 0xA9	; 169
    4206:	90 e0       	ldi	r25, 0x00	; 0
    4208:	0e 94 8f 1e 	call	0x3d1e	; 0x3d1e <openMenue>
    420c:	18 2f       	mov	r17, r24
	
	if ( ret == _MENUE_EXIT_ || ret == 9 )
    420e:	8f 3f       	cpi	r24, 0xFF	; 255
    4210:	09 f4       	brne	.+2      	; 0x4214 <menueAlarm+0x32>
    4212:	b3 c0       	rjmp	.+358    	; 0x437a <menueAlarm+0x198>
    4214:	89 30       	cpi	r24, 0x09	; 9
    4216:	09 f4       	brne	.+2      	; 0x421a <menueAlarm+0x38>
    4218:	b2 c0       	rjmp	.+356    	; 0x437e <menueAlarm+0x19c>
	sync_state_old = old;
	
	/*clear the old Charakter from Display */
	if (sync_state != sync_state_old)
	{
		ledarray_blank();
    421a:	0e 94 98 10 	call	0x2130	; 0x2130 <ledarray_blank>
		return ret;
	}
	
	clearDisplay( true , false );
		
	uint8_t buff[] = { 23 , 59 , eeprom_read_byte( &eep.byte8[ALERT_HOUR_1 + ret] ) , eeprom_read_byte( &eep.byte8[ALERT_MINUTE_1 + ret] ) }; // Darf nicht verndert werden..
    421e:	87 e1       	ldi	r24, 0x17	; 23
    4220:	89 83       	std	Y+1, r24	; 0x01
    4222:	8b e3       	ldi	r24, 0x3B	; 59
    4224:	8a 83       	std	Y+2, r24	; 0x02
    4226:	e1 2e       	mov	r14, r17
    4228:	f1 2c       	mov	r15, r1
    422a:	67 01       	movw	r12, r14
    422c:	80 e1       	ldi	r24, 0x10	; 16
    422e:	c8 0e       	add	r12, r24
    4230:	d1 1c       	adc	r13, r1
    4232:	f6 01       	movw	r30, r12
    4234:	ee 5f       	subi	r30, 0xFE	; 254
    4236:	ff 4f       	sbci	r31, 0xFF	; 255
    4238:	5f 01       	movw	r10, r30
    423a:	cf 01       	movw	r24, r30
    423c:	0e 94 7b 29 	call	0x52f6	; 0x52f6 <eeprom_read_byte>
    4240:	8b 83       	std	Y+3, r24	; 0x03
    4242:	f8 e1       	ldi	r31, 0x18	; 24
    4244:	ef 0e       	add	r14, r31
    4246:	f1 1c       	adc	r15, r1
    4248:	c7 01       	movw	r24, r14
    424a:	8e 5f       	subi	r24, 0xFE	; 254
    424c:	9f 4f       	sbci	r25, 0xFF	; 255
    424e:	4c 01       	movw	r8, r24
    4250:	0e 94 7b 29 	call	0x52f6	; 0x52f6 <eeprom_read_byte>
    4254:	8c 83       	std	Y+4, r24	; 0x04

	if ( ret == 8 )
    4256:	18 30       	cpi	r17, 0x08	; 8
    4258:	21 f4       	brne	.+8      	; 0x4262 <menueAlarm+0x80>
	{
		menueAlarmCycle();
    425a:	0e 94 89 20 	call	0x4112	; 0x4112 <menueAlarmCycle>
		return 0;
    425e:	80 e0       	ldi	r24, 0x00	; 0
    4260:	91 c0       	rjmp	.+290    	; 0x4384 <menueAlarm+0x1a2>
	}

	uint8_t subExit = cnfgTime_( buff );
    4262:	ce 01       	movw	r24, r28
    4264:	01 96       	adiw	r24, 0x01	; 1
    4266:	0e 94 64 19 	call	0x32c8	; 0x32c8 <cnfgTime_>
	
	if ( subExit )
    426a:	81 11       	cpse	r24, r1
    426c:	8b c0       	rjmp	.+278    	; 0x4384 <menueAlarm+0x1a2>
	{
		return subExit;
	}

	if ( alert.enable & 1<<ret )
    426e:	80 91 71 04 	lds	r24, 0x0471	; 0x800471 <alert+0x1>
    4272:	90 e0       	ldi	r25, 0x00	; 0
    4274:	01 2e       	mov	r0, r17
    4276:	02 c0       	rjmp	.+4      	; 0x427c <menueAlarm+0x9a>
    4278:	95 95       	asr	r25
    427a:	87 95       	ror	r24
    427c:	0a 94       	dec	r0
    427e:	e2 f7       	brpl	.-8      	; 0x4278 <menueAlarm+0x96>
    4280:	80 ff       	sbrs	r24, 0
    4282:	17 c0       	rjmp	.+46     	; 0x42b2 <menueAlarm+0xd0>
	{
		strcpy( menueOnOff_struct[0].name , "On  ");
    4284:	80 e9       	ldi	r24, 0x90	; 144
    4286:	90 e0       	ldi	r25, 0x00	; 0
    4288:	fc 01       	movw	r30, r24
    428a:	a0 81       	ld	r26, Z
    428c:	b1 81       	ldd	r27, Z+1	; 0x01
    428e:	26 e0       	ldi	r18, 0x06	; 6
    4290:	e0 e8       	ldi	r30, 0x80	; 128
    4292:	f2 e0       	ldi	r31, 0x02	; 2
    4294:	01 90       	ld	r0, Z+
    4296:	0d 92       	st	X+, r0
    4298:	2a 95       	dec	r18
    429a:	e1 f7       	brne	.-8      	; 0x4294 <menueAlarm+0xb2>
		strcpy( menueOnOff_struct[1].name , "Off %");
    429c:	fc 01       	movw	r30, r24
    429e:	a5 81       	ldd	r26, Z+5	; 0x05
    42a0:	b6 81       	ldd	r27, Z+6	; 0x06
    42a2:	86 e0       	ldi	r24, 0x06	; 6
    42a4:	e6 e8       	ldi	r30, 0x86	; 134
    42a6:	f2 e0       	ldi	r31, 0x02	; 2
    42a8:	01 90       	ld	r0, Z+
    42aa:	0d 92       	st	X+, r0
    42ac:	8a 95       	dec	r24
    42ae:	e1 f7       	brne	.-8      	; 0x42a8 <menueAlarm+0xc6>
    42b0:	16 c0       	rjmp	.+44     	; 0x42de <menueAlarm+0xfc>
	}
	else
	{
		strcpy( menueOnOff_struct[0].name , "On  %");
    42b2:	80 e9       	ldi	r24, 0x90	; 144
    42b4:	90 e0       	ldi	r25, 0x00	; 0
    42b6:	fc 01       	movw	r30, r24
    42b8:	a0 81       	ld	r26, Z
    42ba:	b1 81       	ldd	r27, Z+1	; 0x01
    42bc:	26 e0       	ldi	r18, 0x06	; 6
    42be:	ec e8       	ldi	r30, 0x8C	; 140
    42c0:	f2 e0       	ldi	r31, 0x02	; 2
    42c2:	01 90       	ld	r0, Z+
    42c4:	0d 92       	st	X+, r0
    42c6:	2a 95       	dec	r18
    42c8:	e1 f7       	brne	.-8      	; 0x42c2 <menueAlarm+0xe0>
		strcpy( menueOnOff_struct[1].name , "Off ");
    42ca:	fc 01       	movw	r30, r24
    42cc:	a5 81       	ldd	r26, Z+5	; 0x05
    42ce:	b6 81       	ldd	r27, Z+6	; 0x06
    42d0:	86 e0       	ldi	r24, 0x06	; 6
    42d2:	e2 e9       	ldi	r30, 0x92	; 146
    42d4:	f2 e0       	ldi	r31, 0x02	; 2
    42d6:	01 90       	ld	r0, Z+
    42d8:	0d 92       	st	X+, r0
    42da:	8a 95       	dec	r24
    42dc:	e1 f7       	brne	.-8      	; 0x42d6 <menueAlarm+0xf4>
	}
		
	uint8_t choose	= 0;
	choose = openMenue( menueOnOff_struct , sizeof(menueOnOff_struct) / sizeof(menueOnOff_struct[0]) );
    42de:	62 e0       	ldi	r22, 0x02	; 2
    42e0:	70 e0       	ldi	r23, 0x00	; 0
    42e2:	80 e9       	ldi	r24, 0x90	; 144
    42e4:	90 e0       	ldi	r25, 0x00	; 0
    42e6:	0e 94 8f 1e 	call	0x3d1e	; 0x3d1e <openMenue>
		
	switch( choose )
    42ea:	81 30       	cpi	r24, 0x01	; 1
    42ec:	99 f0       	breq	.+38     	; 0x4314 <menueAlarm+0x132>
    42ee:	20 f0       	brcs	.+8      	; 0x42f8 <menueAlarm+0x116>
    42f0:	8f 3f       	cpi	r24, 0xFF	; 255
    42f2:	09 f4       	brne	.+2      	; 0x42f6 <menueAlarm+0x114>
    42f4:	46 c0       	rjmp	.+140    	; 0x4382 <menueAlarm+0x1a0>
    42f6:	1c c0       	rjmp	.+56     	; 0x4330 <menueAlarm+0x14e>
	{
		case 0:
		{
			alert.enable |= (1<<ret);
    42f8:	e0 e7       	ldi	r30, 0x70	; 112
    42fa:	f4 e0       	ldi	r31, 0x04	; 4
    42fc:	81 e0       	ldi	r24, 0x01	; 1
    42fe:	90 e0       	ldi	r25, 0x00	; 0
    4300:	01 2e       	mov	r0, r17
    4302:	02 c0       	rjmp	.+4      	; 0x4308 <menueAlarm+0x126>
    4304:	88 0f       	add	r24, r24
    4306:	99 1f       	adc	r25, r25
    4308:	0a 94       	dec	r0
    430a:	e2 f7       	brpl	.-8      	; 0x4304 <menueAlarm+0x122>
    430c:	91 81       	ldd	r25, Z+1	; 0x01
    430e:	89 2b       	or	r24, r25
    4310:	81 83       	std	Z+1, r24	; 0x01
		}break;
    4312:	0e c0       	rjmp	.+28     	; 0x4330 <menueAlarm+0x14e>
			
		case 1:
		{
			alert.enable &= ~(1<<ret);
    4314:	e0 e7       	ldi	r30, 0x70	; 112
    4316:	f4 e0       	ldi	r31, 0x04	; 4
    4318:	81 e0       	ldi	r24, 0x01	; 1
    431a:	90 e0       	ldi	r25, 0x00	; 0
    431c:	01 2e       	mov	r0, r17
    431e:	02 c0       	rjmp	.+4      	; 0x4324 <menueAlarm+0x142>
    4320:	88 0f       	add	r24, r24
    4322:	99 1f       	adc	r25, r25
    4324:	0a 94       	dec	r0
    4326:	e2 f7       	brpl	.-8      	; 0x4320 <menueAlarm+0x13e>
    4328:	80 95       	com	r24
    432a:	91 81       	ldd	r25, Z+1	; 0x01
    432c:	89 23       	and	r24, r25
    432e:	81 83       	std	Z+1, r24	; 0x01
	}
	
	/*	Alarmzeiten
	*	Aktuelle Zeiten im EEProm speichern
	*/	
	eeprom_update_byte( &eep.byte8[ ALERT_HOUR_1 + ret ]	, buff[0] );
    4330:	69 81       	ldd	r22, Y+1	; 0x01
    4332:	c5 01       	movw	r24, r10
    4334:	0e 94 89 29 	call	0x5312	; 0x5312 <eeprom_update_byte>
	eeprom_busy_wait();
    4338:	e1 99       	sbic	0x1c, 1	; 28
    433a:	fe cf       	rjmp	.-4      	; 0x4338 <menueAlarm+0x156>
	eeprom_update_byte( &eep.byte8[ ALERT_MINUTE_1 + ret ]  , buff[1] );
    433c:	6a 81       	ldd	r22, Y+2	; 0x02
    433e:	c4 01       	movw	r24, r8
    4340:	0e 94 89 29 	call	0x5312	; 0x5312 <eeprom_update_byte>
	eeprom_busy_wait();
    4344:	e1 99       	sbic	0x1c, 1	; 28
    4346:	fe cf       	rjmp	.-4      	; 0x4344 <menueAlarm+0x162>
	eeprom_update_byte( &eep.byte8[ ALERT ] , alert.enable);
    4348:	60 91 71 04 	lds	r22, 0x0471	; 0x800471 <alert+0x1>
    434c:	85 e0       	ldi	r24, 0x05	; 5
    434e:	90 e0       	ldi	r25, 0x00	; 0
    4350:	0e 94 89 29 	call	0x5312	; 0x5312 <eeprom_update_byte>
	eeprom_busy_wait();
    4354:	e1 99       	sbic	0x1c, 1	; 28
    4356:	fe cf       	rjmp	.-4      	; 0x4354 <menueAlarm+0x172>
	
	/*	Alarmzeiten
	*	Aktuelle Zeiten in den RAM kopieren
	*/
	ram.byte8[ ALERT_HOUR_1 + ret ]		= buff[0];
    4358:	d6 01       	movw	r26, r12
    435a:	ab 58       	subi	r26, 0x8B	; 139
    435c:	bb 4f       	sbci	r27, 0xFB	; 251
    435e:	89 81       	ldd	r24, Y+1	; 0x01
    4360:	8c 93       	st	X, r24
	ram.byte8[ ALERT_MINUTE_1 + ret ]	= buff[1];
    4362:	f7 01       	movw	r30, r14
    4364:	eb 58       	subi	r30, 0x8B	; 139
    4366:	fb 4f       	sbci	r31, 0xFB	; 251
    4368:	8a 81       	ldd	r24, Y+2	; 0x02
    436a:	80 83       	st	Z, r24
	
	
	scroll_display( (const __flash char *)"Gespeichert..!" , SCROLL_SAVE_SPEED );
    436c:	6a e0       	ldi	r22, 0x0A	; 10
    436e:	82 e5       	ldi	r24, 0x52	; 82
    4370:	92 e0       	ldi	r25, 0x02	; 2
    4372:	0e 94 a3 10 	call	0x2146	; 0x2146 <scroll_display>
	
	return ret;
    4376:	81 2f       	mov	r24, r17
    4378:	05 c0       	rjmp	.+10     	; 0x4384 <menueAlarm+0x1a2>
	
	ret = openMenue( menueAlert_struct , sizeof(menueAlert_struct) / sizeof(menueAlert_struct[0]) );
	
	if ( ret == _MENUE_EXIT_ || ret == 9 )
	{
		return ret;
    437a:	8f ef       	ldi	r24, 0xFF	; 255
    437c:	03 c0       	rjmp	.+6      	; 0x4384 <menueAlarm+0x1a2>
    437e:	89 e0       	ldi	r24, 0x09	; 9
    4380:	01 c0       	rjmp	.+2      	; 0x4384 <menueAlarm+0x1a2>
			alert.enable &= ~(1<<ret);
		}break;
		
		case _MENUE_EXIT_:
		{
			return _MENUE_EXIT_;
    4382:	8f ef       	ldi	r24, 0xFF	; 255
	
	
	scroll_display( (const __flash char *)"Gespeichert..!" , SCROLL_SAVE_SPEED );
	
	return ret;
}
    4384:	0f 90       	pop	r0
    4386:	0f 90       	pop	r0
    4388:	0f 90       	pop	r0
    438a:	0f 90       	pop	r0
    438c:	df 91       	pop	r29
    438e:	cf 91       	pop	r28
    4390:	1f 91       	pop	r17
    4392:	ff 90       	pop	r15
    4394:	ef 90       	pop	r14
    4396:	df 90       	pop	r13
    4398:	cf 90       	pop	r12
    439a:	bf 90       	pop	r11
    439c:	af 90       	pop	r10
    439e:	9f 90       	pop	r9
    43a0:	8f 90       	pop	r8
    43a2:	08 95       	ret

000043a4 <menueDCF77Record>:

	return 0;
}

uint8_t menueDCF77Record	( void )
{
    43a4:	1f 93       	push	r17
    43a6:	cf 93       	push	r28
    43a8:	df 93       	push	r29
	sync_state_old = old;
	
	/*clear the old Charakter from Display */
	if (sync_state != sync_state_old)
	{
		ledarray_blank();
    43aa:	0e 94 98 10 	call	0x2130	; 0x2130 <ledarray_blank>
uint8_t menueDCF77Record	( void )
{
	clearDisplay(false,true);
		
	/* default setting */
	ram.byte8[DCF77_NUM_OF_RECORDS] = eeprom_read_byte( &eep.byte8[DCF77_NUM_OF_RECORDS] );
    43ae:	82 e2       	ldi	r24, 0x22	; 34
    43b0:	90 e0       	ldi	r25, 0x00	; 0
    43b2:	0e 94 7b 29 	call	0x52f6	; 0x52f6 <eeprom_read_byte>
    43b6:	80 93 95 04 	sts	0x0495, r24	; 0x800495 <ram+0x20>
		
	putStr( "n.:" , 0 );
    43ba:	60 e0       	ldi	r22, 0x00	; 0
    43bc:	88 e9       	ldi	r24, 0x98	; 152
    43be:	92 e0       	ldi	r25, 0x02	; 2
    43c0:	0e 94 e5 0f 	call	0x1fca	; 0x1fca <putStr>
			uint8ToDisp( ram.byte8[DCF77_NUM_OF_RECORDS] , 21 );
		}
		else if (button.pressed.down)
		{
			button.all = 0;
			ram.byte8[DCF77_NUM_OF_RECORDS] = decDec( ram.byte8[DCF77_NUM_OF_RECORDS] , 10 );
    43c4:	c5 e7       	ldi	r28, 0x75	; 117
    43c6:	d4 e0       	ldi	r29, 0x04	; 4
 
uint8_t decDec					( uint8_t value, uint8_t valueMin )
{	
	if ( (int8_t)--value < 0 )
	{
		value = valueMin;
    43c8:	1a e0       	ldi	r17, 0x0A	; 10
		
	putStr( "n.:" , 0 );
		
	while( 1 )
	{
		if ( button.pressed.up )
    43ca:	80 91 6f 04 	lds	r24, 0x046F	; 0x80046f <button>
    43ce:	83 ff       	sbrs	r24, 3
    43d0:	0c c0       	rjmp	.+24     	; 0x43ea <menueDCF77Record+0x46>
		{
			button.all = 0;
    43d2:	10 92 6f 04 	sts	0x046F, r1	; 0x80046f <button>
	clearDisplay( true , false );
}

uint8_t incDec					( uint8_t value, uint8_t valueMax )
 {	 
	if ( ++value > valueMax )
    43d6:	88 a1       	ldd	r24, Y+32	; 0x20
    43d8:	8f 5f       	subi	r24, 0xFF	; 255
    43da:	8b 30       	cpi	r24, 0x0B	; 11
    43dc:	08 f0       	brcs	.+2      	; 0x43e0 <menueDCF77Record+0x3c>
	{
		value = 0;
    43de:	80 e0       	ldi	r24, 0x00	; 0
	while( 1 )
	{
		if ( button.pressed.up )
		{
			button.all = 0;
			ram.byte8[DCF77_NUM_OF_RECORDS] = incDec( ram.byte8[DCF77_NUM_OF_RECORDS] , 10 );
    43e0:	88 a3       	std	Y+32, r24	; 0x20
			uint8ToDisp( ram.byte8[DCF77_NUM_OF_RECORDS] , 21 );
    43e2:	65 e1       	ldi	r22, 0x15	; 21
    43e4:	0e 94 74 14 	call	0x28e8	; 0x28e8 <uint8ToDisp>
    43e8:	3a c0       	rjmp	.+116    	; 0x445e <menueDCF77Record+0xba>
		}
		else if (button.pressed.down)
    43ea:	80 91 6f 04 	lds	r24, 0x046F	; 0x80046f <button>
    43ee:	82 ff       	sbrs	r24, 2
    43f0:	0b c0       	rjmp	.+22     	; 0x4408 <menueDCF77Record+0x64>
		{
			button.all = 0;
    43f2:	10 92 6f 04 	sts	0x046F, r1	; 0x80046f <button>
	return value;
 }
 
uint8_t decDec					( uint8_t value, uint8_t valueMin )
{	
	if ( (int8_t)--value < 0 )
    43f6:	88 a1       	ldd	r24, Y+32	; 0x20
    43f8:	81 50       	subi	r24, 0x01	; 1
    43fa:	0a f4       	brpl	.+2      	; 0x43fe <menueDCF77Record+0x5a>
	{
		value = valueMin;
    43fc:	81 2f       	mov	r24, r17
			uint8ToDisp( ram.byte8[DCF77_NUM_OF_RECORDS] , 21 );
		}
		else if (button.pressed.down)
		{
			button.all = 0;
			ram.byte8[DCF77_NUM_OF_RECORDS] = decDec( ram.byte8[DCF77_NUM_OF_RECORDS] , 10 );
    43fe:	88 a3       	std	Y+32, r24	; 0x20
			uint8ToDisp( ram.byte8[DCF77_NUM_OF_RECORDS] , 21 );
    4400:	65 e1       	ldi	r22, 0x15	; 21
    4402:	0e 94 74 14 	call	0x28e8	; 0x28e8 <uint8ToDisp>
    4406:	2b c0       	rjmp	.+86     	; 0x445e <menueDCF77Record+0xba>
		}
		else if ( button.pressed.enter )
    4408:	80 91 6f 04 	lds	r24, 0x046F	; 0x80046f <button>
    440c:	84 ff       	sbrs	r24, 4
    440e:	14 c0       	rjmp	.+40     	; 0x4438 <menueDCF77Record+0x94>
		{
			button.all = 0;
    4410:	10 92 6f 04 	sts	0x046F, r1	; 0x80046f <button>
			
		blink2Digit( ram.byte8[DCF77_NUM_OF_RECORDS] , 21 );
			
	}// end while
		
	flag.menueExit = 0;
    4414:	80 91 5d 04 	lds	r24, 0x045D	; 0x80045d <flag>
    4418:	8f 7e       	andi	r24, 0xEF	; 239
    441a:	80 93 5d 04 	sts	0x045D, r24	; 0x80045d <flag>
		
	eeprom_update_byte( &eep.byte8[DCF77_NUM_OF_RECORDS] , ram.byte8[DCF77_NUM_OF_RECORDS] );
    441e:	60 91 95 04 	lds	r22, 0x0495	; 0x800495 <ram+0x20>
    4422:	82 e2       	ldi	r24, 0x22	; 34
    4424:	90 e0       	ldi	r25, 0x00	; 0
    4426:	0e 94 89 29 	call	0x5312	; 0x5312 <eeprom_update_byte>
	scroll_display( (const __flash char *)"Gespeichert..!",SCROLL_SAVE_SPEED);
    442a:	6a e0       	ldi	r22, 0x0A	; 10
    442c:	82 e5       	ldi	r24, 0x52	; 82
    442e:	92 e0       	ldi	r25, 0x02	; 2
    4430:	0e 94 a3 10 	call	0x2146	; 0x2146 <scroll_display>

	return 0;
    4434:	80 e0       	ldi	r24, 0x00	; 0
    4436:	18 c0       	rjmp	.+48     	; 0x4468 <menueDCF77Record+0xc4>
		else if ( button.pressed.enter )
		{
			button.all = 0;
			break;
		}
		else if ( button.pressed.exit || flag.menueExit )
    4438:	80 91 6f 04 	lds	r24, 0x046F	; 0x80046f <button>
    443c:	81 fd       	sbrc	r24, 1
    443e:	04 c0       	rjmp	.+8      	; 0x4448 <menueDCF77Record+0xa4>
    4440:	80 91 5d 04 	lds	r24, 0x045D	; 0x80045d <flag>
    4444:	84 ff       	sbrs	r24, 4
    4446:	0b c0       	rjmp	.+22     	; 0x445e <menueDCF77Record+0xba>
		{
			button.all = 0;
    4448:	10 92 6f 04 	sts	0x046F, r1	; 0x80046f <button>
			flag.menueExit = 0;
    444c:	80 91 5d 04 	lds	r24, 0x045D	; 0x80045d <flag>
    4450:	8f 7e       	andi	r24, 0xEF	; 239
    4452:	80 93 5d 04 	sts	0x045D, r24	; 0x80045d <flag>
	sync_state_old = old;
	
	/*clear the old Charakter from Display */
	if (sync_state != sync_state_old)
	{
		ledarray_blank();
    4456:	0e 94 98 10 	call	0x2130	; 0x2130 <ledarray_blank>
		else if ( button.pressed.exit || flag.menueExit )
		{
			button.all = 0;
			flag.menueExit = 0;
			clearDisplay(false,true);
			return 1;
    445a:	81 e0       	ldi	r24, 0x01	; 1
    445c:	05 c0       	rjmp	.+10     	; 0x4468 <menueDCF77Record+0xc4>
		}
			
		blink2Digit( ram.byte8[DCF77_NUM_OF_RECORDS] , 21 );
    445e:	65 e1       	ldi	r22, 0x15	; 21
    4460:	88 a1       	ldd	r24, Y+32	; 0x20
    4462:	0e 94 94 14 	call	0x2928	; 0x2928 <blink2Digit>
			
	}// end while
    4466:	b1 cf       	rjmp	.-158    	; 0x43ca <menueDCF77Record+0x26>
		
	eeprom_update_byte( &eep.byte8[DCF77_NUM_OF_RECORDS] , ram.byte8[DCF77_NUM_OF_RECORDS] );
	scroll_display( (const __flash char *)"Gespeichert..!",SCROLL_SAVE_SPEED);

	return 0;
}
    4468:	df 91       	pop	r29
    446a:	cf 91       	pop	r28
    446c:	1f 91       	pop	r17
    446e:	08 95       	ret

00004470 <menueSync>:
	
	return 0;
}

uint8_t menueSync			( void )
{
    4470:	0f 93       	push	r16
    4472:	1f 93       	push	r17
    4474:	cf 93       	push	r28
    4476:	df 93       	push	r29
    4478:	cd b7       	in	r28, 0x3d	; 61
    447a:	de b7       	in	r29, 0x3e	; 62
    447c:	61 97       	sbiw	r28, 0x11	; 17
    447e:	0f b6       	in	r0, 0x3f	; 63
    4480:	f8 94       	cli
    4482:	de bf       	out	0x3e, r29	; 62
    4484:	0f be       	out	0x3f, r0	; 63
    4486:	cd bf       	out	0x3d, r28	; 61
	uint8_t ret = 0;
	
	ret = openMenue( menueSync_struct ,  sizeof(menueSync_struct) / sizeof(menueSync_struct[0]) );
    4488:	65 e0       	ldi	r22, 0x05	; 5
    448a:	70 e0       	ldi	r23, 0x00	; 0
    448c:	87 e7       	ldi	r24, 0x77	; 119
    448e:	90 e0       	ldi	r25, 0x00	; 0
    4490:	0e 94 8f 1e 	call	0x3d1e	; 0x3d1e <openMenue>
	
	if ( ret == _MENUE_EXIT_ )
    4494:	8f 3f       	cpi	r24, 0xFF	; 255
    4496:	09 f4       	brne	.+2      	; 0x449a <menueSync+0x2a>
    4498:	78 c0       	rjmp	.+240    	; 0x458a <menueSync+0x11a>
	{
		return ret;
	}
	
	switch( ret )
    449a:	82 30       	cpi	r24, 0x02	; 2
    449c:	a9 f0       	breq	.+42     	; 0x44c8 <menueSync+0x58>
    449e:	28 f4       	brcc	.+10     	; 0x44aa <menueSync+0x3a>
    44a0:	88 23       	and	r24, r24
    44a2:	51 f0       	breq	.+20     	; 0x44b8 <menueSync+0x48>
    44a4:	81 30       	cpi	r24, 0x01	; 1
    44a6:	61 f0       	breq	.+24     	; 0x44c0 <menueSync+0x50>
    44a8:	05 c0       	rjmp	.+10     	; 0x44b4 <menueSync+0x44>
    44aa:	83 30       	cpi	r24, 0x03	; 3
    44ac:	89 f0       	breq	.+34     	; 0x44d0 <menueSync+0x60>
    44ae:	8f 3f       	cpi	r24, 0xFF	; 255
    44b0:	09 f4       	brne	.+2      	; 0x44b4 <menueSync+0x44>
    44b2:	6d c0       	rjmp	.+218    	; 0x458e <menueSync+0x11e>
		{
			return _MENUE_EXIT_;
		}break;
	}
	
	return 0;
    44b4:	80 e0       	ldi	r24, 0x00	; 0
    44b6:	6c c0       	rjmp	.+216    	; 0x4590 <menueSync+0x120>
	
	switch( ret )
	{
		case 0:
		{
			dcf77StartScan();
    44b8:	0e 94 6c 1a 	call	0x34d8	; 0x34d8 <dcf77StartScan>
		{
			return _MENUE_EXIT_;
		}break;
	}
	
	return 0;
    44bc:	80 e0       	ldi	r24, 0x00	; 0
	switch( ret )
	{
		case 0:
		{
			dcf77StartScan();
		}break;
    44be:	68 c0       	rjmp	.+208    	; 0x4590 <menueSync+0x120>
		
		case 1:
		{
			menueSyncTime();
    44c0:	0e 94 42 20 	call	0x4084	; 0x4084 <menueSyncTime>
		{
			return _MENUE_EXIT_;
		}break;
	}
	
	return 0;
    44c4:	80 e0       	ldi	r24, 0x00	; 0
		}break;
		
		case 1:
		{
			menueSyncTime();
		}break;
    44c6:	64 c0       	rjmp	.+200    	; 0x4590 <menueSync+0x120>
		
		case 2:
		{
			menueDCF77Record();
    44c8:	0e 94 d2 21 	call	0x43a4	; 0x43a4 <menueDCF77Record>
		{
			return _MENUE_EXIT_;
		}break;
	}
	
	return 0;
    44cc:	80 e0       	ldi	r24, 0x00	; 0
		}break;
		
		case 2:
		{
			menueDCF77Record();
		}break;
    44ce:	60 c0       	rjmp	.+192    	; 0x4590 <menueSync+0x120>
		
		case 3:
		{
			char buff[17]="";
    44d0:	1a 82       	std	Y+2, r1	; 0x02
    44d2:	19 82       	std	Y+1, r1	; 0x01
    44d4:	fe 01       	movw	r30, r28
    44d6:	33 96       	adiw	r30, 0x03	; 3
    44d8:	8f e0       	ldi	r24, 0x0F	; 15
    44da:	df 01       	movw	r26, r30
    44dc:	1d 92       	st	X+, r1
    44de:	8a 95       	dec	r24
    44e0:	e9 f7       	brne	.-6      	; 0x44dc <menueSync+0x6c>
    } else if (__radix < 2 || __radix > 36) {
	*__s = 0;
	return __s;
    } else {
	extern char *__itoa_ncheck (int, char *, unsigned char);
	return __itoa_ncheck (__val, __s, __radix);
    44e2:	4a e0       	ldi	r20, 0x0A	; 10
    44e4:	8e 01       	movw	r16, r28
    44e6:	0f 5f       	subi	r16, 0xFF	; 255
    44e8:	1f 4f       	sbci	r17, 0xFF	; 255
    44ea:	b8 01       	movw	r22, r16
    44ec:	80 91 75 04 	lds	r24, 0x0475	; 0x800475 <ram>
    44f0:	90 91 76 04 	lds	r25, 0x0476	; 0x800476 <ram+0x1>
    44f4:	0e 94 93 26 	call	0x4d26	; 0x4d26 <__itoa_ncheck>
		
			itoa( err.byte16[SYNC_SUCCESS_CNT] , buff , 10 );
			strcat( buff , " - RX Ok" );
    44f8:	d8 01       	movw	r26, r16
    44fa:	0d 90       	ld	r0, X+
    44fc:	00 20       	and	r0, r0
    44fe:	e9 f7       	brne	.-6      	; 0x44fa <menueSync+0x8a>
    4500:	11 97       	sbiw	r26, 0x01	; 1
    4502:	89 e0       	ldi	r24, 0x09	; 9
    4504:	ec e9       	ldi	r30, 0x9C	; 156
    4506:	f2 e0       	ldi	r31, 0x02	; 2
    4508:	01 90       	ld	r0, Z+
    450a:	0d 92       	st	X+, r0
    450c:	8a 95       	dec	r24
    450e:	e1 f7       	brne	.-8      	; 0x4508 <menueSync+0x98>
			scroll_display( buff , 30 );
    4510:	6e e1       	ldi	r22, 0x1E	; 30
    4512:	c8 01       	movw	r24, r16
    4514:	0e 94 a3 10 	call	0x2146	; 0x2146 <scroll_display>
    4518:	4a e0       	ldi	r20, 0x0A	; 10
    451a:	b8 01       	movw	r22, r16
    451c:	80 91 73 04 	lds	r24, 0x0473	; 0x800473 <err>
    4520:	90 91 74 04 	lds	r25, 0x0474	; 0x800474 <err+0x1>
    4524:	0e 94 93 26 	call	0x4d26	; 0x4d26 <__itoa_ncheck>

			itoa( err.byte16[SYNC_ERROR_CNT] , buff , 10 );
			strcat( buff , " - RX Err." );
    4528:	d8 01       	movw	r26, r16
    452a:	0d 90       	ld	r0, X+
    452c:	00 20       	and	r0, r0
    452e:	e9 f7       	brne	.-6      	; 0x452a <menueSync+0xba>
    4530:	11 97       	sbiw	r26, 0x01	; 1
    4532:	8b e0       	ldi	r24, 0x0B	; 11
    4534:	e5 ea       	ldi	r30, 0xA5	; 165
    4536:	f2 e0       	ldi	r31, 0x02	; 2
    4538:	01 90       	ld	r0, Z+
    453a:	0d 92       	st	X+, r0
    453c:	8a 95       	dec	r24
    453e:	e1 f7       	brne	.-8      	; 0x4538 <menueSync+0xc8>
			scroll_display( buff , 30 );
    4540:	6e e1       	ldi	r22, 0x1E	; 30
    4542:	c8 01       	movw	r24, r16
    4544:	0e 94 a3 10 	call	0x2146	; 0x2146 <scroll_display>
			
			if ( SWITCH_MENUE_PRESSED )
    4548:	9a 99       	sbic	0x13, 2	; 19
    454a:	1d c0       	rjmp	.+58     	; 0x4586 <menueSync+0x116>
			{
				err.byte16[SYNC_SUCCESS_CNT]	= 0;
    454c:	10 92 76 04 	sts	0x0476, r1	; 0x800476 <ram+0x1>
    4550:	10 92 75 04 	sts	0x0475, r1	; 0x800475 <ram>
				err.byte16[SYNC_ERROR_CNT]	= 0; 
    4554:	10 92 74 04 	sts	0x0474, r1	; 0x800474 <err+0x1>
    4558:	10 92 73 04 	sts	0x0473, r1	; 0x800473 <err>
				eeprom_write_word( &erreep.byte16[SYNC_ERROR_CNT], 0 );
    455c:	60 e0       	ldi	r22, 0x00	; 0
    455e:	70 e0       	ldi	r23, 0x00	; 0
    4560:	80 e0       	ldi	r24, 0x00	; 0
    4562:	90 e0       	ldi	r25, 0x00	; 0
    4564:	0e 94 ad 29 	call	0x535a	; 0x535a <eeprom_write_word>
				eeprom_busy_wait();
    4568:	e1 99       	sbic	0x1c, 1	; 28
    456a:	fe cf       	rjmp	.-4      	; 0x4568 <menueSync+0xf8>
				eeprom_write_word( &erreep.byte16[SYNC_SUCCESS_CNT] , 0);
    456c:	60 e0       	ldi	r22, 0x00	; 0
    456e:	70 e0       	ldi	r23, 0x00	; 0
    4570:	82 e0       	ldi	r24, 0x02	; 2
    4572:	90 e0       	ldi	r25, 0x00	; 0
    4574:	0e 94 ad 29 	call	0x535a	; 0x535a <eeprom_write_word>
				eeprom_busy_wait();
    4578:	e1 99       	sbic	0x1c, 1	; 28
    457a:	fe cf       	rjmp	.-4      	; 0x4578 <menueSync+0x108>
				scroll_display( "Geloescht.." , INFO_SCROLL_SPEED );
    457c:	64 e1       	ldi	r22, 0x14	; 20
    457e:	80 eb       	ldi	r24, 0xB0	; 176
    4580:	92 e0       	ldi	r25, 0x02	; 2
    4582:	0e 94 a3 10 	call	0x2146	; 0x2146 <scroll_display>
		{
			return _MENUE_EXIT_;
		}break;
	}
	
	return 0;
    4586:	80 e0       	ldi	r24, 0x00	; 0
				eeprom_write_word( &erreep.byte16[SYNC_SUCCESS_CNT] , 0);
				eeprom_busy_wait();
				scroll_display( "Geloescht.." , INFO_SCROLL_SPEED );
			}
			
		}break;
    4588:	03 c0       	rjmp	.+6      	; 0x4590 <menueSync+0x120>
	
	ret = openMenue( menueSync_struct ,  sizeof(menueSync_struct) / sizeof(menueSync_struct[0]) );
	
	if ( ret == _MENUE_EXIT_ )
	{
		return ret;
    458a:	8f ef       	ldi	r24, 0xFF	; 255
    458c:	01 c0       	rjmp	.+2      	; 0x4590 <menueSync+0x120>
			
		}break;
		
		case _MENUE_EXIT_:
		{
			return _MENUE_EXIT_;
    458e:	8f ef       	ldi	r24, 0xFF	; 255
		}break;
	}
	
	return 0;
}
    4590:	61 96       	adiw	r28, 0x11	; 17
    4592:	0f b6       	in	r0, 0x3f	; 63
    4594:	f8 94       	cli
    4596:	de bf       	out	0x3e, r29	; 62
    4598:	0f be       	out	0x3f, r0	; 63
    459a:	cd bf       	out	0x3d, r28	; 61
    459c:	df 91       	pop	r29
    459e:	cf 91       	pop	r28
    45a0:	1f 91       	pop	r17
    45a2:	0f 91       	pop	r16
    45a4:	08 95       	ret

000045a6 <main>:
	uint8_t oldSyncTime = 0;
	
	/*	Ausgnge
	*	Ausgnge konfigurieren
	*/
	DDRD |= ((1<<PD1) | (1<<PD4) | (1<<PD5) | (1<<PD6) | (1<<PD7));
    45a6:	81 b3       	in	r24, 0x11	; 17
    45a8:	82 6f       	ori	r24, 0xF2	; 242
    45aa:	81 bb       	out	0x11, r24	; 17
	DDRC |= (1<<PC0);
    45ac:	a0 9a       	sbi	0x14, 0	; 20
	DDRB |= ((1<<PB3) | (1<<PB4));
    45ae:	87 b3       	in	r24, 0x17	; 23
    45b0:	88 61       	ori	r24, 0x18	; 24
    45b2:	87 bb       	out	0x17, r24	; 23
	
	/*	Eingnge / Ausgnge
	*	Anfangszustnde der Pins festlegen
	*/
	PORTC |= ((1<<PC2) | (1<<PC3) | (1<<PC4) | (1<<PC5) | (1<<PC6));
    45b4:	85 b3       	in	r24, 0x15	; 21
    45b6:	8c 67       	ori	r24, 0x7C	; 124
    45b8:	85 bb       	out	0x15, r24	; 21
	PORTB |= (1<<PB2);
    45ba:	c2 9a       	sbi	0x18, 2	; 24
	PORTD |= ((1<<PD5));
    45bc:	95 9a       	sbi	0x12, 5	; 18
		
	/*	Timer 0 
	*	Wird auf CompareMatch eingestellt
	*	Auslseintervall.: 10ms
	*/
	TCCR0	|= ((1<<CS02) | (1<<CS00) | (1<<WGM01)); // Prescaler : 1024 
    45be:	83 b7       	in	r24, 0x33	; 51
    45c0:	8d 60       	ori	r24, 0x0D	; 13
    45c2:	83 bf       	out	0x33, r24	; 51
	TIMSK   |= ((1<<OCIE0) | (1<<OCIE2));
    45c4:	89 b7       	in	r24, 0x39	; 57
    45c6:	82 68       	ori	r24, 0x82	; 130
    45c8:	89 bf       	out	0x39, r24	; 57
	OCR0	 = ((F_CPU / 1024 / 100 ) - 1 );
    45ca:	8b e9       	ldi	r24, 0x9B	; 155
    45cc:	8c bf       	out	0x3c, r24	; 60
	
	/*	Timer 2 
	*	Wird auf CompareMatch eingestellt
	*	Auslseintervall.: 1ms
	*/
	TCCR2  |= ((1<<CS22) | (1<<WGM21)); // Prescaler : 64
    45ce:	85 b5       	in	r24, 0x25	; 37
    45d0:	8c 60       	ori	r24, 0x0C	; 12
    45d2:	85 bd       	out	0x25, r24	; 37
	OCR2   = ((F_CPU / 64 / 1000 ) - 1 ); 
    45d4:	89 ef       	ldi	r24, 0xF9	; 249
    45d6:	83 bd       	out	0x23, r24	; 35
	
    /*	Interrupts
	*	Globale Interrupts aktivieren
	*/
    sei();
    45d8:	78 94       	sei
	
	loadeep		();
    45da:	0e 94 c5 1d 	call	0x3b8a	; 0x3b8a <loadeep>
	i2c_init	();
    45de:	0e 94 c9 01 	call	0x392	; 0x392 <i2c_init>
	bmp180Init	();
    45e2:	0e 94 a2 06 	call	0xd44	; 0xd44 <bmp180Init>

	/*	Uhrzeit
	*	Zum Systemstart das erste mal die Uhrzeit lesen
	*/
	rtcGetData(&rx8564);
    45e6:	81 e5       	ldi	r24, 0x51	; 81
    45e8:	94 e0       	ldi	r25, 0x04	; 4
    45ea:	0e 94 27 0c 	call	0x184e	; 0x184e <rtcGetData>
	sys.cmpOldHour = rx8564.hour;
    45ee:	80 91 53 04 	lds	r24, 0x0453	; 0x800453 <rx8564+0x2>
    45f2:	80 93 6a 04 	sts	0x046A, r24	; 0x80046a <sys+0xc>
	
	ht1632c_init	( ram.byte8[BRIGHT]		);
    45f6:	80 91 7a 04 	lds	r24, 0x047A	; 0x80047a <ram+0x5>
    45fa:	0e 94 cf 0a 	call	0x159e	; 0x159e <ht1632c_init>
	scroll_display	("Start Super Clokk", 10);
    45fe:	6a e0       	ldi	r22, 0x0A	; 10
    4600:	8c eb       	ldi	r24, 0xBC	; 188
    4602:	92 e0       	ldi	r25, 0x02	; 2
    4604:	0e 94 a3 10 	call	0x2146	; 0x2146 <scroll_display>
	scroll_display	( buildVer() , 20		);
    4608:	0e 94 a7 06 	call	0xd4e	; 0xd4e <buildVer>
    460c:	64 e1       	ldi	r22, 0x14	; 20
    460e:	0e 94 a3 10 	call	0x2146	; 0x2146 <scroll_display>
	sync_state_old = old;
	
	/*clear the old Charakter from Display */
	if (sync_state != sync_state_old)
	{
		ledarray_blank();
    4612:	0e 94 98 10 	call	0x2130	; 0x2130 <ledarray_blank>
	scroll_display	("Start Super Clokk", 10);
	scroll_display	( buildVer() , 20		);
	clearDisplay	( true , false			);


	if ( !flag.isInit )
    4616:	80 91 5d 04 	lds	r24, 0x045D	; 0x80045d <flag>
    461a:	86 fd       	sbrc	r24, 6
    461c:	2c c0       	rjmp	.+88     	; 0x4676 <main+0xd0>
	{
		scroll_display( "Default Werte werden geladen.." , INFO_SCROLL_SPEED );
    461e:	64 e1       	ldi	r22, 0x14	; 20
    4620:	8e ec       	ldi	r24, 0xCE	; 206
    4622:	92 e0       	ldi	r25, 0x02	; 2
    4624:	0e 94 a3 10 	call	0x2146	; 0x2146 <scroll_display>
		for (uint8_t i = 0 ; i < 32 ; i++ )
    4628:	c0 e0       	ldi	r28, 0x00	; 0
		{
			putChar( '|' , i );
    462a:	6c 2f       	mov	r22, r28
    462c:	8c e7       	ldi	r24, 0x7C	; 124
    462e:	0e 94 e8 0e 	call	0x1dd0	; 0x1dd0 <putChar>
    4632:	2f ef       	ldi	r18, 0xFF	; 255
    4634:	82 e5       	ldi	r24, 0x52	; 82
    4636:	97 e0       	ldi	r25, 0x07	; 7
    4638:	21 50       	subi	r18, 0x01	; 1
    463a:	80 40       	sbci	r24, 0x00	; 0
    463c:	90 40       	sbci	r25, 0x00	; 0
    463e:	e1 f7       	brne	.-8      	; 0x4638 <main+0x92>
    4640:	00 c0       	rjmp	.+0      	; 0x4642 <main+0x9c>
    4642:	00 00       	nop


	if ( !flag.isInit )
	{
		scroll_display( "Default Werte werden geladen.." , INFO_SCROLL_SPEED );
		for (uint8_t i = 0 ; i < 32 ; i++ )
    4644:	cf 5f       	subi	r28, 0xFF	; 255
    4646:	c0 32       	cpi	r28, 0x20	; 32
    4648:	81 f7       	brne	.-32     	; 0x462a <main+0x84>
			putChar( '|' , i );
			_delay_ms(150);
		}
		for (uint8_t i = 32 ; i > 0 ; i-- )
		{
			putChar( ' ' , i );
    464a:	6c 2f       	mov	r22, r28
    464c:	80 e2       	ldi	r24, 0x20	; 32
    464e:	0e 94 e8 0e 	call	0x1dd0	; 0x1dd0 <putChar>
    4652:	ef ef       	ldi	r30, 0xFF	; 255
    4654:	f0 e7       	ldi	r31, 0x70	; 112
    4656:	22 e0       	ldi	r18, 0x02	; 2
    4658:	e1 50       	subi	r30, 0x01	; 1
    465a:	f0 40       	sbci	r31, 0x00	; 0
    465c:	20 40       	sbci	r18, 0x00	; 0
    465e:	e1 f7       	brne	.-8      	; 0x4658 <main+0xb2>
    4660:	00 c0       	rjmp	.+0      	; 0x4662 <main+0xbc>
    4662:	00 00       	nop
		for (uint8_t i = 0 ; i < 32 ; i++ )
		{
			putChar( '|' , i );
			_delay_ms(150);
		}
		for (uint8_t i = 32 ; i > 0 ; i-- )
    4664:	c1 50       	subi	r28, 0x01	; 1
    4666:	89 f7       	brne	.-30     	; 0x464a <main+0xa4>
	sync_state_old = old;
	
	/*clear the old Charakter from Display */
	if (sync_state != sync_state_old)
	{
		ledarray_blank();
    4668:	0e 94 98 10 	call	0x2130	; 0x2130 <ledarray_blank>
			putChar( ' ' , i );
			_delay_ms(50);
		}
		
		clearDisplay( true , false );
		flag.isInit = 1;
    466c:	80 91 5d 04 	lds	r24, 0x045D	; 0x80045d <flag>
    4670:	80 64       	ori	r24, 0x40	; 64
    4672:	80 93 5d 04 	sts	0x045D, r24	; 0x80045d <flag>
	}

 	syncDCF		= false;
    4676:	10 92 09 04 	sts	0x0409, r1	; 0x800409 <syncDCF>
  	dcfNewData	= 0;
    467a:	10 92 0b 04 	sts	0x040B, r1	; 0x80040b <dcfNewData>
			
	/*	Tasten Entprellen
	*	Sollte beim Systemstart eine Taste gedrckt wurden sein,
	*	lschen wir diese nach main()
	*/
	button.all = 0;
    467e:	10 92 6f 04 	sts	0x046F, r1	; 0x80046f <button>
	
	/*	Status LED
	*	Status Leuchtdiode ausschalten
	*/
	HEARTBEAT_LED_OFF;
    4682:	94 9a       	sbi	0x12, 4	; 18
{	
	/*	DCF77 Abgleich
	*	Mit der Variable werden die verstrichenen Minuten gezhlt 
	*	bis zur nchsten Synchronisation
	*/
	uint8_t oldSyncTime = 0;
    4684:	d1 2c       	mov	r13, r1
		}
		
		doublePointOn();
		putTimertcBcdToDec( rx8564.hour , rx8564.minute );		

		sys.autoChangeNew = rx8564.second;
    4686:	ce e5       	ldi	r28, 0x5E	; 94
    4688:	d4 e0       	ldi	r29, 0x04	; 4
					sys.autoChangeMin = 0;
				}
			}
		}
		
		if ( ( sys.autoChangeSec >= ram.byte8[AUTO_CHANGE_SECOUND] ) && ( sys.autoChangeMin >= ram.byte8[AUTO_CHANGE_MINUTE] ) )
    468a:	0f 2e       	mov	r0, r31
    468c:	f5 e7       	ldi	r31, 0x75	; 117
    468e:	ef 2e       	mov	r14, r31
    4690:	f4 e0       	ldi	r31, 0x04	; 4
    4692:	ff 2e       	mov	r15, r31
    4694:	f0 2d       	mov	r31, r0
    4696:	03 c0       	rjmp	.+6      	; 0x469e <main+0xf8>
		}	
		
		/*
		*	Zhler fr die automatische Synchronisation
		*/
		if (oldSyncTime != rx8564.minute )
    4698:	d8 2e       	mov	r13, r24
    469a:	01 c0       	rjmp	.+2      	; 0x469e <main+0xf8>
{	
	/*	DCF77 Abgleich
	*	Mit der Variable werden die verstrichenen Minuten gezhlt 
	*	bis zur nchsten Synchronisation
	*/
	uint8_t oldSyncTime = 0;
    469c:	d8 2e       	mov	r13, r24
	*/
	HEARTBEAT_LED_OFF;
	
    while( 1 )
    {
		alarmRoutine();
    469e:	0e 94 6a 17 	call	0x2ed4	; 0x2ed4 <alarmRoutine>
		compareAutoDimm();
    46a2:	0e 94 2e 18 	call	0x305c	; 0x305c <compareAutoDimm>
			
		if ( button.pressed.down )
    46a6:	80 91 6f 04 	lds	r24, 0x046F	; 0x80046f <button>
    46aa:	82 ff       	sbrs	r24, 2
    46ac:	0a c0       	rjmp	.+20     	; 0x46c2 <main+0x11c>
		{		
			button.all = 0;
    46ae:	10 92 6f 04 	sts	0x046F, r1	; 0x80046f <button>
			scrollDate( &rx8564 , TEMP_PRESS_DATE_SCROLL_SPEED);
    46b2:	64 e1       	ldi	r22, 0x14	; 20
    46b4:	81 e5       	ldi	r24, 0x51	; 81
    46b6:	94 e0       	ldi	r25, 0x04	; 4
    46b8:	0e 94 5f 12 	call	0x24be	; 0x24be <scrollDate>
			button.all = 0;
    46bc:	10 92 6f 04 	sts	0x046F, r1	; 0x80046f <button>
    46c0:	30 c0       	rjmp	.+96     	; 0x4722 <main+0x17c>
		}							
		else if ( button.pressed.up )
    46c2:	80 91 6f 04 	lds	r24, 0x046F	; 0x80046f <button>
    46c6:	83 ff       	sbrs	r24, 3
    46c8:	08 c0       	rjmp	.+16     	; 0x46da <main+0x134>
		{
			button.all = 0;
    46ca:	10 92 6f 04 	sts	0x046F, r1	; 0x80046f <button>
 			scrollTemperature(TEMP_PRESS_DATE_SCROLL_SPEED);
    46ce:	84 e1       	ldi	r24, 0x14	; 20
    46d0:	0e 94 62 13 	call	0x26c4	; 0x26c4 <scrollTemperature>
			button.all = 0;
    46d4:	10 92 6f 04 	sts	0x046F, r1	; 0x80046f <button>
    46d8:	24 c0       	rjmp	.+72     	; 0x4722 <main+0x17c>
		}
		else if ( button.pressed.enter )
    46da:	80 91 6f 04 	lds	r24, 0x046F	; 0x80046f <button>
    46de:	84 ff       	sbrs	r24, 4
    46e0:	08 c0       	rjmp	.+16     	; 0x46f2 <main+0x14c>
		{
			button.all = 0;
    46e2:	10 92 6f 04 	sts	0x046F, r1	; 0x80046f <button>
 			scrollPressure(TEMP_PRESS_DATE_SCROLL_SPEED);
    46e6:	84 e1       	ldi	r24, 0x14	; 20
    46e8:	0e 94 00 14 	call	0x2800	; 0x2800 <scrollPressure>
			button.all = 0;
    46ec:	10 92 6f 04 	sts	0x046F, r1	; 0x80046f <button>
    46f0:	18 c0       	rjmp	.+48     	; 0x4722 <main+0x17c>
		}	
		else if ( button.pressed.menue )
    46f2:	80 91 6f 04 	lds	r24, 0x046F	; 0x80046f <button>
    46f6:	80 ff       	sbrs	r24, 0
    46f8:	14 c0       	rjmp	.+40     	; 0x4722 <main+0x17c>
		{
			uint8_t index = 0;
			
			button.all = 0;
    46fa:	10 92 6f 04 	sts	0x046F, r1	; 0x80046f <button>
			
			while( ( index != _MENUE_EXIT_ ) && ( flag.alertEnable == 0 ) )
    46fe:	80 91 5d 04 	lds	r24, 0x045D	; 0x80045d <flag>
    4702:	82 fd       	sbrc	r24, 2
    4704:	0c c0       	rjmp	.+24     	; 0x471e <main+0x178>
			{
				index = openMenue( menue_struct , sizeof(menue_struct) / sizeof(menue_struct[0]) );
    4706:	6c e0       	ldi	r22, 0x0C	; 12
    4708:	70 e0       	ldi	r23, 0x00	; 0
    470a:	8b ed       	ldi	r24, 0xDB	; 219
    470c:	90 e0       	ldi	r25, 0x00	; 0
    470e:	0e 94 8f 1e 	call	0x3d1e	; 0x3d1e <openMenue>
		{
			uint8_t index = 0;
			
			button.all = 0;
			
			while( ( index != _MENUE_EXIT_ ) && ( flag.alertEnable == 0 ) )
    4712:	8f 3f       	cpi	r24, 0xFF	; 255
    4714:	21 f0       	breq	.+8      	; 0x471e <main+0x178>
    4716:	80 91 5d 04 	lds	r24, 0x045D	; 0x80045d <flag>
    471a:	82 ff       	sbrs	r24, 2
    471c:	f4 cf       	rjmp	.-24     	; 0x4706 <main+0x160>
			{
				index = openMenue( menue_struct , sizeof(menue_struct) / sizeof(menue_struct[0]) );
			}
			
			button.all = 0;
    471e:	10 92 6f 04 	sts	0x046F, r1	; 0x80046f <button>
		}
		
		doublePointOn();
    4722:	0e 94 13 10 	call	0x2026	; 0x2026 <doublePointOn>
		putTimertcBcdToDec( rx8564.hour , rx8564.minute );		
    4726:	01 e5       	ldi	r16, 0x51	; 81
    4728:	14 e0       	ldi	r17, 0x04	; 4
    472a:	f8 01       	movw	r30, r16
    472c:	61 81       	ldd	r22, Z+1	; 0x01
    472e:	82 81       	ldd	r24, Z+2	; 0x02
    4730:	0e 94 6f 0f 	call	0x1ede	; 0x1ede <putTimertcBcdToDec>

		sys.autoChangeNew = rx8564.second;
    4734:	f8 01       	movw	r30, r16
    4736:	80 81       	ld	r24, Z
    4738:	8f 83       	std	Y+7, r24	; 0x07
		if ( sys.autoChangeNew != sys.autoChangeOld)
    473a:	9f 81       	ldd	r25, Y+7	; 0x07
    473c:	8e 81       	ldd	r24, Y+6	; 0x06
    473e:	98 17       	cp	r25, r24
    4740:	91 f0       	breq	.+36     	; 0x4766 <main+0x1c0>
		{
			sys.autoChangeOld = sys.autoChangeNew;
    4742:	8f 81       	ldd	r24, Y+7	; 0x07
    4744:	8e 83       	std	Y+6, r24	; 0x06
			if (sys.autoChangeSec < 59)
    4746:	8a 81       	ldd	r24, Y+2	; 0x02
    4748:	8b 33       	cpi	r24, 0x3B	; 59
    474a:	20 f4       	brcc	.+8      	; 0x4754 <main+0x1ae>
			{
				sys.autoChangeSec++;
    474c:	8a 81       	ldd	r24, Y+2	; 0x02
    474e:	8f 5f       	subi	r24, 0xFF	; 255
    4750:	8a 83       	std	Y+2, r24	; 0x02
    4752:	09 c0       	rjmp	.+18     	; 0x4766 <main+0x1c0>
			}
			else
			{
				sys.autoChangeSec = 0;
    4754:	1a 82       	std	Y+2, r1	; 0x02
				if (sys.autoChangeMin < 59)
    4756:	8b 81       	ldd	r24, Y+3	; 0x03
    4758:	8b 33       	cpi	r24, 0x3B	; 59
    475a:	20 f4       	brcc	.+8      	; 0x4764 <main+0x1be>
				{
					sys.autoChangeMin++;
    475c:	8b 81       	ldd	r24, Y+3	; 0x03
    475e:	8f 5f       	subi	r24, 0xFF	; 255
    4760:	8b 83       	std	Y+3, r24	; 0x03
    4762:	01 c0       	rjmp	.+2      	; 0x4766 <main+0x1c0>
				}
				else
				{
					sys.autoChangeMin = 0;
    4764:	1b 82       	std	Y+3, r1	; 0x03
				}
			}
		}
		
		if ( ( sys.autoChangeSec >= ram.byte8[AUTO_CHANGE_SECOUND] ) && ( sys.autoChangeMin >= ram.byte8[AUTO_CHANGE_MINUTE] ) )
    4766:	9a 81       	ldd	r25, Y+2	; 0x02
    4768:	f7 01       	movw	r30, r14
    476a:	83 85       	ldd	r24, Z+11	; 0x0b
    476c:	98 17       	cp	r25, r24
    476e:	08 f1       	brcs	.+66     	; 0x47b2 <main+0x20c>
    4770:	9b 81       	ldd	r25, Y+3	; 0x03
    4772:	82 85       	ldd	r24, Z+10	; 0x0a
    4774:	98 17       	cp	r25, r24
    4776:	e8 f0       	brcs	.+58     	; 0x47b2 <main+0x20c>
    4778:	18 e0       	ldi	r17, 0x08	; 8
		{
			for (uint8_t x = 0 ; x < 8 ; x++)
			{
				sys.autoChangeMin = 0;
    477a:	1b 82       	std	Y+3, r1	; 0x03
				sys.autoChangeSec = 0;
    477c:	1a 82       	std	Y+2, r1	; 0x02
				button.all = 0;
    477e:	10 92 6f 04 	sts	0x046F, r1	; 0x80046f <button>
				ledarray_shift_up();
    4782:	0e 94 57 0e 	call	0x1cae	; 0x1cae <ledarray_shift_up>
    4786:	ff ef       	ldi	r31, 0xFF	; 255
    4788:	21 ee       	ldi	r18, 0xE1	; 225
    478a:	84 e0       	ldi	r24, 0x04	; 4
    478c:	f1 50       	subi	r31, 0x01	; 1
    478e:	20 40       	sbci	r18, 0x00	; 0
    4790:	80 40       	sbci	r24, 0x00	; 0
    4792:	e1 f7       	brne	.-8      	; 0x478c <main+0x1e6>
    4794:	00 c0       	rjmp	.+0      	; 0x4796 <main+0x1f0>
    4796:	00 00       	nop
    4798:	11 50       	subi	r17, 0x01	; 1
			}
		}
		
		if ( ( sys.autoChangeSec >= ram.byte8[AUTO_CHANGE_SECOUND] ) && ( sys.autoChangeMin >= ram.byte8[AUTO_CHANGE_MINUTE] ) )
		{
			for (uint8_t x = 0 ; x < 8 ; x++)
    479a:	79 f7       	brne	.-34     	; 0x477a <main+0x1d4>
				button.all = 0;
				ledarray_shift_up();
				_delay_ms(100);
			}// end for
						
			scrollDate( &rx8564 , TEMP_PRESS_DATE_SCROLL_SPEED);
    479c:	64 e1       	ldi	r22, 0x14	; 20
    479e:	81 e5       	ldi	r24, 0x51	; 81
    47a0:	94 e0       	ldi	r25, 0x04	; 4
    47a2:	0e 94 5f 12 	call	0x24be	; 0x24be <scrollDate>
			scrollTemperature (TEMP_PRESS_DATE_SCROLL_SPEED);
    47a6:	84 e1       	ldi	r24, 0x14	; 20
    47a8:	0e 94 62 13 	call	0x26c4	; 0x26c4 <scrollTemperature>
			scrollPressure(TEMP_PRESS_DATE_SCROLL_SPEED);
    47ac:	84 e1       	ldi	r24, 0x14	; 20
    47ae:	0e 94 00 14 	call	0x2800	; 0x2800 <scrollPressure>
				
		/*	Zeitsynchronisation
		*	Kann im "Men" -> "Sync?" -> "-Cycl." eingestellt werden
		*	...
		*/			
		if ( ( sys.syncHourCntDCF77 >= ram.byte8[SYNC_HOUR] ) && ( sys.syncMinuteCntDCF77 >= ( ram.byte8[SYNC_MINUTE] ) ) )
    47b2:	99 81       	ldd	r25, Y+1	; 0x01
    47b4:	f7 01       	movw	r30, r14
    47b6:	80 85       	ldd	r24, Z+8	; 0x08
    47b8:	98 17       	cp	r25, r24
    47ba:	48 f0       	brcs	.+18     	; 0x47ce <main+0x228>
    47bc:	98 81       	ld	r25, Y
    47be:	81 85       	ldd	r24, Z+9	; 0x09
    47c0:	98 17       	cp	r25, r24
    47c2:	28 f0       	brcs	.+10     	; 0x47ce <main+0x228>
		{			
			dcf77StartScan();
    47c4:	0e 94 6c 1a 	call	0x34d8	; 0x34d8 <dcf77StartScan>
			oldSyncTime	= rx8564.minute;
    47c8:	80 91 52 04 	lds	r24, 0x0452	; 0x800452 <rx8564+0x1>
    47cc:	67 cf       	rjmp	.-306    	; 0x469c <main+0xf6>
		}	
		
		/*
		*	Zhler fr die automatische Synchronisation
		*/
		if (oldSyncTime != rx8564.minute )
    47ce:	80 91 52 04 	lds	r24, 0x0452	; 0x800452 <rx8564+0x1>
    47d2:	d8 16       	cp	r13, r24
    47d4:	09 f4       	brne	.+2      	; 0x47d8 <main+0x232>
    47d6:	62 cf       	rjmp	.-316    	; 0x469c <main+0xf6>
		{
			oldSyncTime = rx8564.minute;
			if (sys.syncMinuteCntDCF77 < 59)
    47d8:	98 81       	ld	r25, Y
    47da:	9b 33       	cpi	r25, 0x3B	; 59
    47dc:	20 f4       	brcc	.+8      	; 0x47e6 <main+0x240>
			{
				sys.syncMinuteCntDCF77++;
    47de:	98 81       	ld	r25, Y
    47e0:	9f 5f       	subi	r25, 0xFF	; 255
    47e2:	98 83       	st	Y, r25
    47e4:	59 cf       	rjmp	.-334    	; 0x4698 <main+0xf2>
			}
			else
			{
				sys.syncMinuteCntDCF77 = 0;
    47e6:	18 82       	st	Y, r1
				sys.syncHourCntDCF77++;
    47e8:	99 81       	ldd	r25, Y+1	; 0x01
    47ea:	9f 5f       	subi	r25, 0xFF	; 255
    47ec:	99 83       	std	Y+1, r25	; 0x01
    47ee:	54 cf       	rjmp	.-344    	; 0x4698 <main+0xf2>

000047f0 <__vector_10>:

/*
*	Aufrufintervall.: 10ms
*/
ISR( TIMER0_COMP_vect )
{			
    47f0:	1f 92       	push	r1
    47f2:	0f 92       	push	r0
    47f4:	0f b6       	in	r0, 0x3f	; 63
    47f6:	0f 92       	push	r0
    47f8:	11 24       	eor	r1, r1
    47fa:	2f 93       	push	r18
    47fc:	3f 93       	push	r19
    47fe:	4f 93       	push	r20
    4800:	5f 93       	push	r21
    4802:	6f 93       	push	r22
    4804:	7f 93       	push	r23
    4806:	8f 93       	push	r24
    4808:	9f 93       	push	r25
    480a:	af 93       	push	r26
    480c:	bf 93       	push	r27
    480e:	ef 93       	push	r30
    4810:	ff 93       	push	r31
	static uint8_t delay = 0;
	static uint16_t newHourDelay = 0;
		
	if ( ++delay >= 40 )
    4812:	80 91 e0 03 	lds	r24, 0x03E0	; 0x8003e0 <delay.3735>
    4816:	8f 5f       	subi	r24, 0xFF	; 255
    4818:	80 93 e0 03 	sts	0x03E0, r24	; 0x8003e0 <delay.3735>
    481c:	88 32       	cpi	r24, 0x28	; 40
    481e:	20 f0       	brcs	.+8      	; 0x4828 <__vector_10+0x38>
	{
		compareTime();	
    4820:	0e 94 b9 16 	call	0x2d72	; 0x2d72 <compareTime>
		delay = 0x00;	
    4824:	10 92 e0 03 	sts	0x03E0, r1	; 0x8003e0 <delay.3735>
	}

	if ( ! ( dcf77ScanIsActive ) )
    4828:	80 91 08 04 	lds	r24, 0x0408	; 0x800408 <dcf77ScanIsActive>
    482c:	81 11       	cpse	r24, r1
    482e:	19 c0       	rjmp	.+50     	; 0x4862 <__vector_10+0x72>
	{	
		if ( sys.menueTimeout++ >= 500 )
    4830:	ee e5       	ldi	r30, 0x5E	; 94
    4832:	f4 e0       	ldi	r31, 0x04	; 4
    4834:	87 85       	ldd	r24, Z+15	; 0x0f
    4836:	90 89       	ldd	r25, Z+16	; 0x10
    4838:	9c 01       	movw	r18, r24
    483a:	2f 5f       	subi	r18, 0xFF	; 255
    483c:	3f 4f       	sbci	r19, 0xFF	; 255
    483e:	30 8b       	std	Z+16, r19	; 0x10
    4840:	27 87       	std	Z+15, r18	; 0x0f
    4842:	84 3f       	cpi	r24, 0xF4	; 244
    4844:	91 40       	sbci	r25, 0x01	; 1
    4846:	48 f0       	brcs	.+18     	; 0x485a <__vector_10+0x6a>
		{
			sys.menueTimeout	= 0;
    4848:	10 92 6e 04 	sts	0x046E, r1	; 0x80046e <sys+0x10>
    484c:	10 92 6d 04 	sts	0x046D, r1	; 0x80046d <sys+0xf>
			flag.menueExit		= 1;
    4850:	80 91 5d 04 	lds	r24, 0x045D	; 0x80045d <flag>
    4854:	80 61       	ori	r24, 0x10	; 16
    4856:	80 93 5d 04 	sts	0x045D, r24	; 0x80045d <flag>
		}
		
		ht1632c_send_page();		
    485a:	0e 94 9d 0a 	call	0x153a	; 0x153a <ht1632c_send_page>
		switch_debounce();
    485e:	0e 94 bd 18 	call	0x317a	; 0x317a <switch_debounce>
	}
	
	if ( sys.alertNewHour )
    4862:	80 91 63 04 	lds	r24, 0x0463	; 0x800463 <sys+0x5>
    4866:	88 23       	and	r24, r24
    4868:	09 f4       	brne	.+2      	; 0x486c <__vector_10+0x7c>
    486a:	3f c0       	rjmp	.+126    	; 0x48ea <__vector_10+0xfa>
	{	
		if ( ++newHourDelay >= 0 )
    486c:	80 91 de 03 	lds	r24, 0x03DE	; 0x8003de <newHourDelay.3736>
    4870:	90 91 df 03 	lds	r25, 0x03DF	; 0x8003df <newHourDelay.3736+0x1>
    4874:	01 96       	adiw	r24, 0x01	; 1
    4876:	90 93 df 03 	sts	0x03DF, r25	; 0x8003df <newHourDelay.3736+0x1>
    487a:	80 93 de 03 	sts	0x03DE, r24	; 0x8003de <newHourDelay.3736>
		{
			if ( flag.soundEnable )
    487e:	80 91 5d 04 	lds	r24, 0x045D	; 0x80045d <flag>
    4882:	81 fd       	sbrc	r24, 1
			{
				ALARM_SOUND_ON;
    4884:	c4 9a       	sbi	0x18, 4	; 24
			}
			if ( ! ( dcf77ScanIsActive ) )
    4886:	80 91 08 04 	lds	r24, 0x0408	; 0x800408 <dcf77ScanIsActive>
    488a:	81 11       	cpse	r24, r1
    488c:	01 c0       	rjmp	.+2      	; 0x4890 <__vector_10+0xa0>
			{
				HEARTBEAT_LED_ON;
    488e:	94 98       	cbi	0x12, 4	; 18
			}	
		}
			
		if ( newHourDelay >= 5 )
    4890:	80 91 de 03 	lds	r24, 0x03DE	; 0x8003de <newHourDelay.3736>
    4894:	90 91 df 03 	lds	r25, 0x03DF	; 0x8003df <newHourDelay.3736+0x1>
    4898:	05 97       	sbiw	r24, 0x05	; 5
    489a:	30 f0       	brcs	.+12     	; 0x48a8 <__vector_10+0xb8>
		{
			ALARM_SOUND_OFF;
    489c:	c4 98       	cbi	0x18, 4	; 24

			if ( ! ( dcf77ScanIsActive ) )
    489e:	80 91 08 04 	lds	r24, 0x0408	; 0x800408 <dcf77ScanIsActive>
    48a2:	81 11       	cpse	r24, r1
    48a4:	01 c0       	rjmp	.+2      	; 0x48a8 <__vector_10+0xb8>
			{
				HEARTBEAT_LED_OFF;
    48a6:	94 9a       	sbi	0x12, 4	; 18
			}
		}

			
		if ( newHourDelay >= 25 )
    48a8:	80 91 de 03 	lds	r24, 0x03DE	; 0x8003de <newHourDelay.3736>
    48ac:	90 91 df 03 	lds	r25, 0x03DF	; 0x8003df <newHourDelay.3736+0x1>
    48b0:	49 97       	sbiw	r24, 0x19	; 25
    48b2:	48 f0       	brcs	.+18     	; 0x48c6 <__vector_10+0xd6>
		{
			if ( flag.soundEnable )
    48b4:	80 91 5d 04 	lds	r24, 0x045D	; 0x80045d <flag>
    48b8:	81 fd       	sbrc	r24, 1
			{
				ALARM_SOUND_ON;
    48ba:	c4 9a       	sbi	0x18, 4	; 24
			}
			
			if ( ! ( dcf77ScanIsActive ) )
    48bc:	80 91 08 04 	lds	r24, 0x0408	; 0x800408 <dcf77ScanIsActive>
    48c0:	81 11       	cpse	r24, r1
    48c2:	01 c0       	rjmp	.+2      	; 0x48c6 <__vector_10+0xd6>
			{
				HEARTBEAT_LED_ON;
    48c4:	94 98       	cbi	0x12, 4	; 18
			}
		}
			
		if ( newHourDelay >= 30 )
    48c6:	80 91 de 03 	lds	r24, 0x03DE	; 0x8003de <newHourDelay.3736>
    48ca:	90 91 df 03 	lds	r25, 0x03DF	; 0x8003df <newHourDelay.3736+0x1>
    48ce:	4e 97       	sbiw	r24, 0x1e	; 30
    48d0:	60 f0       	brcs	.+24     	; 0x48ea <__vector_10+0xfa>
		{
			sys.alertNewHour	= 0;
    48d2:	10 92 63 04 	sts	0x0463, r1	; 0x800463 <sys+0x5>
			newHourDelay		= 0;
    48d6:	10 92 df 03 	sts	0x03DF, r1	; 0x8003df <newHourDelay.3736+0x1>
    48da:	10 92 de 03 	sts	0x03DE, r1	; 0x8003de <newHourDelay.3736>
			ALARM_SOUND_OFF;
    48de:	c4 98       	cbi	0x18, 4	; 24
			
			if ( ! ( dcf77ScanIsActive ) )
    48e0:	80 91 08 04 	lds	r24, 0x0408	; 0x800408 <dcf77ScanIsActive>
    48e4:	81 11       	cpse	r24, r1
    48e6:	01 c0       	rjmp	.+2      	; 0x48ea <__vector_10+0xfa>
			{
				HEARTBEAT_LED_OFF;
    48e8:	94 9a       	sbi	0x12, 4	; 18
			}
		}
	}
}
    48ea:	ff 91       	pop	r31
    48ec:	ef 91       	pop	r30
    48ee:	bf 91       	pop	r27
    48f0:	af 91       	pop	r26
    48f2:	9f 91       	pop	r25
    48f4:	8f 91       	pop	r24
    48f6:	7f 91       	pop	r23
    48f8:	6f 91       	pop	r22
    48fa:	5f 91       	pop	r21
    48fc:	4f 91       	pop	r20
    48fe:	3f 91       	pop	r19
    4900:	2f 91       	pop	r18
    4902:	0f 90       	pop	r0
    4904:	0f be       	out	0x3f, r0	; 63
    4906:	0f 90       	pop	r0
    4908:	1f 90       	pop	r1
    490a:	18 95       	reti

0000490c <__vector_4>:

/*
*	Aufrufintervall.: 1ms
*/
ISR( TIMER2_COMP_vect )
{	
    490c:	1f 92       	push	r1
    490e:	0f 92       	push	r0
    4910:	0f b6       	in	r0, 0x3f	; 63
    4912:	0f 92       	push	r0
    4914:	11 24       	eor	r1, r1
    4916:	8f 93       	push	r24
    4918:	9f 93       	push	r25
    491a:	ef 93       	push	r30
    491c:	ff 93       	push	r31
	if ( dcf77ScanIsActive )
    491e:	80 91 08 04 	lds	r24, 0x0408	; 0x800408 <dcf77ScanIsActive>
    4922:	88 23       	and	r24, r24
    4924:	19 f0       	breq	.+6      	; 0x492c <__vector_4+0x20>
	{
		checkDCF = true;
    4926:	81 e0       	ldi	r24, 0x01	; 1
    4928:	80 93 0c 04 	sts	0x040C, r24	; 0x80040c <checkDCF>
	}

	sys.blinkCnt++;
    492c:	ee e5       	ldi	r30, 0x5E	; 94
    492e:	f4 e0       	ldi	r31, 0x04	; 4
    4930:	85 85       	ldd	r24, Z+13	; 0x0d
    4932:	96 85       	ldd	r25, Z+14	; 0x0e
    4934:	01 96       	adiw	r24, 0x01	; 1
    4936:	96 87       	std	Z+14, r25	; 0x0e
    4938:	85 87       	std	Z+13, r24	; 0x0d
}
    493a:	ff 91       	pop	r31
    493c:	ef 91       	pop	r30
    493e:	9f 91       	pop	r25
    4940:	8f 91       	pop	r24
    4942:	0f 90       	pop	r0
    4944:	0f be       	out	0x3f, r0	; 63
    4946:	0f 90       	pop	r0
    4948:	1f 90       	pop	r1
    494a:	18 95       	reti

0000494c <__fixsfsi>:
    494c:	0e 94 ad 24 	call	0x495a	; 0x495a <__fixunssfsi>
    4950:	68 94       	set
    4952:	b1 11       	cpse	r27, r1
    4954:	0c 94 3c 25 	jmp	0x4a78	; 0x4a78 <__fp_szero>
    4958:	08 95       	ret

0000495a <__fixunssfsi>:
    495a:	0e 94 21 25 	call	0x4a42	; 0x4a42 <__fp_splitA>
    495e:	88 f0       	brcs	.+34     	; 0x4982 <__fixunssfsi+0x28>
    4960:	9f 57       	subi	r25, 0x7F	; 127
    4962:	98 f0       	brcs	.+38     	; 0x498a <__fixunssfsi+0x30>
    4964:	b9 2f       	mov	r27, r25
    4966:	99 27       	eor	r25, r25
    4968:	b7 51       	subi	r27, 0x17	; 23
    496a:	b0 f0       	brcs	.+44     	; 0x4998 <__fixunssfsi+0x3e>
    496c:	e1 f0       	breq	.+56     	; 0x49a6 <__fixunssfsi+0x4c>
    496e:	66 0f       	add	r22, r22
    4970:	77 1f       	adc	r23, r23
    4972:	88 1f       	adc	r24, r24
    4974:	99 1f       	adc	r25, r25
    4976:	1a f0       	brmi	.+6      	; 0x497e <__fixunssfsi+0x24>
    4978:	ba 95       	dec	r27
    497a:	c9 f7       	brne	.-14     	; 0x496e <__fixunssfsi+0x14>
    497c:	14 c0       	rjmp	.+40     	; 0x49a6 <__fixunssfsi+0x4c>
    497e:	b1 30       	cpi	r27, 0x01	; 1
    4980:	91 f0       	breq	.+36     	; 0x49a6 <__fixunssfsi+0x4c>
    4982:	0e 94 3b 25 	call	0x4a76	; 0x4a76 <__fp_zero>
    4986:	b1 e0       	ldi	r27, 0x01	; 1
    4988:	08 95       	ret
    498a:	0c 94 3b 25 	jmp	0x4a76	; 0x4a76 <__fp_zero>
    498e:	67 2f       	mov	r22, r23
    4990:	78 2f       	mov	r23, r24
    4992:	88 27       	eor	r24, r24
    4994:	b8 5f       	subi	r27, 0xF8	; 248
    4996:	39 f0       	breq	.+14     	; 0x49a6 <__fixunssfsi+0x4c>
    4998:	b9 3f       	cpi	r27, 0xF9	; 249
    499a:	cc f3       	brlt	.-14     	; 0x498e <__fixunssfsi+0x34>
    499c:	86 95       	lsr	r24
    499e:	77 95       	ror	r23
    49a0:	67 95       	ror	r22
    49a2:	b3 95       	inc	r27
    49a4:	d9 f7       	brne	.-10     	; 0x499c <__fixunssfsi+0x42>
    49a6:	3e f4       	brtc	.+14     	; 0x49b6 <__fixunssfsi+0x5c>
    49a8:	90 95       	com	r25
    49aa:	80 95       	com	r24
    49ac:	70 95       	com	r23
    49ae:	61 95       	neg	r22
    49b0:	7f 4f       	sbci	r23, 0xFF	; 255
    49b2:	8f 4f       	sbci	r24, 0xFF	; 255
    49b4:	9f 4f       	sbci	r25, 0xFF	; 255
    49b6:	08 95       	ret

000049b8 <__floatunsisf>:
    49b8:	e8 94       	clt
    49ba:	09 c0       	rjmp	.+18     	; 0x49ce <__floatsisf+0x12>

000049bc <__floatsisf>:
    49bc:	97 fb       	bst	r25, 7
    49be:	3e f4       	brtc	.+14     	; 0x49ce <__floatsisf+0x12>
    49c0:	90 95       	com	r25
    49c2:	80 95       	com	r24
    49c4:	70 95       	com	r23
    49c6:	61 95       	neg	r22
    49c8:	7f 4f       	sbci	r23, 0xFF	; 255
    49ca:	8f 4f       	sbci	r24, 0xFF	; 255
    49cc:	9f 4f       	sbci	r25, 0xFF	; 255
    49ce:	99 23       	and	r25, r25
    49d0:	a9 f0       	breq	.+42     	; 0x49fc <__floatsisf+0x40>
    49d2:	f9 2f       	mov	r31, r25
    49d4:	96 e9       	ldi	r25, 0x96	; 150
    49d6:	bb 27       	eor	r27, r27
    49d8:	93 95       	inc	r25
    49da:	f6 95       	lsr	r31
    49dc:	87 95       	ror	r24
    49de:	77 95       	ror	r23
    49e0:	67 95       	ror	r22
    49e2:	b7 95       	ror	r27
    49e4:	f1 11       	cpse	r31, r1
    49e6:	f8 cf       	rjmp	.-16     	; 0x49d8 <__floatsisf+0x1c>
    49e8:	fa f4       	brpl	.+62     	; 0x4a28 <__floatsisf+0x6c>
    49ea:	bb 0f       	add	r27, r27
    49ec:	11 f4       	brne	.+4      	; 0x49f2 <__floatsisf+0x36>
    49ee:	60 ff       	sbrs	r22, 0
    49f0:	1b c0       	rjmp	.+54     	; 0x4a28 <__floatsisf+0x6c>
    49f2:	6f 5f       	subi	r22, 0xFF	; 255
    49f4:	7f 4f       	sbci	r23, 0xFF	; 255
    49f6:	8f 4f       	sbci	r24, 0xFF	; 255
    49f8:	9f 4f       	sbci	r25, 0xFF	; 255
    49fa:	16 c0       	rjmp	.+44     	; 0x4a28 <__floatsisf+0x6c>
    49fc:	88 23       	and	r24, r24
    49fe:	11 f0       	breq	.+4      	; 0x4a04 <__floatsisf+0x48>
    4a00:	96 e9       	ldi	r25, 0x96	; 150
    4a02:	11 c0       	rjmp	.+34     	; 0x4a26 <__floatsisf+0x6a>
    4a04:	77 23       	and	r23, r23
    4a06:	21 f0       	breq	.+8      	; 0x4a10 <__floatsisf+0x54>
    4a08:	9e e8       	ldi	r25, 0x8E	; 142
    4a0a:	87 2f       	mov	r24, r23
    4a0c:	76 2f       	mov	r23, r22
    4a0e:	05 c0       	rjmp	.+10     	; 0x4a1a <__floatsisf+0x5e>
    4a10:	66 23       	and	r22, r22
    4a12:	71 f0       	breq	.+28     	; 0x4a30 <__floatsisf+0x74>
    4a14:	96 e8       	ldi	r25, 0x86	; 134
    4a16:	86 2f       	mov	r24, r22
    4a18:	70 e0       	ldi	r23, 0x00	; 0
    4a1a:	60 e0       	ldi	r22, 0x00	; 0
    4a1c:	2a f0       	brmi	.+10     	; 0x4a28 <__floatsisf+0x6c>
    4a1e:	9a 95       	dec	r25
    4a20:	66 0f       	add	r22, r22
    4a22:	77 1f       	adc	r23, r23
    4a24:	88 1f       	adc	r24, r24
    4a26:	da f7       	brpl	.-10     	; 0x4a1e <__floatsisf+0x62>
    4a28:	88 0f       	add	r24, r24
    4a2a:	96 95       	lsr	r25
    4a2c:	87 95       	ror	r24
    4a2e:	97 f9       	bld	r25, 7
    4a30:	08 95       	ret

00004a32 <__fp_split3>:
    4a32:	57 fd       	sbrc	r21, 7
    4a34:	90 58       	subi	r25, 0x80	; 128
    4a36:	44 0f       	add	r20, r20
    4a38:	55 1f       	adc	r21, r21
    4a3a:	59 f0       	breq	.+22     	; 0x4a52 <__fp_splitA+0x10>
    4a3c:	5f 3f       	cpi	r21, 0xFF	; 255
    4a3e:	71 f0       	breq	.+28     	; 0x4a5c <__fp_splitA+0x1a>
    4a40:	47 95       	ror	r20

00004a42 <__fp_splitA>:
    4a42:	88 0f       	add	r24, r24
    4a44:	97 fb       	bst	r25, 7
    4a46:	99 1f       	adc	r25, r25
    4a48:	61 f0       	breq	.+24     	; 0x4a62 <__fp_splitA+0x20>
    4a4a:	9f 3f       	cpi	r25, 0xFF	; 255
    4a4c:	79 f0       	breq	.+30     	; 0x4a6c <__fp_splitA+0x2a>
    4a4e:	87 95       	ror	r24
    4a50:	08 95       	ret
    4a52:	12 16       	cp	r1, r18
    4a54:	13 06       	cpc	r1, r19
    4a56:	14 06       	cpc	r1, r20
    4a58:	55 1f       	adc	r21, r21
    4a5a:	f2 cf       	rjmp	.-28     	; 0x4a40 <__fp_split3+0xe>
    4a5c:	46 95       	lsr	r20
    4a5e:	f1 df       	rcall	.-30     	; 0x4a42 <__fp_splitA>
    4a60:	08 c0       	rjmp	.+16     	; 0x4a72 <__fp_splitA+0x30>
    4a62:	16 16       	cp	r1, r22
    4a64:	17 06       	cpc	r1, r23
    4a66:	18 06       	cpc	r1, r24
    4a68:	99 1f       	adc	r25, r25
    4a6a:	f1 cf       	rjmp	.-30     	; 0x4a4e <__fp_splitA+0xc>
    4a6c:	86 95       	lsr	r24
    4a6e:	71 05       	cpc	r23, r1
    4a70:	61 05       	cpc	r22, r1
    4a72:	08 94       	sec
    4a74:	08 95       	ret

00004a76 <__fp_zero>:
    4a76:	e8 94       	clt

00004a78 <__fp_szero>:
    4a78:	bb 27       	eor	r27, r27
    4a7a:	66 27       	eor	r22, r22
    4a7c:	77 27       	eor	r23, r23
    4a7e:	cb 01       	movw	r24, r22
    4a80:	97 f9       	bld	r25, 7
    4a82:	08 95       	ret

00004a84 <__mulsf3>:
    4a84:	0e 94 55 25 	call	0x4aaa	; 0x4aaa <__mulsf3x>
    4a88:	0c 94 c6 25 	jmp	0x4b8c	; 0x4b8c <__fp_round>
    4a8c:	0e 94 b8 25 	call	0x4b70	; 0x4b70 <__fp_pscA>
    4a90:	38 f0       	brcs	.+14     	; 0x4aa0 <__mulsf3+0x1c>
    4a92:	0e 94 bf 25 	call	0x4b7e	; 0x4b7e <__fp_pscB>
    4a96:	20 f0       	brcs	.+8      	; 0x4aa0 <__mulsf3+0x1c>
    4a98:	95 23       	and	r25, r21
    4a9a:	11 f0       	breq	.+4      	; 0x4aa0 <__mulsf3+0x1c>
    4a9c:	0c 94 af 25 	jmp	0x4b5e	; 0x4b5e <__fp_inf>
    4aa0:	0c 94 b5 25 	jmp	0x4b6a	; 0x4b6a <__fp_nan>
    4aa4:	11 24       	eor	r1, r1
    4aa6:	0c 94 3c 25 	jmp	0x4a78	; 0x4a78 <__fp_szero>

00004aaa <__mulsf3x>:
    4aaa:	0e 94 19 25 	call	0x4a32	; 0x4a32 <__fp_split3>
    4aae:	70 f3       	brcs	.-36     	; 0x4a8c <__mulsf3+0x8>

00004ab0 <__mulsf3_pse>:
    4ab0:	95 9f       	mul	r25, r21
    4ab2:	c1 f3       	breq	.-16     	; 0x4aa4 <__mulsf3+0x20>
    4ab4:	95 0f       	add	r25, r21
    4ab6:	50 e0       	ldi	r21, 0x00	; 0
    4ab8:	55 1f       	adc	r21, r21
    4aba:	62 9f       	mul	r22, r18
    4abc:	f0 01       	movw	r30, r0
    4abe:	72 9f       	mul	r23, r18
    4ac0:	bb 27       	eor	r27, r27
    4ac2:	f0 0d       	add	r31, r0
    4ac4:	b1 1d       	adc	r27, r1
    4ac6:	63 9f       	mul	r22, r19
    4ac8:	aa 27       	eor	r26, r26
    4aca:	f0 0d       	add	r31, r0
    4acc:	b1 1d       	adc	r27, r1
    4ace:	aa 1f       	adc	r26, r26
    4ad0:	64 9f       	mul	r22, r20
    4ad2:	66 27       	eor	r22, r22
    4ad4:	b0 0d       	add	r27, r0
    4ad6:	a1 1d       	adc	r26, r1
    4ad8:	66 1f       	adc	r22, r22
    4ada:	82 9f       	mul	r24, r18
    4adc:	22 27       	eor	r18, r18
    4ade:	b0 0d       	add	r27, r0
    4ae0:	a1 1d       	adc	r26, r1
    4ae2:	62 1f       	adc	r22, r18
    4ae4:	73 9f       	mul	r23, r19
    4ae6:	b0 0d       	add	r27, r0
    4ae8:	a1 1d       	adc	r26, r1
    4aea:	62 1f       	adc	r22, r18
    4aec:	83 9f       	mul	r24, r19
    4aee:	a0 0d       	add	r26, r0
    4af0:	61 1d       	adc	r22, r1
    4af2:	22 1f       	adc	r18, r18
    4af4:	74 9f       	mul	r23, r20
    4af6:	33 27       	eor	r19, r19
    4af8:	a0 0d       	add	r26, r0
    4afa:	61 1d       	adc	r22, r1
    4afc:	23 1f       	adc	r18, r19
    4afe:	84 9f       	mul	r24, r20
    4b00:	60 0d       	add	r22, r0
    4b02:	21 1d       	adc	r18, r1
    4b04:	82 2f       	mov	r24, r18
    4b06:	76 2f       	mov	r23, r22
    4b08:	6a 2f       	mov	r22, r26
    4b0a:	11 24       	eor	r1, r1
    4b0c:	9f 57       	subi	r25, 0x7F	; 127
    4b0e:	50 40       	sbci	r21, 0x00	; 0
    4b10:	9a f0       	brmi	.+38     	; 0x4b38 <__mulsf3_pse+0x88>
    4b12:	f1 f0       	breq	.+60     	; 0x4b50 <__mulsf3_pse+0xa0>
    4b14:	88 23       	and	r24, r24
    4b16:	4a f0       	brmi	.+18     	; 0x4b2a <__mulsf3_pse+0x7a>
    4b18:	ee 0f       	add	r30, r30
    4b1a:	ff 1f       	adc	r31, r31
    4b1c:	bb 1f       	adc	r27, r27
    4b1e:	66 1f       	adc	r22, r22
    4b20:	77 1f       	adc	r23, r23
    4b22:	88 1f       	adc	r24, r24
    4b24:	91 50       	subi	r25, 0x01	; 1
    4b26:	50 40       	sbci	r21, 0x00	; 0
    4b28:	a9 f7       	brne	.-22     	; 0x4b14 <__mulsf3_pse+0x64>
    4b2a:	9e 3f       	cpi	r25, 0xFE	; 254
    4b2c:	51 05       	cpc	r21, r1
    4b2e:	80 f0       	brcs	.+32     	; 0x4b50 <__mulsf3_pse+0xa0>
    4b30:	0c 94 af 25 	jmp	0x4b5e	; 0x4b5e <__fp_inf>
    4b34:	0c 94 3c 25 	jmp	0x4a78	; 0x4a78 <__fp_szero>
    4b38:	5f 3f       	cpi	r21, 0xFF	; 255
    4b3a:	e4 f3       	brlt	.-8      	; 0x4b34 <__mulsf3_pse+0x84>
    4b3c:	98 3e       	cpi	r25, 0xE8	; 232
    4b3e:	d4 f3       	brlt	.-12     	; 0x4b34 <__mulsf3_pse+0x84>
    4b40:	86 95       	lsr	r24
    4b42:	77 95       	ror	r23
    4b44:	67 95       	ror	r22
    4b46:	b7 95       	ror	r27
    4b48:	f7 95       	ror	r31
    4b4a:	e7 95       	ror	r30
    4b4c:	9f 5f       	subi	r25, 0xFF	; 255
    4b4e:	c1 f7       	brne	.-16     	; 0x4b40 <__mulsf3_pse+0x90>
    4b50:	fe 2b       	or	r31, r30
    4b52:	88 0f       	add	r24, r24
    4b54:	91 1d       	adc	r25, r1
    4b56:	96 95       	lsr	r25
    4b58:	87 95       	ror	r24
    4b5a:	97 f9       	bld	r25, 7
    4b5c:	08 95       	ret

00004b5e <__fp_inf>:
    4b5e:	97 f9       	bld	r25, 7
    4b60:	9f 67       	ori	r25, 0x7F	; 127
    4b62:	80 e8       	ldi	r24, 0x80	; 128
    4b64:	70 e0       	ldi	r23, 0x00	; 0
    4b66:	60 e0       	ldi	r22, 0x00	; 0
    4b68:	08 95       	ret

00004b6a <__fp_nan>:
    4b6a:	9f ef       	ldi	r25, 0xFF	; 255
    4b6c:	80 ec       	ldi	r24, 0xC0	; 192
    4b6e:	08 95       	ret

00004b70 <__fp_pscA>:
    4b70:	00 24       	eor	r0, r0
    4b72:	0a 94       	dec	r0
    4b74:	16 16       	cp	r1, r22
    4b76:	17 06       	cpc	r1, r23
    4b78:	18 06       	cpc	r1, r24
    4b7a:	09 06       	cpc	r0, r25
    4b7c:	08 95       	ret

00004b7e <__fp_pscB>:
    4b7e:	00 24       	eor	r0, r0
    4b80:	0a 94       	dec	r0
    4b82:	12 16       	cp	r1, r18
    4b84:	13 06       	cpc	r1, r19
    4b86:	14 06       	cpc	r1, r20
    4b88:	05 06       	cpc	r0, r21
    4b8a:	08 95       	ret

00004b8c <__fp_round>:
    4b8c:	09 2e       	mov	r0, r25
    4b8e:	03 94       	inc	r0
    4b90:	00 0c       	add	r0, r0
    4b92:	11 f4       	brne	.+4      	; 0x4b98 <__fp_round+0xc>
    4b94:	88 23       	and	r24, r24
    4b96:	52 f0       	brmi	.+20     	; 0x4bac <__fp_round+0x20>
    4b98:	bb 0f       	add	r27, r27
    4b9a:	40 f4       	brcc	.+16     	; 0x4bac <__fp_round+0x20>
    4b9c:	bf 2b       	or	r27, r31
    4b9e:	11 f4       	brne	.+4      	; 0x4ba4 <__fp_round+0x18>
    4ba0:	60 ff       	sbrs	r22, 0
    4ba2:	04 c0       	rjmp	.+8      	; 0x4bac <__fp_round+0x20>
    4ba4:	6f 5f       	subi	r22, 0xFF	; 255
    4ba6:	7f 4f       	sbci	r23, 0xFF	; 255
    4ba8:	8f 4f       	sbci	r24, 0xFF	; 255
    4baa:	9f 4f       	sbci	r25, 0xFF	; 255
    4bac:	08 95       	ret

00004bae <__mulsi3>:
    4bae:	db 01       	movw	r26, r22
    4bb0:	8f 93       	push	r24
    4bb2:	9f 93       	push	r25
    4bb4:	0e 94 4b 26 	call	0x4c96	; 0x4c96 <__muluhisi3>
    4bb8:	bf 91       	pop	r27
    4bba:	af 91       	pop	r26
    4bbc:	a2 9f       	mul	r26, r18
    4bbe:	80 0d       	add	r24, r0
    4bc0:	91 1d       	adc	r25, r1
    4bc2:	a3 9f       	mul	r26, r19
    4bc4:	90 0d       	add	r25, r0
    4bc6:	b2 9f       	mul	r27, r18
    4bc8:	90 0d       	add	r25, r0
    4bca:	11 24       	eor	r1, r1
    4bcc:	08 95       	ret

00004bce <__divmodhi4>:
    4bce:	97 fb       	bst	r25, 7
    4bd0:	07 2e       	mov	r0, r23
    4bd2:	16 f4       	brtc	.+4      	; 0x4bd8 <__divmodhi4+0xa>
    4bd4:	00 94       	com	r0
    4bd6:	07 d0       	rcall	.+14     	; 0x4be6 <__divmodhi4_neg1>
    4bd8:	77 fd       	sbrc	r23, 7
    4bda:	09 d0       	rcall	.+18     	; 0x4bee <__divmodhi4_neg2>
    4bdc:	0e 94 5e 26 	call	0x4cbc	; 0x4cbc <__udivmodhi4>
    4be0:	07 fc       	sbrc	r0, 7
    4be2:	05 d0       	rcall	.+10     	; 0x4bee <__divmodhi4_neg2>
    4be4:	3e f4       	brtc	.+14     	; 0x4bf4 <__divmodhi4_exit>

00004be6 <__divmodhi4_neg1>:
    4be6:	90 95       	com	r25
    4be8:	81 95       	neg	r24
    4bea:	9f 4f       	sbci	r25, 0xFF	; 255
    4bec:	08 95       	ret

00004bee <__divmodhi4_neg2>:
    4bee:	70 95       	com	r23
    4bf0:	61 95       	neg	r22
    4bf2:	7f 4f       	sbci	r23, 0xFF	; 255

00004bf4 <__divmodhi4_exit>:
    4bf4:	08 95       	ret

00004bf6 <__udivmodsi4>:
    4bf6:	a1 e2       	ldi	r26, 0x21	; 33
    4bf8:	1a 2e       	mov	r1, r26
    4bfa:	aa 1b       	sub	r26, r26
    4bfc:	bb 1b       	sub	r27, r27
    4bfe:	fd 01       	movw	r30, r26
    4c00:	0d c0       	rjmp	.+26     	; 0x4c1c <__udivmodsi4_ep>

00004c02 <__udivmodsi4_loop>:
    4c02:	aa 1f       	adc	r26, r26
    4c04:	bb 1f       	adc	r27, r27
    4c06:	ee 1f       	adc	r30, r30
    4c08:	ff 1f       	adc	r31, r31
    4c0a:	a2 17       	cp	r26, r18
    4c0c:	b3 07       	cpc	r27, r19
    4c0e:	e4 07       	cpc	r30, r20
    4c10:	f5 07       	cpc	r31, r21
    4c12:	20 f0       	brcs	.+8      	; 0x4c1c <__udivmodsi4_ep>
    4c14:	a2 1b       	sub	r26, r18
    4c16:	b3 0b       	sbc	r27, r19
    4c18:	e4 0b       	sbc	r30, r20
    4c1a:	f5 0b       	sbc	r31, r21

00004c1c <__udivmodsi4_ep>:
    4c1c:	66 1f       	adc	r22, r22
    4c1e:	77 1f       	adc	r23, r23
    4c20:	88 1f       	adc	r24, r24
    4c22:	99 1f       	adc	r25, r25
    4c24:	1a 94       	dec	r1
    4c26:	69 f7       	brne	.-38     	; 0x4c02 <__udivmodsi4_loop>
    4c28:	60 95       	com	r22
    4c2a:	70 95       	com	r23
    4c2c:	80 95       	com	r24
    4c2e:	90 95       	com	r25
    4c30:	9b 01       	movw	r18, r22
    4c32:	ac 01       	movw	r20, r24
    4c34:	bd 01       	movw	r22, r26
    4c36:	cf 01       	movw	r24, r30
    4c38:	08 95       	ret

00004c3a <__divmodsi4>:
    4c3a:	05 2e       	mov	r0, r21
    4c3c:	97 fb       	bst	r25, 7
    4c3e:	1e f4       	brtc	.+6      	; 0x4c46 <__divmodsi4+0xc>
    4c40:	00 94       	com	r0
    4c42:	0e 94 34 26 	call	0x4c68	; 0x4c68 <__negsi2>
    4c46:	57 fd       	sbrc	r21, 7
    4c48:	07 d0       	rcall	.+14     	; 0x4c58 <__divmodsi4_neg2>
    4c4a:	0e 94 fb 25 	call	0x4bf6	; 0x4bf6 <__udivmodsi4>
    4c4e:	07 fc       	sbrc	r0, 7
    4c50:	03 d0       	rcall	.+6      	; 0x4c58 <__divmodsi4_neg2>
    4c52:	4e f4       	brtc	.+18     	; 0x4c66 <__divmodsi4_exit>
    4c54:	0c 94 34 26 	jmp	0x4c68	; 0x4c68 <__negsi2>

00004c58 <__divmodsi4_neg2>:
    4c58:	50 95       	com	r21
    4c5a:	40 95       	com	r20
    4c5c:	30 95       	com	r19
    4c5e:	21 95       	neg	r18
    4c60:	3f 4f       	sbci	r19, 0xFF	; 255
    4c62:	4f 4f       	sbci	r20, 0xFF	; 255
    4c64:	5f 4f       	sbci	r21, 0xFF	; 255

00004c66 <__divmodsi4_exit>:
    4c66:	08 95       	ret

00004c68 <__negsi2>:
    4c68:	90 95       	com	r25
    4c6a:	80 95       	com	r24
    4c6c:	70 95       	com	r23
    4c6e:	61 95       	neg	r22
    4c70:	7f 4f       	sbci	r23, 0xFF	; 255
    4c72:	8f 4f       	sbci	r24, 0xFF	; 255
    4c74:	9f 4f       	sbci	r25, 0xFF	; 255
    4c76:	08 95       	ret

00004c78 <__umulhisi3>:
    4c78:	a2 9f       	mul	r26, r18
    4c7a:	b0 01       	movw	r22, r0
    4c7c:	b3 9f       	mul	r27, r19
    4c7e:	c0 01       	movw	r24, r0
    4c80:	a3 9f       	mul	r26, r19
    4c82:	70 0d       	add	r23, r0
    4c84:	81 1d       	adc	r24, r1
    4c86:	11 24       	eor	r1, r1
    4c88:	91 1d       	adc	r25, r1
    4c8a:	b2 9f       	mul	r27, r18
    4c8c:	70 0d       	add	r23, r0
    4c8e:	81 1d       	adc	r24, r1
    4c90:	11 24       	eor	r1, r1
    4c92:	91 1d       	adc	r25, r1
    4c94:	08 95       	ret

00004c96 <__muluhisi3>:
    4c96:	0e 94 3c 26 	call	0x4c78	; 0x4c78 <__umulhisi3>
    4c9a:	a5 9f       	mul	r26, r21
    4c9c:	90 0d       	add	r25, r0
    4c9e:	b4 9f       	mul	r27, r20
    4ca0:	90 0d       	add	r25, r0
    4ca2:	a4 9f       	mul	r26, r20
    4ca4:	80 0d       	add	r24, r0
    4ca6:	91 1d       	adc	r25, r1
    4ca8:	11 24       	eor	r1, r1
    4caa:	08 95       	ret

00004cac <__mulshisi3>:
    4cac:	b7 ff       	sbrs	r27, 7
    4cae:	0c 94 4b 26 	jmp	0x4c96	; 0x4c96 <__muluhisi3>

00004cb2 <__mulohisi3>:
    4cb2:	0e 94 4b 26 	call	0x4c96	; 0x4c96 <__muluhisi3>
    4cb6:	82 1b       	sub	r24, r18
    4cb8:	93 0b       	sbc	r25, r19
    4cba:	08 95       	ret

00004cbc <__udivmodhi4>:
    4cbc:	aa 1b       	sub	r26, r26
    4cbe:	bb 1b       	sub	r27, r27
    4cc0:	51 e1       	ldi	r21, 0x11	; 17
    4cc2:	07 c0       	rjmp	.+14     	; 0x4cd2 <__udivmodhi4_ep>

00004cc4 <__udivmodhi4_loop>:
    4cc4:	aa 1f       	adc	r26, r26
    4cc6:	bb 1f       	adc	r27, r27
    4cc8:	a6 17       	cp	r26, r22
    4cca:	b7 07       	cpc	r27, r23
    4ccc:	10 f0       	brcs	.+4      	; 0x4cd2 <__udivmodhi4_ep>
    4cce:	a6 1b       	sub	r26, r22
    4cd0:	b7 0b       	sbc	r27, r23

00004cd2 <__udivmodhi4_ep>:
    4cd2:	88 1f       	adc	r24, r24
    4cd4:	99 1f       	adc	r25, r25
    4cd6:	5a 95       	dec	r21
    4cd8:	a9 f7       	brne	.-22     	; 0x4cc4 <__udivmodhi4_loop>
    4cda:	80 95       	com	r24
    4cdc:	90 95       	com	r25
    4cde:	bc 01       	movw	r22, r24
    4ce0:	cd 01       	movw	r24, r26
    4ce2:	08 95       	ret

00004ce4 <memcmp_P>:
    4ce4:	fb 01       	movw	r30, r22
    4ce6:	dc 01       	movw	r26, r24
    4ce8:	04 c0       	rjmp	.+8      	; 0x4cf2 <memcmp_P+0xe>
    4cea:	8d 91       	ld	r24, X+
    4cec:	05 90       	lpm	r0, Z+
    4cee:	80 19       	sub	r24, r0
    4cf0:	21 f4       	brne	.+8      	; 0x4cfa <memcmp_P+0x16>
    4cf2:	41 50       	subi	r20, 0x01	; 1
    4cf4:	50 40       	sbci	r21, 0x00	; 0
    4cf6:	c8 f7       	brcc	.-14     	; 0x4cea <memcmp_P+0x6>
    4cf8:	88 1b       	sub	r24, r24
    4cfa:	99 0b       	sbc	r25, r25
    4cfc:	08 95       	ret

00004cfe <memcpy_P>:
    4cfe:	fb 01       	movw	r30, r22
    4d00:	dc 01       	movw	r26, r24
    4d02:	02 c0       	rjmp	.+4      	; 0x4d08 <memcpy_P+0xa>
    4d04:	05 90       	lpm	r0, Z+
    4d06:	0d 92       	st	X+, r0
    4d08:	41 50       	subi	r20, 0x01	; 1
    4d0a:	50 40       	sbci	r21, 0x00	; 0
    4d0c:	d8 f7       	brcc	.-10     	; 0x4d04 <memcpy_P+0x6>
    4d0e:	08 95       	ret

00004d10 <strcat>:
    4d10:	fb 01       	movw	r30, r22
    4d12:	dc 01       	movw	r26, r24
    4d14:	0d 90       	ld	r0, X+
    4d16:	00 20       	and	r0, r0
    4d18:	e9 f7       	brne	.-6      	; 0x4d14 <strcat+0x4>
    4d1a:	11 97       	sbiw	r26, 0x01	; 1
    4d1c:	01 90       	ld	r0, Z+
    4d1e:	0d 92       	st	X+, r0
    4d20:	00 20       	and	r0, r0
    4d22:	e1 f7       	brne	.-8      	; 0x4d1c <strcat+0xc>
    4d24:	08 95       	ret

00004d26 <__itoa_ncheck>:
    4d26:	bb 27       	eor	r27, r27
    4d28:	4a 30       	cpi	r20, 0x0A	; 10
    4d2a:	31 f4       	brne	.+12     	; 0x4d38 <__itoa_ncheck+0x12>
    4d2c:	99 23       	and	r25, r25
    4d2e:	22 f4       	brpl	.+8      	; 0x4d38 <__itoa_ncheck+0x12>
    4d30:	bd e2       	ldi	r27, 0x2D	; 45
    4d32:	90 95       	com	r25
    4d34:	81 95       	neg	r24
    4d36:	9f 4f       	sbci	r25, 0xFF	; 255
    4d38:	0c 94 9f 26 	jmp	0x4d3e	; 0x4d3e <__utoa_common>

00004d3c <__utoa_ncheck>:
    4d3c:	bb 27       	eor	r27, r27

00004d3e <__utoa_common>:
    4d3e:	fb 01       	movw	r30, r22
    4d40:	55 27       	eor	r21, r21
    4d42:	aa 27       	eor	r26, r26
    4d44:	88 0f       	add	r24, r24
    4d46:	99 1f       	adc	r25, r25
    4d48:	aa 1f       	adc	r26, r26
    4d4a:	a4 17       	cp	r26, r20
    4d4c:	10 f0       	brcs	.+4      	; 0x4d52 <__utoa_common+0x14>
    4d4e:	a4 1b       	sub	r26, r20
    4d50:	83 95       	inc	r24
    4d52:	50 51       	subi	r21, 0x10	; 16
    4d54:	b9 f7       	brne	.-18     	; 0x4d44 <__utoa_common+0x6>
    4d56:	a0 5d       	subi	r26, 0xD0	; 208
    4d58:	aa 33       	cpi	r26, 0x3A	; 58
    4d5a:	08 f0       	brcs	.+2      	; 0x4d5e <__utoa_common+0x20>
    4d5c:	a9 5d       	subi	r26, 0xD9	; 217
    4d5e:	a1 93       	st	Z+, r26
    4d60:	00 97       	sbiw	r24, 0x00	; 0
    4d62:	79 f7       	brne	.-34     	; 0x4d42 <__utoa_common+0x4>
    4d64:	b1 11       	cpse	r27, r1
    4d66:	b1 93       	st	Z+, r27
    4d68:	11 92       	st	Z+, r1
    4d6a:	cb 01       	movw	r24, r22
    4d6c:	0c 94 d1 28 	jmp	0x51a2	; 0x51a2 <strrev>

00004d70 <sprintf>:
    4d70:	ae e0       	ldi	r26, 0x0E	; 14
    4d72:	b0 e0       	ldi	r27, 0x00	; 0
    4d74:	ee eb       	ldi	r30, 0xBE	; 190
    4d76:	f6 e2       	ldi	r31, 0x26	; 38
    4d78:	0c 94 d0 29 	jmp	0x53a0	; 0x53a0 <__prologue_saves__+0x1c>
    4d7c:	0d 89       	ldd	r16, Y+21	; 0x15
    4d7e:	1e 89       	ldd	r17, Y+22	; 0x16
    4d80:	86 e0       	ldi	r24, 0x06	; 6
    4d82:	8c 83       	std	Y+4, r24	; 0x04
    4d84:	1a 83       	std	Y+2, r17	; 0x02
    4d86:	09 83       	std	Y+1, r16	; 0x01
    4d88:	8f ef       	ldi	r24, 0xFF	; 255
    4d8a:	9f e7       	ldi	r25, 0x7F	; 127
    4d8c:	9e 83       	std	Y+6, r25	; 0x06
    4d8e:	8d 83       	std	Y+5, r24	; 0x05
    4d90:	ae 01       	movw	r20, r28
    4d92:	47 5e       	subi	r20, 0xE7	; 231
    4d94:	5f 4f       	sbci	r21, 0xFF	; 255
    4d96:	6f 89       	ldd	r22, Y+23	; 0x17
    4d98:	78 8d       	ldd	r23, Y+24	; 0x18
    4d9a:	ce 01       	movw	r24, r28
    4d9c:	01 96       	adiw	r24, 0x01	; 1
    4d9e:	0e 94 da 26 	call	0x4db4	; 0x4db4 <vfprintf>
    4da2:	ef 81       	ldd	r30, Y+7	; 0x07
    4da4:	f8 85       	ldd	r31, Y+8	; 0x08
    4da6:	e0 0f       	add	r30, r16
    4da8:	f1 1f       	adc	r31, r17
    4daa:	10 82       	st	Z, r1
    4dac:	2e 96       	adiw	r28, 0x0e	; 14
    4dae:	e4 e0       	ldi	r30, 0x04	; 4
    4db0:	0c 94 ec 29 	jmp	0x53d8	; 0x53d8 <__epilogue_restores__+0x1c>

00004db4 <vfprintf>:
    4db4:	ab e0       	ldi	r26, 0x0B	; 11
    4db6:	b0 e0       	ldi	r27, 0x00	; 0
    4db8:	e0 ee       	ldi	r30, 0xE0	; 224
    4dba:	f6 e2       	ldi	r31, 0x26	; 38
    4dbc:	0c 94 c2 29 	jmp	0x5384	; 0x5384 <__prologue_saves__>
    4dc0:	6c 01       	movw	r12, r24
    4dc2:	7b 01       	movw	r14, r22
    4dc4:	8a 01       	movw	r16, r20
    4dc6:	fc 01       	movw	r30, r24
    4dc8:	17 82       	std	Z+7, r1	; 0x07
    4dca:	16 82       	std	Z+6, r1	; 0x06
    4dcc:	83 81       	ldd	r24, Z+3	; 0x03
    4dce:	81 ff       	sbrs	r24, 1
    4dd0:	cc c1       	rjmp	.+920    	; 0x516a <vfprintf+0x3b6>
    4dd2:	ce 01       	movw	r24, r28
    4dd4:	01 96       	adiw	r24, 0x01	; 1
    4dd6:	3c 01       	movw	r6, r24
    4dd8:	f6 01       	movw	r30, r12
    4dda:	93 81       	ldd	r25, Z+3	; 0x03
    4ddc:	f7 01       	movw	r30, r14
    4dde:	93 fd       	sbrc	r25, 3
    4de0:	85 91       	lpm	r24, Z+
    4de2:	93 ff       	sbrs	r25, 3
    4de4:	81 91       	ld	r24, Z+
    4de6:	7f 01       	movw	r14, r30
    4de8:	88 23       	and	r24, r24
    4dea:	09 f4       	brne	.+2      	; 0x4dee <vfprintf+0x3a>
    4dec:	ba c1       	rjmp	.+884    	; 0x5162 <vfprintf+0x3ae>
    4dee:	85 32       	cpi	r24, 0x25	; 37
    4df0:	39 f4       	brne	.+14     	; 0x4e00 <vfprintf+0x4c>
    4df2:	93 fd       	sbrc	r25, 3
    4df4:	85 91       	lpm	r24, Z+
    4df6:	93 ff       	sbrs	r25, 3
    4df8:	81 91       	ld	r24, Z+
    4dfa:	7f 01       	movw	r14, r30
    4dfc:	85 32       	cpi	r24, 0x25	; 37
    4dfe:	29 f4       	brne	.+10     	; 0x4e0a <vfprintf+0x56>
    4e00:	b6 01       	movw	r22, r12
    4e02:	90 e0       	ldi	r25, 0x00	; 0
    4e04:	0e 94 e1 28 	call	0x51c2	; 0x51c2 <fputc>
    4e08:	e7 cf       	rjmp	.-50     	; 0x4dd8 <vfprintf+0x24>
    4e0a:	91 2c       	mov	r9, r1
    4e0c:	21 2c       	mov	r2, r1
    4e0e:	31 2c       	mov	r3, r1
    4e10:	ff e1       	ldi	r31, 0x1F	; 31
    4e12:	f3 15       	cp	r31, r3
    4e14:	d8 f0       	brcs	.+54     	; 0x4e4c <vfprintf+0x98>
    4e16:	8b 32       	cpi	r24, 0x2B	; 43
    4e18:	79 f0       	breq	.+30     	; 0x4e38 <vfprintf+0x84>
    4e1a:	38 f4       	brcc	.+14     	; 0x4e2a <vfprintf+0x76>
    4e1c:	80 32       	cpi	r24, 0x20	; 32
    4e1e:	79 f0       	breq	.+30     	; 0x4e3e <vfprintf+0x8a>
    4e20:	83 32       	cpi	r24, 0x23	; 35
    4e22:	a1 f4       	brne	.+40     	; 0x4e4c <vfprintf+0x98>
    4e24:	23 2d       	mov	r18, r3
    4e26:	20 61       	ori	r18, 0x10	; 16
    4e28:	1d c0       	rjmp	.+58     	; 0x4e64 <vfprintf+0xb0>
    4e2a:	8d 32       	cpi	r24, 0x2D	; 45
    4e2c:	61 f0       	breq	.+24     	; 0x4e46 <vfprintf+0x92>
    4e2e:	80 33       	cpi	r24, 0x30	; 48
    4e30:	69 f4       	brne	.+26     	; 0x4e4c <vfprintf+0x98>
    4e32:	23 2d       	mov	r18, r3
    4e34:	21 60       	ori	r18, 0x01	; 1
    4e36:	16 c0       	rjmp	.+44     	; 0x4e64 <vfprintf+0xb0>
    4e38:	83 2d       	mov	r24, r3
    4e3a:	82 60       	ori	r24, 0x02	; 2
    4e3c:	38 2e       	mov	r3, r24
    4e3e:	e3 2d       	mov	r30, r3
    4e40:	e4 60       	ori	r30, 0x04	; 4
    4e42:	3e 2e       	mov	r3, r30
    4e44:	2a c0       	rjmp	.+84     	; 0x4e9a <vfprintf+0xe6>
    4e46:	f3 2d       	mov	r31, r3
    4e48:	f8 60       	ori	r31, 0x08	; 8
    4e4a:	1d c0       	rjmp	.+58     	; 0x4e86 <vfprintf+0xd2>
    4e4c:	37 fc       	sbrc	r3, 7
    4e4e:	2d c0       	rjmp	.+90     	; 0x4eaa <vfprintf+0xf6>
    4e50:	20 ed       	ldi	r18, 0xD0	; 208
    4e52:	28 0f       	add	r18, r24
    4e54:	2a 30       	cpi	r18, 0x0A	; 10
    4e56:	40 f0       	brcs	.+16     	; 0x4e68 <vfprintf+0xb4>
    4e58:	8e 32       	cpi	r24, 0x2E	; 46
    4e5a:	b9 f4       	brne	.+46     	; 0x4e8a <vfprintf+0xd6>
    4e5c:	36 fc       	sbrc	r3, 6
    4e5e:	81 c1       	rjmp	.+770    	; 0x5162 <vfprintf+0x3ae>
    4e60:	23 2d       	mov	r18, r3
    4e62:	20 64       	ori	r18, 0x40	; 64
    4e64:	32 2e       	mov	r3, r18
    4e66:	19 c0       	rjmp	.+50     	; 0x4e9a <vfprintf+0xe6>
    4e68:	36 fe       	sbrs	r3, 6
    4e6a:	06 c0       	rjmp	.+12     	; 0x4e78 <vfprintf+0xc4>
    4e6c:	8a e0       	ldi	r24, 0x0A	; 10
    4e6e:	98 9e       	mul	r9, r24
    4e70:	20 0d       	add	r18, r0
    4e72:	11 24       	eor	r1, r1
    4e74:	92 2e       	mov	r9, r18
    4e76:	11 c0       	rjmp	.+34     	; 0x4e9a <vfprintf+0xe6>
    4e78:	ea e0       	ldi	r30, 0x0A	; 10
    4e7a:	2e 9e       	mul	r2, r30
    4e7c:	20 0d       	add	r18, r0
    4e7e:	11 24       	eor	r1, r1
    4e80:	22 2e       	mov	r2, r18
    4e82:	f3 2d       	mov	r31, r3
    4e84:	f0 62       	ori	r31, 0x20	; 32
    4e86:	3f 2e       	mov	r3, r31
    4e88:	08 c0       	rjmp	.+16     	; 0x4e9a <vfprintf+0xe6>
    4e8a:	8c 36       	cpi	r24, 0x6C	; 108
    4e8c:	21 f4       	brne	.+8      	; 0x4e96 <vfprintf+0xe2>
    4e8e:	83 2d       	mov	r24, r3
    4e90:	80 68       	ori	r24, 0x80	; 128
    4e92:	38 2e       	mov	r3, r24
    4e94:	02 c0       	rjmp	.+4      	; 0x4e9a <vfprintf+0xe6>
    4e96:	88 36       	cpi	r24, 0x68	; 104
    4e98:	41 f4       	brne	.+16     	; 0x4eaa <vfprintf+0xf6>
    4e9a:	f7 01       	movw	r30, r14
    4e9c:	93 fd       	sbrc	r25, 3
    4e9e:	85 91       	lpm	r24, Z+
    4ea0:	93 ff       	sbrs	r25, 3
    4ea2:	81 91       	ld	r24, Z+
    4ea4:	7f 01       	movw	r14, r30
    4ea6:	81 11       	cpse	r24, r1
    4ea8:	b3 cf       	rjmp	.-154    	; 0x4e10 <vfprintf+0x5c>
    4eaa:	98 2f       	mov	r25, r24
    4eac:	9f 7d       	andi	r25, 0xDF	; 223
    4eae:	95 54       	subi	r25, 0x45	; 69
    4eb0:	93 30       	cpi	r25, 0x03	; 3
    4eb2:	28 f4       	brcc	.+10     	; 0x4ebe <vfprintf+0x10a>
    4eb4:	0c 5f       	subi	r16, 0xFC	; 252
    4eb6:	1f 4f       	sbci	r17, 0xFF	; 255
    4eb8:	9f e3       	ldi	r25, 0x3F	; 63
    4eba:	99 83       	std	Y+1, r25	; 0x01
    4ebc:	0d c0       	rjmp	.+26     	; 0x4ed8 <vfprintf+0x124>
    4ebe:	83 36       	cpi	r24, 0x63	; 99
    4ec0:	31 f0       	breq	.+12     	; 0x4ece <vfprintf+0x11a>
    4ec2:	83 37       	cpi	r24, 0x73	; 115
    4ec4:	71 f0       	breq	.+28     	; 0x4ee2 <vfprintf+0x12e>
    4ec6:	83 35       	cpi	r24, 0x53	; 83
    4ec8:	09 f0       	breq	.+2      	; 0x4ecc <vfprintf+0x118>
    4eca:	59 c0       	rjmp	.+178    	; 0x4f7e <vfprintf+0x1ca>
    4ecc:	21 c0       	rjmp	.+66     	; 0x4f10 <vfprintf+0x15c>
    4ece:	f8 01       	movw	r30, r16
    4ed0:	80 81       	ld	r24, Z
    4ed2:	89 83       	std	Y+1, r24	; 0x01
    4ed4:	0e 5f       	subi	r16, 0xFE	; 254
    4ed6:	1f 4f       	sbci	r17, 0xFF	; 255
    4ed8:	88 24       	eor	r8, r8
    4eda:	83 94       	inc	r8
    4edc:	91 2c       	mov	r9, r1
    4ede:	53 01       	movw	r10, r6
    4ee0:	13 c0       	rjmp	.+38     	; 0x4f08 <vfprintf+0x154>
    4ee2:	28 01       	movw	r4, r16
    4ee4:	f2 e0       	ldi	r31, 0x02	; 2
    4ee6:	4f 0e       	add	r4, r31
    4ee8:	51 1c       	adc	r5, r1
    4eea:	f8 01       	movw	r30, r16
    4eec:	a0 80       	ld	r10, Z
    4eee:	b1 80       	ldd	r11, Z+1	; 0x01
    4ef0:	36 fe       	sbrs	r3, 6
    4ef2:	03 c0       	rjmp	.+6      	; 0x4efa <vfprintf+0x146>
    4ef4:	69 2d       	mov	r22, r9
    4ef6:	70 e0       	ldi	r23, 0x00	; 0
    4ef8:	02 c0       	rjmp	.+4      	; 0x4efe <vfprintf+0x14a>
    4efa:	6f ef       	ldi	r22, 0xFF	; 255
    4efc:	7f ef       	ldi	r23, 0xFF	; 255
    4efe:	c5 01       	movw	r24, r10
    4f00:	0e 94 c6 28 	call	0x518c	; 0x518c <strnlen>
    4f04:	4c 01       	movw	r8, r24
    4f06:	82 01       	movw	r16, r4
    4f08:	f3 2d       	mov	r31, r3
    4f0a:	ff 77       	andi	r31, 0x7F	; 127
    4f0c:	3f 2e       	mov	r3, r31
    4f0e:	16 c0       	rjmp	.+44     	; 0x4f3c <vfprintf+0x188>
    4f10:	28 01       	movw	r4, r16
    4f12:	22 e0       	ldi	r18, 0x02	; 2
    4f14:	42 0e       	add	r4, r18
    4f16:	51 1c       	adc	r5, r1
    4f18:	f8 01       	movw	r30, r16
    4f1a:	a0 80       	ld	r10, Z
    4f1c:	b1 80       	ldd	r11, Z+1	; 0x01
    4f1e:	36 fe       	sbrs	r3, 6
    4f20:	03 c0       	rjmp	.+6      	; 0x4f28 <vfprintf+0x174>
    4f22:	69 2d       	mov	r22, r9
    4f24:	70 e0       	ldi	r23, 0x00	; 0
    4f26:	02 c0       	rjmp	.+4      	; 0x4f2c <vfprintf+0x178>
    4f28:	6f ef       	ldi	r22, 0xFF	; 255
    4f2a:	7f ef       	ldi	r23, 0xFF	; 255
    4f2c:	c5 01       	movw	r24, r10
    4f2e:	0e 94 bb 28 	call	0x5176	; 0x5176 <strnlen_P>
    4f32:	4c 01       	movw	r8, r24
    4f34:	f3 2d       	mov	r31, r3
    4f36:	f0 68       	ori	r31, 0x80	; 128
    4f38:	3f 2e       	mov	r3, r31
    4f3a:	82 01       	movw	r16, r4
    4f3c:	33 fc       	sbrc	r3, 3
    4f3e:	1b c0       	rjmp	.+54     	; 0x4f76 <vfprintf+0x1c2>
    4f40:	82 2d       	mov	r24, r2
    4f42:	90 e0       	ldi	r25, 0x00	; 0
    4f44:	88 16       	cp	r8, r24
    4f46:	99 06       	cpc	r9, r25
    4f48:	b0 f4       	brcc	.+44     	; 0x4f76 <vfprintf+0x1c2>
    4f4a:	b6 01       	movw	r22, r12
    4f4c:	80 e2       	ldi	r24, 0x20	; 32
    4f4e:	90 e0       	ldi	r25, 0x00	; 0
    4f50:	0e 94 e1 28 	call	0x51c2	; 0x51c2 <fputc>
    4f54:	2a 94       	dec	r2
    4f56:	f4 cf       	rjmp	.-24     	; 0x4f40 <vfprintf+0x18c>
    4f58:	f5 01       	movw	r30, r10
    4f5a:	37 fc       	sbrc	r3, 7
    4f5c:	85 91       	lpm	r24, Z+
    4f5e:	37 fe       	sbrs	r3, 7
    4f60:	81 91       	ld	r24, Z+
    4f62:	5f 01       	movw	r10, r30
    4f64:	b6 01       	movw	r22, r12
    4f66:	90 e0       	ldi	r25, 0x00	; 0
    4f68:	0e 94 e1 28 	call	0x51c2	; 0x51c2 <fputc>
    4f6c:	21 10       	cpse	r2, r1
    4f6e:	2a 94       	dec	r2
    4f70:	21 e0       	ldi	r18, 0x01	; 1
    4f72:	82 1a       	sub	r8, r18
    4f74:	91 08       	sbc	r9, r1
    4f76:	81 14       	cp	r8, r1
    4f78:	91 04       	cpc	r9, r1
    4f7a:	71 f7       	brne	.-36     	; 0x4f58 <vfprintf+0x1a4>
    4f7c:	e8 c0       	rjmp	.+464    	; 0x514e <vfprintf+0x39a>
    4f7e:	84 36       	cpi	r24, 0x64	; 100
    4f80:	11 f0       	breq	.+4      	; 0x4f86 <vfprintf+0x1d2>
    4f82:	89 36       	cpi	r24, 0x69	; 105
    4f84:	41 f5       	brne	.+80     	; 0x4fd6 <vfprintf+0x222>
    4f86:	f8 01       	movw	r30, r16
    4f88:	37 fe       	sbrs	r3, 7
    4f8a:	07 c0       	rjmp	.+14     	; 0x4f9a <vfprintf+0x1e6>
    4f8c:	60 81       	ld	r22, Z
    4f8e:	71 81       	ldd	r23, Z+1	; 0x01
    4f90:	82 81       	ldd	r24, Z+2	; 0x02
    4f92:	93 81       	ldd	r25, Z+3	; 0x03
    4f94:	0c 5f       	subi	r16, 0xFC	; 252
    4f96:	1f 4f       	sbci	r17, 0xFF	; 255
    4f98:	08 c0       	rjmp	.+16     	; 0x4faa <vfprintf+0x1f6>
    4f9a:	60 81       	ld	r22, Z
    4f9c:	71 81       	ldd	r23, Z+1	; 0x01
    4f9e:	07 2e       	mov	r0, r23
    4fa0:	00 0c       	add	r0, r0
    4fa2:	88 0b       	sbc	r24, r24
    4fa4:	99 0b       	sbc	r25, r25
    4fa6:	0e 5f       	subi	r16, 0xFE	; 254
    4fa8:	1f 4f       	sbci	r17, 0xFF	; 255
    4faa:	f3 2d       	mov	r31, r3
    4fac:	ff 76       	andi	r31, 0x6F	; 111
    4fae:	3f 2e       	mov	r3, r31
    4fb0:	97 ff       	sbrs	r25, 7
    4fb2:	09 c0       	rjmp	.+18     	; 0x4fc6 <vfprintf+0x212>
    4fb4:	90 95       	com	r25
    4fb6:	80 95       	com	r24
    4fb8:	70 95       	com	r23
    4fba:	61 95       	neg	r22
    4fbc:	7f 4f       	sbci	r23, 0xFF	; 255
    4fbe:	8f 4f       	sbci	r24, 0xFF	; 255
    4fc0:	9f 4f       	sbci	r25, 0xFF	; 255
    4fc2:	f0 68       	ori	r31, 0x80	; 128
    4fc4:	3f 2e       	mov	r3, r31
    4fc6:	2a e0       	ldi	r18, 0x0A	; 10
    4fc8:	30 e0       	ldi	r19, 0x00	; 0
    4fca:	a3 01       	movw	r20, r6
    4fcc:	0e 94 1d 29 	call	0x523a	; 0x523a <__ultoa_invert>
    4fd0:	88 2e       	mov	r8, r24
    4fd2:	86 18       	sub	r8, r6
    4fd4:	45 c0       	rjmp	.+138    	; 0x5060 <vfprintf+0x2ac>
    4fd6:	85 37       	cpi	r24, 0x75	; 117
    4fd8:	31 f4       	brne	.+12     	; 0x4fe6 <vfprintf+0x232>
    4fda:	23 2d       	mov	r18, r3
    4fdc:	2f 7e       	andi	r18, 0xEF	; 239
    4fde:	b2 2e       	mov	r11, r18
    4fe0:	2a e0       	ldi	r18, 0x0A	; 10
    4fe2:	30 e0       	ldi	r19, 0x00	; 0
    4fe4:	25 c0       	rjmp	.+74     	; 0x5030 <vfprintf+0x27c>
    4fe6:	93 2d       	mov	r25, r3
    4fe8:	99 7f       	andi	r25, 0xF9	; 249
    4fea:	b9 2e       	mov	r11, r25
    4fec:	8f 36       	cpi	r24, 0x6F	; 111
    4fee:	c1 f0       	breq	.+48     	; 0x5020 <vfprintf+0x26c>
    4ff0:	18 f4       	brcc	.+6      	; 0x4ff8 <vfprintf+0x244>
    4ff2:	88 35       	cpi	r24, 0x58	; 88
    4ff4:	79 f0       	breq	.+30     	; 0x5014 <vfprintf+0x260>
    4ff6:	b5 c0       	rjmp	.+362    	; 0x5162 <vfprintf+0x3ae>
    4ff8:	80 37       	cpi	r24, 0x70	; 112
    4ffa:	19 f0       	breq	.+6      	; 0x5002 <vfprintf+0x24e>
    4ffc:	88 37       	cpi	r24, 0x78	; 120
    4ffe:	21 f0       	breq	.+8      	; 0x5008 <vfprintf+0x254>
    5000:	b0 c0       	rjmp	.+352    	; 0x5162 <vfprintf+0x3ae>
    5002:	e9 2f       	mov	r30, r25
    5004:	e0 61       	ori	r30, 0x10	; 16
    5006:	be 2e       	mov	r11, r30
    5008:	b4 fe       	sbrs	r11, 4
    500a:	0d c0       	rjmp	.+26     	; 0x5026 <vfprintf+0x272>
    500c:	fb 2d       	mov	r31, r11
    500e:	f4 60       	ori	r31, 0x04	; 4
    5010:	bf 2e       	mov	r11, r31
    5012:	09 c0       	rjmp	.+18     	; 0x5026 <vfprintf+0x272>
    5014:	34 fe       	sbrs	r3, 4
    5016:	0a c0       	rjmp	.+20     	; 0x502c <vfprintf+0x278>
    5018:	29 2f       	mov	r18, r25
    501a:	26 60       	ori	r18, 0x06	; 6
    501c:	b2 2e       	mov	r11, r18
    501e:	06 c0       	rjmp	.+12     	; 0x502c <vfprintf+0x278>
    5020:	28 e0       	ldi	r18, 0x08	; 8
    5022:	30 e0       	ldi	r19, 0x00	; 0
    5024:	05 c0       	rjmp	.+10     	; 0x5030 <vfprintf+0x27c>
    5026:	20 e1       	ldi	r18, 0x10	; 16
    5028:	30 e0       	ldi	r19, 0x00	; 0
    502a:	02 c0       	rjmp	.+4      	; 0x5030 <vfprintf+0x27c>
    502c:	20 e1       	ldi	r18, 0x10	; 16
    502e:	32 e0       	ldi	r19, 0x02	; 2
    5030:	f8 01       	movw	r30, r16
    5032:	b7 fe       	sbrs	r11, 7
    5034:	07 c0       	rjmp	.+14     	; 0x5044 <vfprintf+0x290>
    5036:	60 81       	ld	r22, Z
    5038:	71 81       	ldd	r23, Z+1	; 0x01
    503a:	82 81       	ldd	r24, Z+2	; 0x02
    503c:	93 81       	ldd	r25, Z+3	; 0x03
    503e:	0c 5f       	subi	r16, 0xFC	; 252
    5040:	1f 4f       	sbci	r17, 0xFF	; 255
    5042:	06 c0       	rjmp	.+12     	; 0x5050 <vfprintf+0x29c>
    5044:	60 81       	ld	r22, Z
    5046:	71 81       	ldd	r23, Z+1	; 0x01
    5048:	80 e0       	ldi	r24, 0x00	; 0
    504a:	90 e0       	ldi	r25, 0x00	; 0
    504c:	0e 5f       	subi	r16, 0xFE	; 254
    504e:	1f 4f       	sbci	r17, 0xFF	; 255
    5050:	a3 01       	movw	r20, r6
    5052:	0e 94 1d 29 	call	0x523a	; 0x523a <__ultoa_invert>
    5056:	88 2e       	mov	r8, r24
    5058:	86 18       	sub	r8, r6
    505a:	fb 2d       	mov	r31, r11
    505c:	ff 77       	andi	r31, 0x7F	; 127
    505e:	3f 2e       	mov	r3, r31
    5060:	36 fe       	sbrs	r3, 6
    5062:	0d c0       	rjmp	.+26     	; 0x507e <vfprintf+0x2ca>
    5064:	23 2d       	mov	r18, r3
    5066:	2e 7f       	andi	r18, 0xFE	; 254
    5068:	a2 2e       	mov	r10, r18
    506a:	89 14       	cp	r8, r9
    506c:	58 f4       	brcc	.+22     	; 0x5084 <vfprintf+0x2d0>
    506e:	34 fe       	sbrs	r3, 4
    5070:	0b c0       	rjmp	.+22     	; 0x5088 <vfprintf+0x2d4>
    5072:	32 fc       	sbrc	r3, 2
    5074:	09 c0       	rjmp	.+18     	; 0x5088 <vfprintf+0x2d4>
    5076:	83 2d       	mov	r24, r3
    5078:	8e 7e       	andi	r24, 0xEE	; 238
    507a:	a8 2e       	mov	r10, r24
    507c:	05 c0       	rjmp	.+10     	; 0x5088 <vfprintf+0x2d4>
    507e:	b8 2c       	mov	r11, r8
    5080:	a3 2c       	mov	r10, r3
    5082:	03 c0       	rjmp	.+6      	; 0x508a <vfprintf+0x2d6>
    5084:	b8 2c       	mov	r11, r8
    5086:	01 c0       	rjmp	.+2      	; 0x508a <vfprintf+0x2d6>
    5088:	b9 2c       	mov	r11, r9
    508a:	a4 fe       	sbrs	r10, 4
    508c:	0f c0       	rjmp	.+30     	; 0x50ac <vfprintf+0x2f8>
    508e:	fe 01       	movw	r30, r28
    5090:	e8 0d       	add	r30, r8
    5092:	f1 1d       	adc	r31, r1
    5094:	80 81       	ld	r24, Z
    5096:	80 33       	cpi	r24, 0x30	; 48
    5098:	21 f4       	brne	.+8      	; 0x50a2 <vfprintf+0x2ee>
    509a:	9a 2d       	mov	r25, r10
    509c:	99 7e       	andi	r25, 0xE9	; 233
    509e:	a9 2e       	mov	r10, r25
    50a0:	09 c0       	rjmp	.+18     	; 0x50b4 <vfprintf+0x300>
    50a2:	a2 fe       	sbrs	r10, 2
    50a4:	06 c0       	rjmp	.+12     	; 0x50b2 <vfprintf+0x2fe>
    50a6:	b3 94       	inc	r11
    50a8:	b3 94       	inc	r11
    50aa:	04 c0       	rjmp	.+8      	; 0x50b4 <vfprintf+0x300>
    50ac:	8a 2d       	mov	r24, r10
    50ae:	86 78       	andi	r24, 0x86	; 134
    50b0:	09 f0       	breq	.+2      	; 0x50b4 <vfprintf+0x300>
    50b2:	b3 94       	inc	r11
    50b4:	a3 fc       	sbrc	r10, 3
    50b6:	11 c0       	rjmp	.+34     	; 0x50da <vfprintf+0x326>
    50b8:	a0 fe       	sbrs	r10, 0
    50ba:	06 c0       	rjmp	.+12     	; 0x50c8 <vfprintf+0x314>
    50bc:	b2 14       	cp	r11, r2
    50be:	88 f4       	brcc	.+34     	; 0x50e2 <vfprintf+0x32e>
    50c0:	28 0c       	add	r2, r8
    50c2:	92 2c       	mov	r9, r2
    50c4:	9b 18       	sub	r9, r11
    50c6:	0e c0       	rjmp	.+28     	; 0x50e4 <vfprintf+0x330>
    50c8:	b2 14       	cp	r11, r2
    50ca:	60 f4       	brcc	.+24     	; 0x50e4 <vfprintf+0x330>
    50cc:	b6 01       	movw	r22, r12
    50ce:	80 e2       	ldi	r24, 0x20	; 32
    50d0:	90 e0       	ldi	r25, 0x00	; 0
    50d2:	0e 94 e1 28 	call	0x51c2	; 0x51c2 <fputc>
    50d6:	b3 94       	inc	r11
    50d8:	f7 cf       	rjmp	.-18     	; 0x50c8 <vfprintf+0x314>
    50da:	b2 14       	cp	r11, r2
    50dc:	18 f4       	brcc	.+6      	; 0x50e4 <vfprintf+0x330>
    50de:	2b 18       	sub	r2, r11
    50e0:	02 c0       	rjmp	.+4      	; 0x50e6 <vfprintf+0x332>
    50e2:	98 2c       	mov	r9, r8
    50e4:	21 2c       	mov	r2, r1
    50e6:	a4 fe       	sbrs	r10, 4
    50e8:	10 c0       	rjmp	.+32     	; 0x510a <vfprintf+0x356>
    50ea:	b6 01       	movw	r22, r12
    50ec:	80 e3       	ldi	r24, 0x30	; 48
    50ee:	90 e0       	ldi	r25, 0x00	; 0
    50f0:	0e 94 e1 28 	call	0x51c2	; 0x51c2 <fputc>
    50f4:	a2 fe       	sbrs	r10, 2
    50f6:	17 c0       	rjmp	.+46     	; 0x5126 <vfprintf+0x372>
    50f8:	a1 fc       	sbrc	r10, 1
    50fa:	03 c0       	rjmp	.+6      	; 0x5102 <vfprintf+0x34e>
    50fc:	88 e7       	ldi	r24, 0x78	; 120
    50fe:	90 e0       	ldi	r25, 0x00	; 0
    5100:	02 c0       	rjmp	.+4      	; 0x5106 <vfprintf+0x352>
    5102:	88 e5       	ldi	r24, 0x58	; 88
    5104:	90 e0       	ldi	r25, 0x00	; 0
    5106:	b6 01       	movw	r22, r12
    5108:	0c c0       	rjmp	.+24     	; 0x5122 <vfprintf+0x36e>
    510a:	8a 2d       	mov	r24, r10
    510c:	86 78       	andi	r24, 0x86	; 134
    510e:	59 f0       	breq	.+22     	; 0x5126 <vfprintf+0x372>
    5110:	a1 fe       	sbrs	r10, 1
    5112:	02 c0       	rjmp	.+4      	; 0x5118 <vfprintf+0x364>
    5114:	8b e2       	ldi	r24, 0x2B	; 43
    5116:	01 c0       	rjmp	.+2      	; 0x511a <vfprintf+0x366>
    5118:	80 e2       	ldi	r24, 0x20	; 32
    511a:	a7 fc       	sbrc	r10, 7
    511c:	8d e2       	ldi	r24, 0x2D	; 45
    511e:	b6 01       	movw	r22, r12
    5120:	90 e0       	ldi	r25, 0x00	; 0
    5122:	0e 94 e1 28 	call	0x51c2	; 0x51c2 <fputc>
    5126:	89 14       	cp	r8, r9
    5128:	38 f4       	brcc	.+14     	; 0x5138 <vfprintf+0x384>
    512a:	b6 01       	movw	r22, r12
    512c:	80 e3       	ldi	r24, 0x30	; 48
    512e:	90 e0       	ldi	r25, 0x00	; 0
    5130:	0e 94 e1 28 	call	0x51c2	; 0x51c2 <fputc>
    5134:	9a 94       	dec	r9
    5136:	f7 cf       	rjmp	.-18     	; 0x5126 <vfprintf+0x372>
    5138:	8a 94       	dec	r8
    513a:	f3 01       	movw	r30, r6
    513c:	e8 0d       	add	r30, r8
    513e:	f1 1d       	adc	r31, r1
    5140:	80 81       	ld	r24, Z
    5142:	b6 01       	movw	r22, r12
    5144:	90 e0       	ldi	r25, 0x00	; 0
    5146:	0e 94 e1 28 	call	0x51c2	; 0x51c2 <fputc>
    514a:	81 10       	cpse	r8, r1
    514c:	f5 cf       	rjmp	.-22     	; 0x5138 <vfprintf+0x384>
    514e:	22 20       	and	r2, r2
    5150:	09 f4       	brne	.+2      	; 0x5154 <vfprintf+0x3a0>
    5152:	42 ce       	rjmp	.-892    	; 0x4dd8 <vfprintf+0x24>
    5154:	b6 01       	movw	r22, r12
    5156:	80 e2       	ldi	r24, 0x20	; 32
    5158:	90 e0       	ldi	r25, 0x00	; 0
    515a:	0e 94 e1 28 	call	0x51c2	; 0x51c2 <fputc>
    515e:	2a 94       	dec	r2
    5160:	f6 cf       	rjmp	.-20     	; 0x514e <vfprintf+0x39a>
    5162:	f6 01       	movw	r30, r12
    5164:	86 81       	ldd	r24, Z+6	; 0x06
    5166:	97 81       	ldd	r25, Z+7	; 0x07
    5168:	02 c0       	rjmp	.+4      	; 0x516e <vfprintf+0x3ba>
    516a:	8f ef       	ldi	r24, 0xFF	; 255
    516c:	9f ef       	ldi	r25, 0xFF	; 255
    516e:	2b 96       	adiw	r28, 0x0b	; 11
    5170:	e2 e1       	ldi	r30, 0x12	; 18
    5172:	0c 94 de 29 	jmp	0x53bc	; 0x53bc <__epilogue_restores__>

00005176 <strnlen_P>:
    5176:	fc 01       	movw	r30, r24
    5178:	05 90       	lpm	r0, Z+
    517a:	61 50       	subi	r22, 0x01	; 1
    517c:	70 40       	sbci	r23, 0x00	; 0
    517e:	01 10       	cpse	r0, r1
    5180:	d8 f7       	brcc	.-10     	; 0x5178 <strnlen_P+0x2>
    5182:	80 95       	com	r24
    5184:	90 95       	com	r25
    5186:	8e 0f       	add	r24, r30
    5188:	9f 1f       	adc	r25, r31
    518a:	08 95       	ret

0000518c <strnlen>:
    518c:	fc 01       	movw	r30, r24
    518e:	61 50       	subi	r22, 0x01	; 1
    5190:	70 40       	sbci	r23, 0x00	; 0
    5192:	01 90       	ld	r0, Z+
    5194:	01 10       	cpse	r0, r1
    5196:	d8 f7       	brcc	.-10     	; 0x518e <strnlen+0x2>
    5198:	80 95       	com	r24
    519a:	90 95       	com	r25
    519c:	8e 0f       	add	r24, r30
    519e:	9f 1f       	adc	r25, r31
    51a0:	08 95       	ret

000051a2 <strrev>:
    51a2:	dc 01       	movw	r26, r24
    51a4:	fc 01       	movw	r30, r24
    51a6:	67 2f       	mov	r22, r23
    51a8:	71 91       	ld	r23, Z+
    51aa:	77 23       	and	r23, r23
    51ac:	e1 f7       	brne	.-8      	; 0x51a6 <strrev+0x4>
    51ae:	32 97       	sbiw	r30, 0x02	; 2
    51b0:	04 c0       	rjmp	.+8      	; 0x51ba <strrev+0x18>
    51b2:	7c 91       	ld	r23, X
    51b4:	6d 93       	st	X+, r22
    51b6:	70 83       	st	Z, r23
    51b8:	62 91       	ld	r22, -Z
    51ba:	ae 17       	cp	r26, r30
    51bc:	bf 07       	cpc	r27, r31
    51be:	c8 f3       	brcs	.-14     	; 0x51b2 <strrev+0x10>
    51c0:	08 95       	ret

000051c2 <fputc>:
    51c2:	0f 93       	push	r16
    51c4:	1f 93       	push	r17
    51c6:	cf 93       	push	r28
    51c8:	df 93       	push	r29
    51ca:	fb 01       	movw	r30, r22
    51cc:	23 81       	ldd	r18, Z+3	; 0x03
    51ce:	21 fd       	sbrc	r18, 1
    51d0:	03 c0       	rjmp	.+6      	; 0x51d8 <fputc+0x16>
    51d2:	8f ef       	ldi	r24, 0xFF	; 255
    51d4:	9f ef       	ldi	r25, 0xFF	; 255
    51d6:	2c c0       	rjmp	.+88     	; 0x5230 <fputc+0x6e>
    51d8:	22 ff       	sbrs	r18, 2
    51da:	16 c0       	rjmp	.+44     	; 0x5208 <fputc+0x46>
    51dc:	46 81       	ldd	r20, Z+6	; 0x06
    51de:	57 81       	ldd	r21, Z+7	; 0x07
    51e0:	24 81       	ldd	r18, Z+4	; 0x04
    51e2:	35 81       	ldd	r19, Z+5	; 0x05
    51e4:	42 17       	cp	r20, r18
    51e6:	53 07       	cpc	r21, r19
    51e8:	44 f4       	brge	.+16     	; 0x51fa <fputc+0x38>
    51ea:	a0 81       	ld	r26, Z
    51ec:	b1 81       	ldd	r27, Z+1	; 0x01
    51ee:	9d 01       	movw	r18, r26
    51f0:	2f 5f       	subi	r18, 0xFF	; 255
    51f2:	3f 4f       	sbci	r19, 0xFF	; 255
    51f4:	31 83       	std	Z+1, r19	; 0x01
    51f6:	20 83       	st	Z, r18
    51f8:	8c 93       	st	X, r24
    51fa:	26 81       	ldd	r18, Z+6	; 0x06
    51fc:	37 81       	ldd	r19, Z+7	; 0x07
    51fe:	2f 5f       	subi	r18, 0xFF	; 255
    5200:	3f 4f       	sbci	r19, 0xFF	; 255
    5202:	37 83       	std	Z+7, r19	; 0x07
    5204:	26 83       	std	Z+6, r18	; 0x06
    5206:	14 c0       	rjmp	.+40     	; 0x5230 <fputc+0x6e>
    5208:	8b 01       	movw	r16, r22
    520a:	ec 01       	movw	r28, r24
    520c:	fb 01       	movw	r30, r22
    520e:	00 84       	ldd	r0, Z+8	; 0x08
    5210:	f1 85       	ldd	r31, Z+9	; 0x09
    5212:	e0 2d       	mov	r30, r0
    5214:	09 95       	icall
    5216:	89 2b       	or	r24, r25
    5218:	e1 f6       	brne	.-72     	; 0x51d2 <fputc+0x10>
    521a:	d8 01       	movw	r26, r16
    521c:	16 96       	adiw	r26, 0x06	; 6
    521e:	8d 91       	ld	r24, X+
    5220:	9c 91       	ld	r25, X
    5222:	17 97       	sbiw	r26, 0x07	; 7
    5224:	01 96       	adiw	r24, 0x01	; 1
    5226:	17 96       	adiw	r26, 0x07	; 7
    5228:	9c 93       	st	X, r25
    522a:	8e 93       	st	-X, r24
    522c:	16 97       	sbiw	r26, 0x06	; 6
    522e:	ce 01       	movw	r24, r28
    5230:	df 91       	pop	r29
    5232:	cf 91       	pop	r28
    5234:	1f 91       	pop	r17
    5236:	0f 91       	pop	r16
    5238:	08 95       	ret

0000523a <__ultoa_invert>:
    523a:	fa 01       	movw	r30, r20
    523c:	aa 27       	eor	r26, r26
    523e:	28 30       	cpi	r18, 0x08	; 8
    5240:	51 f1       	breq	.+84     	; 0x5296 <__ultoa_invert+0x5c>
    5242:	20 31       	cpi	r18, 0x10	; 16
    5244:	81 f1       	breq	.+96     	; 0x52a6 <__ultoa_invert+0x6c>
    5246:	e8 94       	clt
    5248:	6f 93       	push	r22
    524a:	6e 7f       	andi	r22, 0xFE	; 254
    524c:	6e 5f       	subi	r22, 0xFE	; 254
    524e:	7f 4f       	sbci	r23, 0xFF	; 255
    5250:	8f 4f       	sbci	r24, 0xFF	; 255
    5252:	9f 4f       	sbci	r25, 0xFF	; 255
    5254:	af 4f       	sbci	r26, 0xFF	; 255
    5256:	b1 e0       	ldi	r27, 0x01	; 1
    5258:	3e d0       	rcall	.+124    	; 0x52d6 <__ultoa_invert+0x9c>
    525a:	b4 e0       	ldi	r27, 0x04	; 4
    525c:	3c d0       	rcall	.+120    	; 0x52d6 <__ultoa_invert+0x9c>
    525e:	67 0f       	add	r22, r23
    5260:	78 1f       	adc	r23, r24
    5262:	89 1f       	adc	r24, r25
    5264:	9a 1f       	adc	r25, r26
    5266:	a1 1d       	adc	r26, r1
    5268:	68 0f       	add	r22, r24
    526a:	79 1f       	adc	r23, r25
    526c:	8a 1f       	adc	r24, r26
    526e:	91 1d       	adc	r25, r1
    5270:	a1 1d       	adc	r26, r1
    5272:	6a 0f       	add	r22, r26
    5274:	71 1d       	adc	r23, r1
    5276:	81 1d       	adc	r24, r1
    5278:	91 1d       	adc	r25, r1
    527a:	a1 1d       	adc	r26, r1
    527c:	20 d0       	rcall	.+64     	; 0x52be <__ultoa_invert+0x84>
    527e:	09 f4       	brne	.+2      	; 0x5282 <__ultoa_invert+0x48>
    5280:	68 94       	set
    5282:	3f 91       	pop	r19
    5284:	2a e0       	ldi	r18, 0x0A	; 10
    5286:	26 9f       	mul	r18, r22
    5288:	11 24       	eor	r1, r1
    528a:	30 19       	sub	r19, r0
    528c:	30 5d       	subi	r19, 0xD0	; 208
    528e:	31 93       	st	Z+, r19
    5290:	de f6       	brtc	.-74     	; 0x5248 <__ultoa_invert+0xe>
    5292:	cf 01       	movw	r24, r30
    5294:	08 95       	ret
    5296:	46 2f       	mov	r20, r22
    5298:	47 70       	andi	r20, 0x07	; 7
    529a:	40 5d       	subi	r20, 0xD0	; 208
    529c:	41 93       	st	Z+, r20
    529e:	b3 e0       	ldi	r27, 0x03	; 3
    52a0:	0f d0       	rcall	.+30     	; 0x52c0 <__ultoa_invert+0x86>
    52a2:	c9 f7       	brne	.-14     	; 0x5296 <__ultoa_invert+0x5c>
    52a4:	f6 cf       	rjmp	.-20     	; 0x5292 <__ultoa_invert+0x58>
    52a6:	46 2f       	mov	r20, r22
    52a8:	4f 70       	andi	r20, 0x0F	; 15
    52aa:	40 5d       	subi	r20, 0xD0	; 208
    52ac:	4a 33       	cpi	r20, 0x3A	; 58
    52ae:	18 f0       	brcs	.+6      	; 0x52b6 <__ultoa_invert+0x7c>
    52b0:	49 5d       	subi	r20, 0xD9	; 217
    52b2:	31 fd       	sbrc	r19, 1
    52b4:	40 52       	subi	r20, 0x20	; 32
    52b6:	41 93       	st	Z+, r20
    52b8:	02 d0       	rcall	.+4      	; 0x52be <__ultoa_invert+0x84>
    52ba:	a9 f7       	brne	.-22     	; 0x52a6 <__ultoa_invert+0x6c>
    52bc:	ea cf       	rjmp	.-44     	; 0x5292 <__ultoa_invert+0x58>
    52be:	b4 e0       	ldi	r27, 0x04	; 4
    52c0:	a6 95       	lsr	r26
    52c2:	97 95       	ror	r25
    52c4:	87 95       	ror	r24
    52c6:	77 95       	ror	r23
    52c8:	67 95       	ror	r22
    52ca:	ba 95       	dec	r27
    52cc:	c9 f7       	brne	.-14     	; 0x52c0 <__ultoa_invert+0x86>
    52ce:	00 97       	sbiw	r24, 0x00	; 0
    52d0:	61 05       	cpc	r22, r1
    52d2:	71 05       	cpc	r23, r1
    52d4:	08 95       	ret
    52d6:	9b 01       	movw	r18, r22
    52d8:	ac 01       	movw	r20, r24
    52da:	0a 2e       	mov	r0, r26
    52dc:	06 94       	lsr	r0
    52de:	57 95       	ror	r21
    52e0:	47 95       	ror	r20
    52e2:	37 95       	ror	r19
    52e4:	27 95       	ror	r18
    52e6:	ba 95       	dec	r27
    52e8:	c9 f7       	brne	.-14     	; 0x52dc <__ultoa_invert+0xa2>
    52ea:	62 0f       	add	r22, r18
    52ec:	73 1f       	adc	r23, r19
    52ee:	84 1f       	adc	r24, r20
    52f0:	95 1f       	adc	r25, r21
    52f2:	a0 1d       	adc	r26, r0
    52f4:	08 95       	ret

000052f6 <eeprom_read_byte>:
    52f6:	e1 99       	sbic	0x1c, 1	; 28
    52f8:	fe cf       	rjmp	.-4      	; 0x52f6 <eeprom_read_byte>
    52fa:	9f bb       	out	0x1f, r25	; 31
    52fc:	8e bb       	out	0x1e, r24	; 30
    52fe:	e0 9a       	sbi	0x1c, 0	; 28
    5300:	99 27       	eor	r25, r25
    5302:	8d b3       	in	r24, 0x1d	; 29
    5304:	08 95       	ret

00005306 <eeprom_read_word>:
    5306:	a8 e1       	ldi	r26, 0x18	; 24
    5308:	b0 e0       	ldi	r27, 0x00	; 0
    530a:	42 e0       	ldi	r20, 0x02	; 2
    530c:	50 e0       	ldi	r21, 0x00	; 0
    530e:	0c 94 b4 29 	jmp	0x5368	; 0x5368 <eeprom_read_blraw>

00005312 <eeprom_update_byte>:
    5312:	26 2f       	mov	r18, r22

00005314 <eeprom_update_r18>:
    5314:	e1 99       	sbic	0x1c, 1	; 28
    5316:	fe cf       	rjmp	.-4      	; 0x5314 <eeprom_update_r18>
    5318:	9f bb       	out	0x1f, r25	; 31
    531a:	8e bb       	out	0x1e, r24	; 30
    531c:	e0 9a       	sbi	0x1c, 0	; 28
    531e:	01 97       	sbiw	r24, 0x01	; 1
    5320:	0d b2       	in	r0, 0x1d	; 29
    5322:	02 16       	cp	r0, r18
    5324:	31 f0       	breq	.+12     	; 0x5332 <eeprom_update_r18+0x1e>
    5326:	2d bb       	out	0x1d, r18	; 29
    5328:	0f b6       	in	r0, 0x3f	; 63
    532a:	f8 94       	cli
    532c:	e2 9a       	sbi	0x1c, 2	; 28
    532e:	e1 9a       	sbi	0x1c, 1	; 28
    5330:	0f be       	out	0x3f, r0	; 63
    5332:	08 95       	ret

00005334 <eeprom_update_word>:
    5334:	01 96       	adiw	r24, 0x01	; 1
    5336:	27 2f       	mov	r18, r23
    5338:	0e 94 8a 29 	call	0x5314	; 0x5314 <eeprom_update_r18>
    533c:	0c 94 89 29 	jmp	0x5312	; 0x5312 <eeprom_update_byte>

00005340 <eeprom_write_byte>:
    5340:	26 2f       	mov	r18, r22

00005342 <eeprom_write_r18>:
    5342:	e1 99       	sbic	0x1c, 1	; 28
    5344:	fe cf       	rjmp	.-4      	; 0x5342 <eeprom_write_r18>
    5346:	9f bb       	out	0x1f, r25	; 31
    5348:	8e bb       	out	0x1e, r24	; 30
    534a:	2d bb       	out	0x1d, r18	; 29
    534c:	0f b6       	in	r0, 0x3f	; 63
    534e:	f8 94       	cli
    5350:	e2 9a       	sbi	0x1c, 2	; 28
    5352:	e1 9a       	sbi	0x1c, 1	; 28
    5354:	0f be       	out	0x3f, r0	; 63
    5356:	01 96       	adiw	r24, 0x01	; 1
    5358:	08 95       	ret

0000535a <eeprom_write_word>:
    535a:	0e 94 a0 29 	call	0x5340	; 0x5340 <eeprom_write_byte>
    535e:	27 2f       	mov	r18, r23
    5360:	0c 94 a1 29 	jmp	0x5342	; 0x5342 <eeprom_write_r18>

00005364 <eeprom_read_block>:
    5364:	dc 01       	movw	r26, r24
    5366:	cb 01       	movw	r24, r22

00005368 <eeprom_read_blraw>:
    5368:	fc 01       	movw	r30, r24
    536a:	e1 99       	sbic	0x1c, 1	; 28
    536c:	fe cf       	rjmp	.-4      	; 0x536a <eeprom_read_blraw+0x2>
    536e:	06 c0       	rjmp	.+12     	; 0x537c <eeprom_read_blraw+0x14>
    5370:	ff bb       	out	0x1f, r31	; 31
    5372:	ee bb       	out	0x1e, r30	; 30
    5374:	e0 9a       	sbi	0x1c, 0	; 28
    5376:	31 96       	adiw	r30, 0x01	; 1
    5378:	0d b2       	in	r0, 0x1d	; 29
    537a:	0d 92       	st	X+, r0
    537c:	41 50       	subi	r20, 0x01	; 1
    537e:	50 40       	sbci	r21, 0x00	; 0
    5380:	b8 f7       	brcc	.-18     	; 0x5370 <eeprom_read_blraw+0x8>
    5382:	08 95       	ret

00005384 <__prologue_saves__>:
    5384:	2f 92       	push	r2
    5386:	3f 92       	push	r3
    5388:	4f 92       	push	r4
    538a:	5f 92       	push	r5
    538c:	6f 92       	push	r6
    538e:	7f 92       	push	r7
    5390:	8f 92       	push	r8
    5392:	9f 92       	push	r9
    5394:	af 92       	push	r10
    5396:	bf 92       	push	r11
    5398:	cf 92       	push	r12
    539a:	df 92       	push	r13
    539c:	ef 92       	push	r14
    539e:	ff 92       	push	r15
    53a0:	0f 93       	push	r16
    53a2:	1f 93       	push	r17
    53a4:	cf 93       	push	r28
    53a6:	df 93       	push	r29
    53a8:	cd b7       	in	r28, 0x3d	; 61
    53aa:	de b7       	in	r29, 0x3e	; 62
    53ac:	ca 1b       	sub	r28, r26
    53ae:	db 0b       	sbc	r29, r27
    53b0:	0f b6       	in	r0, 0x3f	; 63
    53b2:	f8 94       	cli
    53b4:	de bf       	out	0x3e, r29	; 62
    53b6:	0f be       	out	0x3f, r0	; 63
    53b8:	cd bf       	out	0x3d, r28	; 61
    53ba:	09 94       	ijmp

000053bc <__epilogue_restores__>:
    53bc:	2a 88       	ldd	r2, Y+18	; 0x12
    53be:	39 88       	ldd	r3, Y+17	; 0x11
    53c0:	48 88       	ldd	r4, Y+16	; 0x10
    53c2:	5f 84       	ldd	r5, Y+15	; 0x0f
    53c4:	6e 84       	ldd	r6, Y+14	; 0x0e
    53c6:	7d 84       	ldd	r7, Y+13	; 0x0d
    53c8:	8c 84       	ldd	r8, Y+12	; 0x0c
    53ca:	9b 84       	ldd	r9, Y+11	; 0x0b
    53cc:	aa 84       	ldd	r10, Y+10	; 0x0a
    53ce:	b9 84       	ldd	r11, Y+9	; 0x09
    53d0:	c8 84       	ldd	r12, Y+8	; 0x08
    53d2:	df 80       	ldd	r13, Y+7	; 0x07
    53d4:	ee 80       	ldd	r14, Y+6	; 0x06
    53d6:	fd 80       	ldd	r15, Y+5	; 0x05
    53d8:	0c 81       	ldd	r16, Y+4	; 0x04
    53da:	1b 81       	ldd	r17, Y+3	; 0x03
    53dc:	aa 81       	ldd	r26, Y+2	; 0x02
    53de:	b9 81       	ldd	r27, Y+1	; 0x01
    53e0:	ce 0f       	add	r28, r30
    53e2:	d1 1d       	adc	r29, r1
    53e4:	0f b6       	in	r0, 0x3f	; 63
    53e6:	f8 94       	cli
    53e8:	de bf       	out	0x3e, r29	; 62
    53ea:	0f be       	out	0x3f, r0	; 63
    53ec:	cd bf       	out	0x3d, r28	; 61
    53ee:	ed 01       	movw	r28, r26
    53f0:	08 95       	ret

000053f2 <_exit>:
    53f2:	f8 94       	cli

000053f4 <__stop_program>:
    53f4:	ff cf       	rjmp	.-2      	; 0x53f4 <__stop_program>
